; Listing generated by Microsoft (R) Optimizing Compiler Version 19.00.24215.1 

include listing.inc

INCLUDELIB OLDNAMES

PUBLIC	?tapp@TApp@@1PEAV1@EA				; TApp::tapp
PUBLIC	??_C@_0DJ@COODFPIH@?$EA?$CI?$CD?$CJCopyright?5?$CIC?$CJ?51996?92016?5H?4Sh@ ; `string'
PUBLIC	??_C@_04MNNLMPCN@tapp?$AA@			; `string'
PUBLIC	??_C@_19JPILLPBD@?$AAt?$AAa?$AAp?$AAp?$AA?$AA@	; `string'
PUBLIC	??_R1A@?0A@EA@TWinHashTbl@@8			; TWinHashTbl::`RTTI Base Class Descriptor at (0,-1,0,64)'
PUBLIC	??_R4TWinHashTbl@@6B@				; TWinHashTbl::`RTTI Complete Object Locator'
PUBLIC	??_R3TWinHashTbl@@8				; TWinHashTbl::`RTTI Class Hierarchy Descriptor'
PUBLIC	??_7TApp@@6B@					; TApp::`vftable'
PUBLIC	??_7TWinHashTbl@@6B@				; TWinHashTbl::`vftable'
PUBLIC	??_R2TWinHashTbl@@8				; TWinHashTbl::`RTTI Base Class Array'
PUBLIC	??_R0?AVTWinHashTbl@@@8				; TWinHashTbl `RTTI Type Descriptor'
PUBLIC	??_R4TApp@@6B@					; TApp::`RTTI Complete Object Locator'
EXTRN	__imp_GetTickCount:PROC
EXTRN	__imp_LoadCursorA:PROC
EXTRN	__imp_InitCommonControls:PROC
EXTRN	__imp_RegisterClassW:PROC
EXTRN	__imp_RegisterClassA:PROC
EXTRN	__imp_CoUninitialize:PROC
EXTRN	__imp_GetParent:PROC
EXTRN	__imp_CoInitialize:PROC
	ALIGN	8

?tapp@TApp@@1PEAV1@EA DQ 01H DUP (?)			; TApp::tapp
_BSS	ENDS
;	COMDAT ??_R4TApp@@6B@
rdata$r	SEGMENT
??_R4TApp@@6B@ DD 01H					; TApp::`RTTI Complete Object Locator'
	DD	00H
	DD	00H
	DD	imagerel ??_R0?AVTApp@@@8
	DD	imagerel ??_R3TApp@@8
	DD	imagerel ??_R4TApp@@6B@
rdata$r	ENDS
;	COMDAT ??_R0?AVTWinHashTbl@@@8
data$r	SEGMENT
??_R0?AVTWinHashTbl@@@8 DQ FLAT:??_7type_info@@6B@	; TWinHashTbl `RTTI Type Descriptor'
	DQ	0000000000000000H
	DB	'.?AVTWinHashTbl@@', 00H
data$r	ENDS
;	COMDAT ??_R2TWinHashTbl@@8
rdata$r	SEGMENT
??_R2TWinHashTbl@@8 DD imagerel ??_R1A@?0A@EA@TWinHashTbl@@8 ; TWinHashTbl::`RTTI Base Class Array'
	DD	imagerel ??_R1A@?0A@EA@?$THashTblT@I@@8
	ORG $+3
rdata$r	ENDS
;	COMDAT ??_7TWinHashTbl@@6B@
CONST	SEGMENT
??_7TWinHashTbl@@6B@ DQ FLAT:??_R4TWinHashTbl@@6B@	; TWinHashTbl::`vftable'
	DQ	FLAT:?IsSameVal@TWinHashTbl@@MEAAHPEAV?$THashObjT@I@@PEBX@Z
	DQ	FLAT:??_ETWinHashTbl@@UEAAPEAXI@Z
	DQ	FLAT:?Init@?$THashTblT@I@@UEAAHH@Z
	DQ	FLAT:?UnInit@?$THashTblT@I@@UEAAXXZ
	DQ	FLAT:?Register@?$THashTblT@I@@UEAAXPEAV?$THashObjT@I@@I@Z
	DQ	FLAT:?UnRegister@?$THashTblT@I@@UEAAXPEAV?$THashObjT@I@@@Z
	DQ	FLAT:?Search@?$THashTblT@I@@UEAAPEAV?$THashObjT@I@@PEBXI@Z
	DQ	FLAT:?GetRegisterNum@?$THashTblT@I@@UEAAHXZ
CONST	ENDS
;	COMDAT ??_7TApp@@6B@
CONST	SEGMENT
??_7TApp@@6B@ DQ FLAT:??_R4TApp@@6B@			; TApp::`vftable'
	DQ	FLAT:?InitApp@TApp@@MEAAHXZ
	DQ	FLAT:??_ETApp@@UEAAPEAXI@Z
	DQ	FLAT:_purecall
	DQ	FLAT:?Run@TApp@@UEAAHXZ
	DQ	FLAT:?PreProcMsg@TApp@@UEAAHPEAUtagMSG@@@Z
CONST	ENDS
;	COMDAT ??_R3TWinHashTbl@@8
rdata$r	SEGMENT
??_R3TWinHashTbl@@8 DD 00H				; TWinHashTbl::`RTTI Class Hierarchy Descriptor'
	DD	00H
	DD	02H
	DD	imagerel ??_R2TWinHashTbl@@8
rdata$r	ENDS
;	COMDAT ??_R4TWinHashTbl@@6B@
rdata$r	SEGMENT
??_R4TWinHashTbl@@6B@ DD 01H				; TWinHashTbl::`RTTI Complete Object Locator'
	DD	00H
	DD	00H
	DD	imagerel ??_R0?AVTWinHashTbl@@@8
	DD	imagerel ??_R3TWinHashTbl@@8
	DD	imagerel ??_R4TWinHashTbl@@6B@
rdata$r	ENDS
;	COMDAT ??_R1A@?0A@EA@TWinHashTbl@@8
rdata$r	SEGMENT
??_R1A@?0A@EA@TWinHashTbl@@8 DD imagerel ??_R0?AVTWinHashTbl@@@8 ; TWinHashTbl::`RTTI Base Class Descriptor at (0,-1,0,64)'
	DD	01H
	DD	00H
	DD	0ffffffffH
	DD	00H
	DD	040H
	DD	imagerel ??_R3TWinHashTbl@@8
rdata$r	ENDS
;	COMDAT ??_C@_19JPILLPBD@?$AAt?$AAa?$AAp?$AAp?$AA?$AA@
CONST	SEGMENT
??_C@_19JPILLPBD@?$AAt?$AAa?$AAp?$AAp?$AA?$AA@ DB 't', 00H, 'a', 00H, 'p', 00H
	DB	'p', 00H, 00H, 00H				; `string'
CONST	ENDS
;	COMDAT ??_C@_04MNNLMPCN@tapp?$AA@
CONST	SEGMENT
??_C@_04MNNLMPCN@tapp?$AA@ DB 'tapp', 00H		; `string'
CONST	ENDS
;	COMDAT ??_C@_0DJ@COODFPIH@?$EA?$CI?$CD?$CJCopyright?5?$CIC?$CJ?51996?92016?5H?4Sh@
CONST	SEGMENT
??_C@_0DJ@COODFPIH@?$EA?$CI?$CD?$CJCopyright?5?$CIC?$CJ?51996?92016?5H?4Sh@ DB '@'
	DB	'(#)Copyright (C) 1996-2016 H.Shirouzu', 09H, 09H, 'tapp.cpp', 09H
	DB	'Ver0.99', 00H				; `string'
PUBLIC	??_GTApp@@UEAAPEAXI@Z				; TApp::`scalar deleting destructor'
PUBLIC	?SearchWnd@TApp@@QEAAPEAVTWin@@PEAUHWND__@@@Z	; TApp::SearchWnd
PUBLIC	??_GTWinHashTbl@@UEAAPEAXI@Z			; TWinHashTbl::`scalar deleting destructor'
PUBLIC	??1TWinHashTbl@@UEAA@XZ				; TWinHashTbl::~TWinHashTbl
PUBLIC	??0TWinHashTbl@@QEAA@H@Z			; TWinHashTbl::TWinHashTbl
PUBLIC	?IsSameVal@TWinHashTbl@@MEAAHPEAV?$THashObjT@I@@PEBX@Z ; TWinHashTbl::IsSameVal
PUBLIC	?WinProc@TApp@@SA_JPEAUHWND__@@I_K_J@Z		; TApp::WinProc
PUBLIC	?PreProcMsg@TApp@@UEAAHPEAUtagMSG@@@Z		; TApp::PreProcMsg
PUBLIC	?Run@TApp@@UEAAHXZ				; TApp::Run
PUBLIC	??1TApp@@UEAA@XZ				; TApp::~TApp
PUBLIC	??0TApp@@QEAA@PEAUHINSTANCE__@@PEADH@Z		; TApp::TApp
PUBLIC	?InitApp@TApp@@MEAAHXZ				; TApp::InitApp
EXTRN	??_ETWinHashTbl@@UEAAPEAXI@Z:PROC		; TWinHashTbl::`vector deleting destructor'
EXTRN	??_ETApp@@UEAAPEAXI@Z:PROC			; TApp::`vector deleting destructor'
;	COMDAT pdata
pdata	SEGMENT
$pdata$??_GTApp@@UEAAPEAXI@Z DD imagerel $LN6
	DD	imagerel $LN6+52
	DD	imagerel $unwind$??_GTApp@@UEAAPEAXI@Z
pdata	ENDS
;	COMDAT pdata
pdata	SEGMENT
$pdata$?SearchWnd@TApp@@QEAAPEAVTWin@@PEAUHWND__@@@Z DD imagerel $LN6
	DD	imagerel $LN6+36
	DD	imagerel $unwind$?SearchWnd@TApp@@QEAAPEAVTWin@@PEAUHWND__@@@Z
pdata	ENDS
;	COMDAT pdata
pdata	SEGMENT
$pdata$??_GTWinHashTbl@@UEAAPEAXI@Z DD imagerel $LN11
	DD	imagerel $LN11+74
	DD	imagerel $unwind$??_GTWinHashTbl@@UEAAPEAXI@Z
pdata	ENDS
;	COMDAT pdata
pdata	SEGMENT
$pdata$??1TWinHashTbl@@UEAA@XZ DD imagerel $LN6
	DD	imagerel $LN6+34
	DD	imagerel $unwind$??1TWinHashTbl@@UEAA@XZ
pdata	ENDS
;	COMDAT pdata
pdata	SEGMENT
$pdata$??0TWinHashTbl@@QEAA@H@Z DD imagerel $LN8
	DD	imagerel $LN8+71
	DD	imagerel $unwind$??0TWinHashTbl@@QEAA@H@Z
pdata	ENDS
;	COMDAT pdata
pdata	SEGMENT
$pdata$?WinProc@TApp@@SA_JPEAUHWND__@@I_K_J@Z DD imagerel $LN17
	DD	imagerel $LN17+213
	DD	imagerel $unwind$?WinProc@TApp@@SA_JPEAUHWND__@@I_K_J@Z
pdata	ENDS
;	COMDAT pdata
pdata	SEGMENT
$pdata$?PreProcMsg@TApp@@UEAAHPEAUtagMSG@@@Z DD imagerel $LN17
	DD	imagerel $LN17+130
	DD	imagerel $unwind$?PreProcMsg@TApp@@UEAAHPEAUtagMSG@@@Z
pdata	ENDS
;	COMDAT pdata
pdata	SEGMENT
$pdata$?Run@TApp@@UEAAHXZ DD imagerel $LN13
	DD	imagerel $LN13+121
	DD	imagerel $unwind$?Run@TApp@@UEAAHXZ
pdata	ENDS
;	COMDAT pdata
pdata	SEGMENT
$pdata$??1TApp@@UEAA@XZ DD imagerel $LN6
	DD	imagerel $LN6+44
	DD	imagerel $unwind$??1TApp@@UEAA@XZ
pdata	ENDS
;	COMDAT pdata
pdata	SEGMENT
$pdata$??0TApp@@QEAA@PEAUHINSTANCE__@@PEADH@Z DD imagerel $LN12
	DD	imagerel $LN12+217
	DD	imagerel $unwind$??0TApp@@QEAA@PEAUHINSTANCE__@@PEADH@Z
pdata	ENDS
;	COMDAT pdata
pdata	SEGMENT
$pdata$?dtor$0@?0???0TApp@@QEAA@PEAUHINSTANCE__@@PEADH@Z@4HA DD imagerel ?dtor$0@?0???0TApp@@QEAA@PEAUHINSTANCE__@@PEADH@Z@4HA
	DD	imagerel ?dtor$0@?0???0TApp@@QEAA@PEAUHINSTANCE__@@PEADH@Z@4HA+29
	DD	imagerel $unwind$?dtor$0@?0???0TApp@@QEAA@PEAUHINSTANCE__@@PEADH@Z@4HA
pdata	ENDS
;	COMDAT pdata
pdata	SEGMENT
$pdata$?InitApp@TApp@@MEAAHXZ DD imagerel $LN6
	DD	imagerel $LN6+152
	DD	imagerel $unwind$?InitApp@TApp@@MEAAHXZ
pdata	ENDS
;	COMDAT xdata
xdata	SEGMENT
$unwind$?InitApp@TApp@@MEAAHXZ DD 020801H
	DD	03004d208H
xdata	ENDS
;	COMDAT xdata
xdata	SEGMENT
$unwind$?dtor$0@?0???0TApp@@QEAA@PEAUHINSTANCE__@@PEADH@Z@4HA DD 020601H
	DD	050023206H
xdata	ENDS
;	COMDAT xdata
xdata	SEGMENT
$ip2state$??0TApp@@QEAA@PEAUHINSTANCE__@@PEADH@Z DD imagerel ??0TApp@@QEAA@PEAUHINSTANCE__@@PEADH@Z
	DD	0ffffffffH
	DD	imagerel ??0TApp@@QEAA@PEAUHINSTANCE__@@PEADH@Z+105
	DD	00H
	DD	imagerel ??0TApp@@QEAA@PEAUHINSTANCE__@@PEADH@Z+159
	DD	0ffffffffH
xdata	ENDS
;	COMDAT xdata
xdata	SEGMENT
$stateUnwindMap$??0TApp@@QEAA@PEAUHINSTANCE__@@PEADH@Z DD 0ffffffffH
	DD	imagerel ?dtor$0@?0???0TApp@@QEAA@PEAUHINSTANCE__@@PEADH@Z@4HA
xdata	ENDS
;	COMDAT CONST
CONST	SEGMENT
$cppxdata$??0TApp@@QEAA@PEAUHINSTANCE__@@PEADH@Z DD 019930522H
	DD	01H
	DD	imagerel $stateUnwindMap$??0TApp@@QEAA@PEAUHINSTANCE__@@PEADH@Z
	DD	00H
	DD	00H
	DD	03H
	DD	imagerel $ip2state$??0TApp@@QEAA@PEAUHINSTANCE__@@PEADH@Z
	DD	020H
	DD	00H
	DD	01H
CONST	ENDS
;	COMDAT xdata
xdata	SEGMENT
$unwind$??0TApp@@QEAA@PEAUHINSTANCE__@@PEADH@Z DD 061911H
	DD	0a6419H
	DD	093414H
	DD	070025206H
	DD	imagerel __CxxFrameHandler3
	DD	imagerel $cppxdata$??0TApp@@QEAA@PEAUHINSTANCE__@@PEADH@Z
xdata	ENDS
;	COMDAT xdata
xdata	SEGMENT
$unwind$??1TApp@@UEAA@XZ DD 010401H
	DD	04204H
xdata	ENDS
;	COMDAT xdata
xdata	SEGMENT
$unwind$?Run@TApp@@UEAAHXZ DD 020601H
	DD	030029206H
xdata	ENDS
;	COMDAT xdata
xdata	SEGMENT
$unwind$?PreProcMsg@TApp@@UEAAHPEAUtagMSG@@@Z DD 060f01H
	DD	08640fH
	DD	06340fH
	DD	0700b320fH
xdata	ENDS
;	COMDAT xdata
xdata	SEGMENT
$unwind$?WinProc@TApp@@SA_JPEAUHWND__@@I_K_J@Z DD 0a7201H
	DD	0b3472H
	DD	0c5411H
	DD	0f00d3211H
	DD	0c009e00bH
	DD	060067007H
xdata	ENDS
;	COMDAT xdata
xdata	SEGMENT
$unwind$??0TWinHashTbl@@QEAA@H@Z DD 020601H
	DD	030023206H
xdata	ENDS
;	COMDAT xdata
xdata	SEGMENT
$ip2state$??1TWinHashTbl@@UEAA@XZ DD imagerel ??1TWinHashTbl@@UEAA@XZ
	DD	0ffffffffH
	DD	imagerel ??1TWinHashTbl@@UEAA@XZ+13
	DD	00H
	DD	imagerel ??1TWinHashTbl@@UEAA@XZ+29
	DD	0ffffffffH
xdata	ENDS
;	COMDAT xdata
xdata	SEGMENT
$stateUnwindMap$??1TWinHashTbl@@UEAA@XZ DD 0ffffffffH
	DD	imagerel __std_terminate
xdata	ENDS
;	COMDAT CONST
CONST	SEGMENT
$cppxdata$??1TWinHashTbl@@UEAA@XZ DD 019930522H
	DD	01H
	DD	imagerel $stateUnwindMap$??1TWinHashTbl@@UEAA@XZ
	DD	00H
	DD	00H
	DD	03H
	DD	imagerel $ip2state$??1TWinHashTbl@@UEAA@XZ
	DD	020H
	DD	00H
	DD	05H
CONST	ENDS
;	COMDAT xdata
xdata	SEGMENT
$unwind$??1TWinHashTbl@@UEAA@XZ DD 010d19H
	DD	06204H
	DD	imagerel __CxxFrameHandler3
	DD	imagerel $cppxdata$??1TWinHashTbl@@UEAA@XZ
xdata	ENDS
;	COMDAT xdata
xdata	SEGMENT
$ip2state$??_GTWinHashTbl@@UEAAPEAXI@Z DD imagerel ??_GTWinHashTbl@@UEAAPEAXI@Z
	DD	0ffffffffH
	DD	imagerel ??_GTWinHashTbl@@UEAAPEAXI@Z+25
	DD	00H
	DD	imagerel ??_GTWinHashTbl@@UEAAPEAXI@Z+41
	DD	0ffffffffH
xdata	ENDS
;	COMDAT xdata
xdata	SEGMENT
$stateUnwindMap$??_GTWinHashTbl@@UEAAPEAXI@Z DD 0ffffffffH
	DD	imagerel __std_terminate
xdata	ENDS
;	COMDAT CONST
CONST	SEGMENT
$cppxdata$??_GTWinHashTbl@@UEAAPEAXI@Z DD 019930522H
	DD	01H
	DD	imagerel $stateUnwindMap$??_GTWinHashTbl@@UEAAPEAXI@Z
	DD	00H
	DD	00H
	DD	03H
	DD	imagerel $ip2state$??_GTWinHashTbl@@UEAAPEAXI@Z
	DD	020H
	DD	00H
	DD	05H
CONST	ENDS
;	COMDAT xdata
xdata	SEGMENT
$unwind$??_GTWinHashTbl@@UEAAPEAXI@Z DD 041419H
	DD	083414H
	DD	070025206H
	DD	imagerel __CxxFrameHandler3
	DD	imagerel $cppxdata$??_GTWinHashTbl@@UEAAPEAXI@Z
xdata	ENDS
;	COMDAT xdata
xdata	SEGMENT
$unwind$?SearchWnd@TApp@@QEAAPEAVTWin@@PEAUHWND__@@@Z DD 010901H
	DD	04209H
xdata	ENDS
;	COMDAT xdata
xdata	SEGMENT
$unwind$??_GTApp@@UEAAPEAXI@Z DD 040a01H
	DD	06340aH
	DD	07006320aH
; Function compile flags: /Ogtpy
; File f:\software1\系统软件\fastcopy\fastcopy325src\src\tlib\tapp.cpp
;	COMDAT ?InitApp@TApp@@MEAAHXZ
_TEXT	SEGMENT
wc$ = 32
this$ = 128
?InitApp@TApp@@MEAAHXZ PROC				; TApp::InitApp, COMDAT

; 100  : {

$LN6:
  00000	4c 8b dc	 mov	 r11, rsp
  00003	53		 push	 rbx
  00004	48 83 ec 70	 sub	 rsp, 112		; 00000070H

; 101  : 	WNDCLASSW wc;
; 102  : 
; 103  : 	memset(&wc, 0, sizeof(wc));

  00008	33 c0		 xor	 eax, eax
  0000a	48 8b d9	 mov	 rbx, rcx
  0000d	49 89 43 a8	 mov	 QWORD PTR [r11-88], rax

; 104  : 	wc.style			= (CS_BYTEALIGNCLIENT | CS_BYTEALIGNWINDOW | CS_DBLCLKS);
; 105  : 	wc.lpfnWndProc		= WinProc;
; 106  : 	wc.cbClsExtra 		= 0;

  00011	33 c9		 xor	 ecx, ecx
  00013	49 89 43 d0	 mov	 QWORD PTR [r11-48], rax

; 107  : 	wc.cbWndExtra		= 0;
; 108  : 	wc.hInstance		= hInstance;
; 109  : 	wc.hIcon			= NULL;
; 110  : 	wc.hCursor			= LoadCursor(NULL, IDC_ARROW);

  00017	ba 00 7f 00 00	 mov	 edx, 32512		; 00007f00H
  0001c	49 89 43 d8	 mov	 QWORD PTR [r11-40], rax
  00020	49 89 43 e0	 mov	 QWORD PTR [r11-32], rax
  00024	49 89 43 e8	 mov	 QWORD PTR [r11-24], rax
  00028	48 8d 05 00 00
	00 00		 lea	 rax, OFFSET FLAT:?WinProc@TApp@@SA_JPEAUHWND__@@I_K_J@Z ; TApp::WinProc
  0002f	c7 44 24 20 08
	30 00 00	 mov	 DWORD PTR wc$[rsp], 12296 ; 00003008H
  00037	49 89 43 b0	 mov	 QWORD PTR [r11-80], rax
  0003b	48 8b 43 40	 mov	 rax, QWORD PTR [rbx+64]
  0003f	49 89 43 c0	 mov	 QWORD PTR [r11-64], rax
  00043	49 89 4b b8	 mov	 QWORD PTR [r11-72], rcx
  00047	49 89 4b c8	 mov	 QWORD PTR [r11-56], rcx
  0004b	ff 15 00 00 00
	00		 call	 QWORD PTR __imp_LoadCursorA

; 111  : 	wc.hbrBackground	= NULL;
; 112  : 	wc.lpszMenuName		= NULL;
; 113  : 	wc.lpszClassName	= defaultClassW;

  00051	48 8b 4b 18	 mov	 rcx, QWORD PTR [rbx+24]
  00055	0f 57 c0	 xorps	 xmm0, xmm0

; 114  : 
; 115  : 	if (::FindWindowW(defaultClassW, NULL) == NULL)

  00058	33 d2		 xor	 edx, edx
  0005a	66 0f 7f 44 24
	50		 movdqa	 XMMWORD PTR wc$[rsp+48], xmm0
  00060	48 89 4c 24 60	 mov	 QWORD PTR wc$[rsp+64], rcx
  00065	48 89 44 24 48	 mov	 QWORD PTR wc$[rsp+40], rax
  0006a	ff 15 00 00 00
	00		 call	 QWORD PTR __imp_FindWindowW
  00070	48 85 c0	 test	 rax, rax
  00073	75 18		 jne	 SHORT $LN3@InitApp

; 116  : 	{
; 117  : 		if (::RegisterClassW(&wc) == 0)

  00075	48 8d 4c 24 20	 lea	 rcx, QWORD PTR wc$[rsp]
  0007a	ff 15 00 00 00
	00		 call	 QWORD PTR __imp_RegisterClassW
  00080	66 85 c0	 test	 ax, ax
  00083	75 08		 jne	 SHORT $LN3@InitApp

; 118  : 			return FALSE;

  00085	33 c0		 xor	 eax, eax

; 122  : }

  00087	48 83 c4 70	 add	 rsp, 112		; 00000070H
  0008b	5b		 pop	 rbx
  0008c	c3		 ret	 0
$LN3@InitApp:

; 119  : 	}
; 120  : 
; 121  : 	return	TRUE;

  0008d	b8 01 00 00 00	 mov	 eax, 1

; 122  : }

  00092	48 83 c4 70	 add	 rsp, 112		; 00000070H
  00096	5b		 pop	 rbx
  00097	c3		 ret	 0
?InitApp@TApp@@MEAAHXZ ENDP				; TApp::InitApp
_TEXT	ENDS
; Function compile flags: /Ogtpy
; File f:\software1\系统软件\fastcopy\fastcopy325src\src\tlib\tapp.cpp
; File f:\software1\系统软件\fastcopy\fastcopy325src\src\tlib\tmisc.h
; File f:\software1\系统软件\fastcopy\fastcopy325src\src\tlib\tlib.h
; File f:\software1\系统软件\fastcopy\fastcopy325src\src\tlib\tapp.cpp
;	COMDAT ??0TApp@@QEAA@PEAUHINSTANCE__@@PEADH@Z
_TEXT	SEGMENT
$T1 = 32
$T2 = 64
this$ = 64
_hI$ = 72
_cmdLine$ = 80
_nCmdShow$ = 88
??0TApp@@QEAA@PEAUHINSTANCE__@@PEADH@Z PROC		; TApp::TApp, COMDAT

; 19   : {

$LN12:
  00000	40 57		 push	 rdi
  00002	48 83 ec 30	 sub	 rsp, 48			; 00000030H
  00006	48 c7 44 24 20
	fe ff ff ff	 mov	 QWORD PTR $T1[rsp], -2
  0000f	48 89 5c 24 48	 mov	 QWORD PTR [rsp+72], rbx
  00014	48 89 74 24 50	 mov	 QWORD PTR [rsp+80], rsi
  00019	48 8b f9	 mov	 rdi, rcx
  0001c	48 8d 05 00 00
	00 00		 lea	 rax, OFFSET FLAT:??_7TApp@@6B@
  00023	48 89 01	 mov	 QWORD PTR [rcx], rax

; 20   : 	hInstance		= _hI;

  00026	48 89 51 40	 mov	 QWORD PTR [rcx+64], rdx

; 21   : 	cmdLine			= _cmdLine;

  0002a	4c 89 41 20	 mov	 QWORD PTR [rcx+32], r8

; 22   : 	nCmdShow		= _nCmdShow;

  0002e	44 89 49 28	 mov	 DWORD PTR [rcx+40], r9d

; 23   : 	mainWnd			= NULL;

  00032	33 f6		 xor	 esi, esi
  00034	48 89 71 30	 mov	 QWORD PTR [rcx+48], rsi

; 24   : 	preWnd			= NULL;

  00038	48 89 71 38	 mov	 QWORD PTR [rcx+56], rsi

; 25   : 	defaultClass	= "tapp";

  0003c	48 8d 05 00 00
	00 00		 lea	 rax, OFFSET FLAT:??_C@_04MNNLMPCN@tapp?$AA@
  00043	48 89 41 10	 mov	 QWORD PTR [rcx+16], rax

; 26   : 	defaultClassW	= L"tapp";

  00047	48 8d 05 00 00
	00 00		 lea	 rax, OFFSET FLAT:??_C@_19JPILLPBD@?$AAt?$AAa?$AAp?$AAp?$AA?$AA@
  0004e	48 89 41 18	 mov	 QWORD PTR [rcx+24], rax

; 27   : 	tapp			= this;

  00052	48 89 0d 00 00
	00 00		 mov	 QWORD PTR ?tapp@TApp@@1PEAV1@EA, rcx ; TApp::tapp

; 28   : 	hash			= new TWinHashTbl(MAX_TAPPWIN_HASH);

  00059	8d 4e 20	 lea	 ecx, QWORD PTR [rsi+32]
  0005c	e8 00 00 00 00	 call	 ??2@YAPEAX_K@Z		; operator new
  00061	48 8b d8	 mov	 rbx, rax
  00064	48 89 44 24 40	 mov	 QWORD PTR $T2[rsp], rax
; File f:\software1\系统软件\fastcopy\fastcopy325src\src\tlib\tmisc.h

; 71   : 	THashTblT(int _hashNum=0, BOOL _isDeleteObj=TRUE) {

  00069	48 8d 05 00 00
	00 00		 lea	 rax, OFFSET FLAT:??_7?$THashTblT@I@@6B@
  00070	48 89 03	 mov	 QWORD PTR [rbx], rax

; 72   : 		hashTbl = NULL;

  00073	48 89 73 08	 mov	 QWORD PTR [rbx+8], rsi

; 73   : 		registerNum = 0;

  00077	89 73 14	 mov	 DWORD PTR [rbx+20], esi

; 74   : 		isDeleteObj = _isDeleteObj;

  0007a	c7 43 18 01 00
	00 00		 mov	 DWORD PTR [rbx+24], 1

; 75   : 		if ((hashNum = _hashNum) > 0) {

  00081	c7 43 10 f1 03
	00 00		 mov	 DWORD PTR [rbx+16], 1009 ; 000003f1H

; 76   : 			Init(hashNum);

  00088	ba f1 03 00 00	 mov	 edx, 1009		; 000003f1H
  0008d	48 8b cb	 mov	 rcx, rbx
  00090	e8 00 00 00 00	 call	 ?Init@?$THashTblT@I@@UEAAHH@Z ; THashTblT<unsigned int>::Init
; File f:\software1\系统软件\fastcopy\fastcopy325src\src\tlib\tlib.h

; 613  : 	TWinHashTbl(int _hashNum) : THashTbl(_hashNum) {}

  00095	48 8d 05 00 00
	00 00		 lea	 rax, OFFSET FLAT:??_7TWinHashTbl@@6B@
  0009c	48 89 03	 mov	 QWORD PTR [rbx], rax
; File f:\software1\系统软件\fastcopy\fastcopy325src\src\tlib\tapp.cpp

; 28   : 	hash			= new TWinHashTbl(MAX_TAPPWIN_HASH);

  0009f	48 89 5f 08	 mov	 QWORD PTR [rdi+8], rbx

; 29   : 	twinId			= 1;

  000a3	c7 47 48 01 00
	00 00		 mov	 DWORD PTR [rdi+72], 1

; 30   : 
; 31   : 	InitInstanceForLoadStr(hInstance);

  000aa	48 8b 4f 40	 mov	 rcx, QWORD PTR [rdi+64]
  000ae	e8 00 00 00 00	 call	 ?InitInstanceForLoadStr@@YAXPEAUHINSTANCE__@@@Z ; InitInstanceForLoadStr

; 32   : 
; 33   : #if ENGLISH_TEST
; 34   : 	TSetDefaultLCID(0x409); // for English Dialog Test
; 35   : #else
; 36   : 	TSetDefaultLCID();

  000b3	e8 00 00 00 00	 call	 ?TSetDefaultLCID@@YAXK@Z ; TSetDefaultLCID

; 37   : #endif
; 38   : 	::CoInitialize(NULL);

  000b8	33 c9		 xor	 ecx, ecx
  000ba	ff 15 00 00 00
	00		 call	 QWORD PTR __imp_CoInitialize

; 39   : 	::InitCommonControls();

  000c0	ff 15 00 00 00
	00		 call	 QWORD PTR __imp_InitCommonControls

; 40   : }

  000c6	48 8b c7	 mov	 rax, rdi
  000c9	48 8b 5c 24 48	 mov	 rbx, QWORD PTR [rsp+72]
  000ce	48 8b 74 24 50	 mov	 rsi, QWORD PTR [rsp+80]
  000d3	48 83 c4 30	 add	 rsp, 48			; 00000030H
  000d7	5f		 pop	 rdi
  000d8	c3		 ret	 0
??0TApp@@QEAA@PEAUHINSTANCE__@@PEADH@Z ENDP		; TApp::TApp
_TEXT	ENDS
;	COMDAT text$x
text$x	SEGMENT
$T1 = 32
$T2 = 64
this$ = 64
_hI$ = 72
_cmdLine$ = 80
_nCmdShow$ = 88
?dtor$0@?0???0TApp@@QEAA@PEAUHINSTANCE__@@PEADH@Z@4HA PROC ; `TApp::TApp'::`1'::dtor$0
  00000	40 55		 push	 rbp
  00002	48 83 ec 20	 sub	 rsp, 32			; 00000020H
  00006	48 8b ea	 mov	 rbp, rdx
  00009	ba 20 00 00 00	 mov	 edx, 32			; 00000020H
  0000e	48 8b 4d 40	 mov	 rcx, QWORD PTR $T2[rbp]
  00012	e8 00 00 00 00	 call	 ??3@YAXPEAX_K@Z		; operator delete
  00017	48 83 c4 20	 add	 rsp, 32			; 00000020H
  0001b	5d		 pop	 rbp
  0001c	c3		 ret	 0
?dtor$0@?0???0TApp@@QEAA@PEAUHINSTANCE__@@PEADH@Z@4HA ENDP ; `TApp::TApp'::`1'::dtor$0
text$x	ENDS
; Function compile flags: /Ogtpy
;	COMDAT text$x
text$x	SEGMENT
$T1 = 32
$T2 = 64
this$ = 64
_hI$ = 72
_cmdLine$ = 80
_nCmdShow$ = 88
?dtor$0@?0???0TApp@@QEAA@PEAUHINSTANCE__@@PEADH@Z@4HA PROC ; `TApp::TApp'::`1'::dtor$0
  00000	40 55		 push	 rbp
  00002	48 83 ec 20	 sub	 rsp, 32			; 00000020H
  00006	48 8b ea	 mov	 rbp, rdx
  00009	ba 20 00 00 00	 mov	 edx, 32			; 00000020H
  0000e	48 8b 4d 40	 mov	 rcx, QWORD PTR $T2[rbp]
  00012	e8 00 00 00 00	 call	 ??3@YAXPEAX_K@Z		; operator delete
  00017	48 83 c4 20	 add	 rsp, 32			; 00000020H
  0001b	5d		 pop	 rbp
  0001c	c3		 ret	 0
?dtor$0@?0???0TApp@@QEAA@PEAUHINSTANCE__@@PEADH@Z@4HA ENDP ; `TApp::TApp'::`1'::dtor$0
text$x	ENDS
; Function compile flags: /Ogtpy
; File f:\software1\系统软件\fastcopy\fastcopy325src\src\tlib\tapp.cpp
;	COMDAT ??1TApp@@UEAA@XZ
_TEXT	SEGMENT
this$ = 48
??1TApp@@UEAA@XZ PROC					; TApp::~TApp, COMDAT

; 43   : {

$LN6:
  00000	48 83 ec 28	 sub	 rsp, 40			; 00000028H
  00004	48 8d 05 00 00
	00 00		 lea	 rax, OFFSET FLAT:??_7TApp@@6B@
  0000b	48 89 01	 mov	 QWORD PTR [rcx], rax

; 44   : 	delete mainWnd;

  0000e	48 8b 49 30	 mov	 rcx, QWORD PTR [rcx+48]
  00012	48 85 c9	 test	 rcx, rcx
  00015	74 0a		 je	 SHORT $LN3@TApp
  00017	48 8b 01	 mov	 rax, QWORD PTR [rcx]
  0001a	ba 01 00 00 00	 mov	 edx, 1
  0001f	ff 10		 call	 QWORD PTR [rax]
$LN3@TApp:

; 46   : }

  00021	48 83 c4 28	 add	 rsp, 40			; 00000028H

; 45   : 	::CoUninitialize();

  00025	48 ff 25 00 00
	00 00		 rex_jmp QWORD PTR __imp_CoUninitialize
??1TApp@@UEAA@XZ ENDP					; TApp::~TApp
_TEXT	ENDS
; Function compile flags: /Ogtpy
; File f:\software1\系统软件\fastcopy\fastcopy325src\src\tlib\tapp.cpp
;	COMDAT ?Run@TApp@@UEAAHXZ
_TEXT	SEGMENT
msg$ = 32
this$ = 96
?Run@TApp@@UEAAHXZ PROC					; TApp::Run, COMDAT

; 49   : {

$LN13:
  00000	40 53		 push	 rbx
  00002	48 83 ec 50	 sub	 rsp, 80			; 00000050H

; 50   : 	MSG		msg;
; 51   : 
; 52   : 	InitApp();

  00006	48 8b 01	 mov	 rax, QWORD PTR [rcx]
  00009	48 8b d9	 mov	 rbx, rcx
  0000c	ff 10		 call	 QWORD PTR [rax]

; 53   : 	InitWindow();

  0000e	48 8b 03	 mov	 rax, QWORD PTR [rbx]
  00011	48 8b cb	 mov	 rcx, rbx
  00014	ff 50 10	 call	 QWORD PTR [rax+16]

; 54   : 
; 55   : 	while (::GetMessage(&msg, NULL, 0, 0))

  00017	45 33 c9	 xor	 r9d, r9d
  0001a	48 8d 4c 24 20	 lea	 rcx, QWORD PTR msg$[rsp]
  0001f	45 33 c0	 xor	 r8d, r8d
  00022	33 d2		 xor	 edx, edx
  00024	ff 15 00 00 00
	00		 call	 QWORD PTR __imp_GetMessageA
  0002a	85 c0		 test	 eax, eax
  0002c	74 41		 je	 SHORT $LN11@Run
  0002e	66 90		 npad	 2
$LL2@Run:

; 56   : 	{
; 57   : 		if (PreProcMsg(&msg)) {

  00030	48 8b 03	 mov	 rax, QWORD PTR [rbx]
  00033	48 8d 54 24 20	 lea	 rdx, QWORD PTR msg$[rsp]
  00038	48 8b cb	 mov	 rcx, rbx
  0003b	ff 50 20	 call	 QWORD PTR [rax+32]
  0003e	85 c0		 test	 eax, eax
  00040	75 16		 jne	 SHORT $LN8@Run

; 58   : 			continue;
; 59   : 		}
; 60   : 
; 61   : 		::TranslateMessage(&msg);

  00042	48 8d 4c 24 20	 lea	 rcx, QWORD PTR msg$[rsp]
  00047	ff 15 00 00 00
	00		 call	 QWORD PTR __imp_TranslateMessage

; 62   : 		::DispatchMessage(&msg);

  0004d	48 8d 4c 24 20	 lea	 rcx, QWORD PTR msg$[rsp]
  00052	ff 15 00 00 00
	00		 call	 QWORD PTR __imp_DispatchMessageA
$LN8@Run:

; 54   : 
; 55   : 	while (::GetMessage(&msg, NULL, 0, 0))

  00058	45 33 c9	 xor	 r9d, r9d
  0005b	48 8d 4c 24 20	 lea	 rcx, QWORD PTR msg$[rsp]
  00060	45 33 c0	 xor	 r8d, r8d
  00063	33 d2		 xor	 edx, edx
  00065	ff 15 00 00 00
	00		 call	 QWORD PTR __imp_GetMessageA
  0006b	85 c0		 test	 eax, eax
  0006d	75 c1		 jne	 SHORT $LL2@Run
$LN11@Run:

; 63   : 	}
; 64   : 
; 65   : 	return	(int)msg.wParam;

  0006f	8b 44 24 30	 mov	 eax, DWORD PTR msg$[rsp+16]

; 66   : }

  00073	48 83 c4 50	 add	 rsp, 80			; 00000050H
  00077	5b		 pop	 rbx
  00078	c3		 ret	 0
?Run@TApp@@UEAAHXZ ENDP					; TApp::Run
_TEXT	ENDS
; Function compile flags: /Ogtpy
; File f:\software1\系统软件\fastcopy\fastcopy325src\src\tlib\tapp.cpp
; File f:\software1\系统软件\fastcopy\fastcopy325src\src\tlib\tlib.h
; File f:\software1\系统软件\fastcopy\fastcopy325src\src\tlib\tapp.cpp
; File f:\software1\系统软件\fastcopy\fastcopy325src\src\tlib\tlib.h
; File f:\software1\系统软件\fastcopy\fastcopy325src\src\tlib\tapp.cpp
;	COMDAT ?PreProcMsg@TApp@@UEAAHPEAUtagMSG@@@Z
_TEXT	SEGMENT
this$ = 48
hWnd$ = 56
msg$ = 56
?PreProcMsg@TApp@@UEAAHPEAUtagMSG@@@Z PROC		; TApp::PreProcMsg, COMDAT

; 69   : {

$LN17:
  00000	48 89 5c 24 08	 mov	 QWORD PTR [rsp+8], rbx
  00005	48 89 74 24 18	 mov	 QWORD PTR [rsp+24], rsi
  0000a	57		 push	 rdi
  0000b	48 83 ec 20	 sub	 rsp, 32			; 00000020H

; 70   : 	for (HWND hWnd=msg->hwnd; hWnd; hWnd=::GetParent(hWnd))

  0000f	48 8b 1a	 mov	 rbx, QWORD PTR [rdx]
  00012	48 8b f2	 mov	 rsi, rdx
  00015	48 8b f9	 mov	 rdi, rcx
  00018	48 85 db	 test	 rbx, rbx
  0001b	74 37		 je	 SHORT $LN3@PreProcMsg
  0001d	0f 1f 00	 npad	 3
$LL4@PreProcMsg:
; File f:\software1\系统软件\fastcopy\fastcopy325src\src\tlib\tlib.h

; 651  : 		return (TWin *)hash->Search(&hWnd, hash->MakeHashId(hWnd));

  00020	48 8b 4f 08	 mov	 rcx, QWORD PTR [rdi+8]
  00024	48 8d 54 24 38	 lea	 rdx, QWORD PTR hWnd$[rsp]
; File f:\software1\系统软件\fastcopy\fastcopy325src\src\tlib\tapp.cpp

; 72   : 		if (TWin *win = SearchWnd(hWnd)) {

  00029	48 89 5c 24 38	 mov	 QWORD PTR hWnd$[rsp], rbx
; File f:\software1\系统软件\fastcopy\fastcopy325src\src\tlib\tlib.h

; 616  : 	u_int	MakeHashId(HWND hWnd) { return DWORD_RDC(hWnd) * 0xf3f77d13; }

  0002e	44 69 c3 13 7d
	f7 f3		 imul	 r8d, ebx, -201884397	; f3f77d13H

; 651  : 		return (TWin *)hash->Search(&hWnd, hash->MakeHashId(hWnd));

  00035	48 8b 01	 mov	 rax, QWORD PTR [rcx]
  00038	ff 50 30	 call	 QWORD PTR [rax+48]
  0003b	48 8b c8	 mov	 rcx, rax
; File f:\software1\系统软件\fastcopy\fastcopy325src\src\tlib\tapp.cpp

; 72   : 		if (TWin *win = SearchWnd(hWnd)) {

  0003e	48 85 c0	 test	 rax, rax
  00041	75 23		 jne	 SHORT $LN12@PreProcMsg

; 70   : 	for (HWND hWnd=msg->hwnd; hWnd; hWnd=::GetParent(hWnd))

  00043	48 8b cb	 mov	 rcx, rbx
  00046	ff 15 00 00 00
	00		 call	 QWORD PTR __imp_GetParent
  0004c	48 8b d8	 mov	 rbx, rax
  0004f	48 85 c0	 test	 rax, rax
  00052	75 cc		 jne	 SHORT $LL4@PreProcMsg
$LN3@PreProcMsg:

; 74   : 		}
; 75   : 	}
; 76   : 
; 77   : 	return	FALSE;

  00054	33 c0		 xor	 eax, eax

; 78   : }

  00056	48 8b 5c 24 30	 mov	 rbx, QWORD PTR [rsp+48]
  0005b	48 8b 74 24 40	 mov	 rsi, QWORD PTR [rsp+64]
  00060	48 83 c4 20	 add	 rsp, 32			; 00000020H
  00064	5f		 pop	 rdi
  00065	c3		 ret	 0
$LN12@PreProcMsg:

; 73   : 			return	win->PreProcMsg(msg);

  00066	48 8b 00	 mov	 rax, QWORD PTR [rax]
  00069	48 8b d6	 mov	 rdx, rsi
  0006c	ff 90 58 03 00
	00		 call	 QWORD PTR [rax+856]

; 78   : }

  00072	48 8b 5c 24 30	 mov	 rbx, QWORD PTR [rsp+48]
  00077	48 8b 74 24 40	 mov	 rsi, QWORD PTR [rsp+64]
  0007c	48 83 c4 20	 add	 rsp, 32			; 00000020H
  00080	5f		 pop	 rdi
  00081	c3		 ret	 0
?PreProcMsg@TApp@@UEAAHPEAUtagMSG@@@Z ENDP		; TApp::PreProcMsg
_TEXT	ENDS
; Function compile flags: /Ogtpy
; File f:\software1\系统软件\fastcopy\fastcopy325src\src\tlib\tapp.cpp
; File f:\software1\系统软件\fastcopy\fastcopy325src\src\tlib\tlib.h
; File f:\software1\系统软件\fastcopy\fastcopy325src\src\tlib\tapp.cpp
; File f:\software1\系统软件\fastcopy\fastcopy325src\src\tlib\tlib.h
; File f:\software1\系统软件\fastcopy\fastcopy325src\src\tlib\tapp.cpp
; File f:\software1\系统软件\fastcopy\fastcopy325src\src\tlib\tlib.h
; File f:\software1\系统软件\fastcopy\fastcopy325src\src\tlib\tapp.cpp
; File f:\software1\系统软件\fastcopy\fastcopy325src\src\tlib\tlib.h
; File f:\software1\系统软件\fastcopy\fastcopy325src\src\tlib\tapp.cpp
;	COMDAT ?WinProc@TApp@@SA_JPEAUHWND__@@I_K_J@Z
_TEXT	SEGMENT
hWnd$ = 80
hWnd$ = 80
uMsg$ = 88
wParam$ = 96
lParam$ = 104
?WinProc@TApp@@SA_JPEAUHWND__@@I_K_J@Z PROC		; TApp::WinProc, COMDAT

; 81   : {

$LN17:
  00000	48 89 6c 24 18	 mov	 QWORD PTR [rsp+24], rbp
  00005	56		 push	 rsi
  00006	57		 push	 rdi
  00007	41 54		 push	 r12
  00009	41 56		 push	 r14
  0000b	41 57		 push	 r15
  0000d	48 83 ec 20	 sub	 rsp, 32			; 00000020H

; 82   : 	TApp	*app = TApp::GetApp();

  00011	4c 8b 35 00 00
	00 00		 mov	 r14, QWORD PTR ?tapp@TApp@@1PEAV1@EA ; TApp::tapp
  00018	4c 8b f9	 mov	 r15, rcx

; 83   : 	TWin	*win = app->SearchWnd(hWnd);

  0001b	48 89 4c 24 50	 mov	 QWORD PTR hWnd$[rsp], rcx
  00020	49 8b f0	 mov	 rsi, r8
; File f:\software1\系统软件\fastcopy\fastcopy325src\src\tlib\tlib.h

; 616  : 	u_int	MakeHashId(HWND hWnd) { return DWORD_RDC(hWnd) * 0xf3f77d13; }

  00023	44 69 e1 13 7d
	f7 f3		 imul	 r12d, ecx, -201884397	; f3f77d13H
; File f:\software1\系统软件\fastcopy\fastcopy325src\src\tlib\tapp.cpp

; 81   : {

  0002a	8b ea		 mov	 ebp, edx
; File f:\software1\系统软件\fastcopy\fastcopy325src\src\tlib\tlib.h

; 651  : 		return (TWin *)hash->Search(&hWnd, hash->MakeHashId(hWnd));

  0002c	48 8d 54 24 50	 lea	 rdx, QWORD PTR hWnd$[rsp]
; File f:\software1\系统软件\fastcopy\fastcopy325src\src\tlib\tapp.cpp

; 81   : {

  00031	49 8b f9	 mov	 rdi, r9
; File f:\software1\系统软件\fastcopy\fastcopy325src\src\tlib\tlib.h

; 651  : 		return (TWin *)hash->Search(&hWnd, hash->MakeHashId(hWnd));

  00034	49 8b 4e 08	 mov	 rcx, QWORD PTR [r14+8]
  00038	45 8b c4	 mov	 r8d, r12d
  0003b	48 8b 01	 mov	 rax, QWORD PTR [rcx]
  0003e	ff 50 30	 call	 QWORD PTR [rax+48]
; File f:\software1\系统软件\fastcopy\fastcopy325src\src\tlib\tapp.cpp

; 85   : 	if (win) {

  00041	48 85 c0	 test	 rax, rax
  00044	74 27		 je	 SHORT $LN2@WinProc

; 86   : 		return	win->WinProc(uMsg, wParam, lParam);

  00046	4c 8b 10	 mov	 r10, QWORD PTR [rax]
  00049	4c 8b cf	 mov	 r9, rdi
  0004c	4c 8b c6	 mov	 r8, rsi
  0004f	8b d5		 mov	 edx, ebp
  00051	48 8b c8	 mov	 rcx, rax
  00054	41 ff 92 60 03
	00 00		 call	 QWORD PTR [r10+864]

; 97   : }

  0005b	48 8b 6c 24 60	 mov	 rbp, QWORD PTR [rsp+96]
  00060	48 83 c4 20	 add	 rsp, 32			; 00000020H
  00064	41 5f		 pop	 r15
  00066	41 5e		 pop	 r14
  00068	41 5c		 pop	 r12
  0006a	5f		 pop	 rdi
  0006b	5e		 pop	 rsi
  0006c	c3		 ret	 0
$LN2@WinProc:
  0006d	48 89 5c 24 58	 mov	 QWORD PTR [rsp+88], rbx

; 87   : 	}
; 88   : 
; 89   : 	if ((win = app->preWnd))

  00072	49 8b 5e 38	 mov	 rbx, QWORD PTR [r14+56]
  00076	48 85 db	 test	 rbx, rbx
  00079	74 32		 je	 SHORT $LN3@WinProc

; 90   : 	{
; 91   : 		app->preWnd = NULL;

  0007b	49 c7 46 38 00
	00 00 00	 mov	 QWORD PTR [r14+56], 0
; File f:\software1\系统软件\fastcopy\fastcopy325src\src\tlib\tlib.h

; 647  : 		hash->Register(win, hash->MakeHashId(hWnd));

  00083	45 8b c4	 mov	 r8d, r12d
  00086	4c 89 7b 60	 mov	 QWORD PTR [rbx+96], r15
  0008a	48 8b d3	 mov	 rdx, rbx
  0008d	49 8b 4e 08	 mov	 rcx, QWORD PTR [r14+8]
  00091	48 8b 01	 mov	 rax, QWORD PTR [rcx]
  00094	ff 50 20	 call	 QWORD PTR [rax+32]
; File f:\software1\系统软件\fastcopy\fastcopy325src\src\tlib\tapp.cpp

; 93   : 		return	win->WinProc(uMsg, wParam, lParam);

  00097	48 8b 03	 mov	 rax, QWORD PTR [rbx]
  0009a	4c 8b cf	 mov	 r9, rdi
  0009d	4c 8b c6	 mov	 r8, rsi
  000a0	8b d5		 mov	 edx, ebp
  000a2	48 8b cb	 mov	 rcx, rbx
  000a5	ff 90 60 03 00
	00		 call	 QWORD PTR [rax+864]
  000ab	eb 11		 jmp	 SHORT $LN15@WinProc
$LN3@WinProc:

; 94   : 	}
; 95   : 
; 96   : 	return	::DefWindowProc(hWnd, uMsg, wParam, lParam);

  000ad	4c 8b cf	 mov	 r9, rdi
  000b0	4c 8b c6	 mov	 r8, rsi
  000b3	8b d5		 mov	 edx, ebp
  000b5	49 8b cf	 mov	 rcx, r15
  000b8	ff 15 00 00 00
	00		 call	 QWORD PTR __imp_DefWindowProcA
$LN15@WinProc:
  000be	48 8b 5c 24 58	 mov	 rbx, QWORD PTR [rsp+88]

; 97   : }

  000c3	48 8b 6c 24 60	 mov	 rbp, QWORD PTR [rsp+96]
  000c8	48 83 c4 20	 add	 rsp, 32			; 00000020H
  000cc	41 5f		 pop	 r15
  000ce	41 5e		 pop	 r14
  000d0	41 5c		 pop	 r12
  000d2	5f		 pop	 rdi
  000d3	5e		 pop	 rsi
  000d4	c3		 ret	 0
?WinProc@TApp@@SA_JPEAUHWND__@@I_K_J@Z ENDP		; TApp::WinProc
_TEXT	ENDS
; Function compile flags: /Ogtpy
; File f:\software1\系统软件\fastcopy\fastcopy325src\src\tlib\tlib.h
;	COMDAT ?IsSameVal@TWinHashTbl@@MEAAHPEAV?$THashObjT@I@@PEBX@Z
_TEXT	SEGMENT
this$ = 8
obj$ = 16
val$ = 24
?IsSameVal@TWinHashTbl@@MEAAHPEAV?$THashObjT@I@@PEBX@Z PROC ; TWinHashTbl::IsSameVal, COMDAT

; 609  : 		return ((TWin *)obj)->hWnd == *(HWND *)val;

  00000	49 8b 08	 mov	 rcx, QWORD PTR [r8]
  00003	33 c0		 xor	 eax, eax
  00005	48 39 4a 60	 cmp	 QWORD PTR [rdx+96], rcx
  00009	0f 94 c0	 sete	 al

; 610  : 	}

  0000c	c3		 ret	 0
?IsSameVal@TWinHashTbl@@MEAAHPEAV?$THashObjT@I@@PEBX@Z ENDP ; TWinHashTbl::IsSameVal
_TEXT	ENDS
; Function compile flags: /Ogtpy
; File f:\software1\系统软件\fastcopy\fastcopy325src\src\tlib\tlib.h
; File f:\software1\系统软件\fastcopy\fastcopy325src\src\tlib\tmisc.h
; File f:\software1\系统软件\fastcopy\fastcopy325src\src\tlib\tlib.h
; File f:\software1\系统软件\fastcopy\fastcopy325src\src\tlib\tmisc.h
; File f:\software1\系统软件\fastcopy\fastcopy325src\src\tlib\tlib.h
;	COMDAT ??0TWinHashTbl@@QEAA@H@Z
_TEXT	SEGMENT
this$ = 48
_hashNum$dead$ = 56
??0TWinHashTbl@@QEAA@H@Z PROC				; TWinHashTbl::TWinHashTbl, COMDAT

; 613  : 	TWinHashTbl(int _hashNum) : THashTbl(_hashNum) {}

$LN8:
  00000	40 53		 push	 rbx
  00002	48 83 ec 20	 sub	 rsp, 32			; 00000020H
; File f:\software1\系统软件\fastcopy\fastcopy325src\src\tlib\tmisc.h

; 71   : 	THashTblT(int _hashNum=0, BOOL _isDeleteObj=TRUE) {

  00006	48 8d 05 00 00
	00 00		 lea	 rax, OFFSET FLAT:??_7?$THashTblT@I@@6B@

; 74   : 		isDeleteObj = _isDeleteObj;

  0000d	c7 41 18 01 00
	00 00		 mov	 DWORD PTR [rcx+24], 1
  00014	48 89 01	 mov	 QWORD PTR [rcx], rax

; 75   : 		if ((hashNum = _hashNum) > 0) {
; 76   : 			Init(hashNum);

  00017	ba f1 03 00 00	 mov	 edx, 1009		; 000003f1H
  0001c	33 c0		 xor	 eax, eax
  0001e	c7 41 10 f1 03
	00 00		 mov	 DWORD PTR [rcx+16], 1009 ; 000003f1H
  00025	48 89 41 08	 mov	 QWORD PTR [rcx+8], rax
; File f:\software1\系统软件\fastcopy\fastcopy325src\src\tlib\tlib.h

; 613  : 	TWinHashTbl(int _hashNum) : THashTbl(_hashNum) {}

  00029	48 8b d9	 mov	 rbx, rcx
; File f:\software1\系统软件\fastcopy\fastcopy325src\src\tlib\tmisc.h

; 73   : 		registerNum = 0;

  0002c	89 41 14	 mov	 DWORD PTR [rcx+20], eax

; 75   : 		if ((hashNum = _hashNum) > 0) {
; 76   : 			Init(hashNum);

  0002f	e8 00 00 00 00	 call	 ?Init@?$THashTblT@I@@UEAAHH@Z ; THashTblT<unsigned int>::Init
; File f:\software1\系统软件\fastcopy\fastcopy325src\src\tlib\tlib.h

; 613  : 	TWinHashTbl(int _hashNum) : THashTbl(_hashNum) {}

  00034	48 8d 05 00 00
	00 00		 lea	 rax, OFFSET FLAT:??_7TWinHashTbl@@6B@
  0003b	48 89 03	 mov	 QWORD PTR [rbx], rax
  0003e	48 8b c3	 mov	 rax, rbx
  00041	48 83 c4 20	 add	 rsp, 32			; 00000020H
  00045	5b		 pop	 rbx
  00046	c3		 ret	 0
??0TWinHashTbl@@QEAA@H@Z ENDP				; TWinHashTbl::TWinHashTbl
_TEXT	ENDS
; Function compile flags: /Ogtpy
; File f:\software1\系统软件\fastcopy\fastcopy325src\src\tlib\tlib.h
; File f:\software1\系统软件\fastcopy\fastcopy325src\src\tlib\tmisc.h
; File f:\software1\系统软件\fastcopy\fastcopy325src\src\tlib\tlib.h
;	COMDAT ??1TWinHashTbl@@UEAA@XZ
_TEXT	SEGMENT
$T1 = 32
this$ = 64
??1TWinHashTbl@@UEAA@XZ PROC				; TWinHashTbl::~TWinHashTbl, COMDAT

; 614  : 	virtual ~TWinHashTbl() {}

$LN6:
  00000	48 83 ec 38	 sub	 rsp, 56			; 00000038H
  00004	48 c7 44 24 20
	fe ff ff ff	 mov	 QWORD PTR $T1[rsp], -2
; File f:\software1\系统软件\fastcopy\fastcopy325src\src\tlib\tmisc.h

; 79   : 	virtual ~THashTblT() { UnInit(); }

  0000d	48 8d 05 00 00
	00 00		 lea	 rax, OFFSET FLAT:??_7?$THashTblT@I@@6B@
  00014	48 89 01	 mov	 QWORD PTR [rcx], rax
  00017	e8 00 00 00 00	 call	 ?UnInit@?$THashTblT@I@@UEAAXXZ ; THashTblT<unsigned int>::UnInit
  0001c	90		 npad	 1
; File f:\software1\系统软件\fastcopy\fastcopy325src\src\tlib\tlib.h

; 614  : 	virtual ~TWinHashTbl() {}

  0001d	48 83 c4 38	 add	 rsp, 56			; 00000038H
  00021	c3		 ret	 0
??1TWinHashTbl@@UEAA@XZ ENDP				; TWinHashTbl::~TWinHashTbl
_TEXT	ENDS
; Function compile flags: /Ogtpy
; File f:\software1\系统软件\fastcopy\fastcopy325src\src\tlib\tmisc.h
;	COMDAT ??_GTWinHashTbl@@UEAAPEAXI@Z
_TEXT	SEGMENT
$T1 = 32
this$ = 64
__flags$ = 72
??_GTWinHashTbl@@UEAAPEAXI@Z PROC			; TWinHashTbl::`scalar deleting destructor', COMDAT
$LN11:
  00000	40 57		 push	 rdi
  00002	48 83 ec 30	 sub	 rsp, 48			; 00000030H
  00006	48 c7 44 24 20
	fe ff ff ff	 mov	 QWORD PTR $T1[rsp], -2
  0000f	48 89 5c 24 40	 mov	 QWORD PTR [rsp+64], rbx
  00014	8b da		 mov	 ebx, edx
  00016	48 8b f9	 mov	 rdi, rcx

; 79   : 	virtual ~THashTblT() { UnInit(); }

  00019	48 8d 05 00 00
	00 00		 lea	 rax, OFFSET FLAT:??_7?$THashTblT@I@@6B@
  00020	48 89 01	 mov	 QWORD PTR [rcx], rax
  00023	e8 00 00 00 00	 call	 ?UnInit@?$THashTblT@I@@UEAAXXZ ; THashTblT<unsigned int>::UnInit
  00028	90		 npad	 1
  00029	f6 c3 01	 test	 bl, 1
  0002c	74 0e		 je	 SHORT $LN10@scalar
  0002e	ba 20 00 00 00	 mov	 edx, 32			; 00000020H
  00033	48 8b cf	 mov	 rcx, rdi
  00036	e8 00 00 00 00	 call	 ??3@YAXPEAX_K@Z		; operator delete
  0003b	90		 npad	 1
$LN10@scalar:
  0003c	48 8b c7	 mov	 rax, rdi
  0003f	48 8b 5c 24 40	 mov	 rbx, QWORD PTR [rsp+64]
  00044	48 83 c4 30	 add	 rsp, 48			; 00000030H
  00048	5f		 pop	 rdi
  00049	c3		 ret	 0
??_GTWinHashTbl@@UEAAPEAXI@Z ENDP			; TWinHashTbl::`scalar deleting destructor'
_TEXT	ENDS
; Function compile flags: /Ogtpy
; File f:\software1\系统软件\fastcopy\fastcopy325src\src\tlib\tlib.h
;	COMDAT ?SearchWnd@TApp@@QEAAPEAVTWin@@PEAUHWND__@@@Z
_TEXT	SEGMENT
this$ = 48
hWnd$ = 56
?SearchWnd@TApp@@QEAAPEAVTWin@@PEAUHWND__@@@Z PROC	; TApp::SearchWnd, COMDAT

; 650  : 	TWin	*SearchWnd(HWND hWnd) {

$LN6:
  00000	48 89 54 24 10	 mov	 QWORD PTR [rsp+16], rdx
  00005	48 83 ec 28	 sub	 rsp, 40			; 00000028H

; 651  : 		return (TWin *)hash->Search(&hWnd, hash->MakeHashId(hWnd));

  00009	48 8b 49 08	 mov	 rcx, QWORD PTR [rcx+8]

; 616  : 	u_int	MakeHashId(HWND hWnd) { return DWORD_RDC(hWnd) * 0xf3f77d13; }

  0000d	44 69 c2 13 7d
	f7 f3		 imul	 r8d, edx, -201884397	; f3f77d13H

; 651  : 		return (TWin *)hash->Search(&hWnd, hash->MakeHashId(hWnd));

  00014	48 8d 54 24 38	 lea	 rdx, QWORD PTR hWnd$[rsp]
  00019	48 8b 01	 mov	 rax, QWORD PTR [rcx]
  0001c	ff 50 30	 call	 QWORD PTR [rax+48]

; 652  : 	}

  0001f	48 83 c4 28	 add	 rsp, 40			; 00000028H
  00023	c3		 ret	 0
?SearchWnd@TApp@@QEAAPEAVTWin@@PEAUHWND__@@@Z ENDP	; TApp::SearchWnd
_TEXT	ENDS
; Function compile flags: /Ogtpy
;	COMDAT ??_GTApp@@UEAAPEAXI@Z
_TEXT	SEGMENT
this$ = 48
__flags$ = 56
??_GTApp@@UEAAPEAXI@Z PROC				; TApp::`scalar deleting destructor', COMDAT
$LN6:
  00000	48 89 5c 24 08	 mov	 QWORD PTR [rsp+8], rbx
  00005	57		 push	 rdi
  00006	48 83 ec 20	 sub	 rsp, 32			; 00000020H
  0000a	8b da		 mov	 ebx, edx
  0000c	48 8b f9	 mov	 rdi, rcx
  0000f	e8 00 00 00 00	 call	 ??1TApp@@UEAA@XZ	; TApp::~TApp
  00014	f6 c3 01	 test	 bl, 1
  00017	74 0d		 je	 SHORT $LN4@scalar
  00019	ba 50 00 00 00	 mov	 edx, 80			; 00000050H
  0001e	48 8b cf	 mov	 rcx, rdi
  00021	e8 00 00 00 00	 call	 ??3@YAXPEAX_K@Z		; operator delete
$LN4@scalar:
  00026	48 8b c7	 mov	 rax, rdi
  00029	48 8b 5c 24 30	 mov	 rbx, QWORD PTR [rsp+48]
  0002e	48 83 c4 20	 add	 rsp, 32			; 00000020H
  00032	5f		 pop	 rdi
  00033	c3		 ret	 0
??_GTApp@@UEAAPEAXI@Z ENDP				; TApp::`scalar deleting destructor'
_TEXT	ENDS
END
