; Listing generated by Microsoft (R) Optimizing Compiler Version 19.00.24215.1 

include listing.inc

INCLUDELIB OLDNAMES

PUBLIC	??_C@_0DJ@FGFCCCJG@?$EA?$CI?$CD?$CJCopyright?5?$CIC?$CJ?51996?92016?5H?4Sh@ ; `string'
PUBLIC	??_R4TDlg@@6B@					; TDlg::`RTTI Complete Object Locator'
PUBLIC	??_7TDlg@@6B@					; TDlg::`vftable'
EXTRN	__imp_CreateDialogParamW:PROC
EXTRN	__imp_DeferWindowPos:PROC
EXTRN	__imp_EndDialog:PROC
EXTRN	__imp_GetWindowPlacement:PROC
EXTRN	__imp_BeginDeferWindowPos:PROC
EXTRN	__imp_IsDialogMessageA:PROC
EXTRN	realloc:PROC
EXTRN	__imp_EndDeferWindowPos:PROC
EXTRN	__imp_DialogBoxParamW:PROC
;	COMDAT ??_7TDlg@@6B@
CONST	SEGMENT
??_7TDlg@@6B@ DQ FLAT:??_R4TDlg@@6B@			; TDlg::`vftable'
	DQ	FLAT:??_ETDlg@@UEAAPEAXI@Z
	DQ	FLAT:?LinkHash@?$THashObjT@I@@UEAAHPEAV1@@Z
	DQ	FLAT:?UnlinkHash@?$THashObjT@I@@UEAAHXZ
	DQ	FLAT:?Show@TWin@@UEAAXH@Z
	DQ	FLAT:?Create@TWin@@UEAAHPEBD0KKPEAUHMENU__@@@Z
	DQ	FLAT:?CreateU8@TWin@@UEAAHPEBD0KKPEAUHMENU__@@@Z
	DQ	FLAT:?CreateW@TWin@@UEAAHPEB_W0KKPEAUHMENU__@@@Z
	DQ	FLAT:?Destroy@TDlg@@UEAAXXZ
	DQ	FLAT:?EvCommand@TDlg@@UEAAHGG_J@Z
	DQ	FLAT:?EvSysCommand@TDlg@@UEAAH_KUtagPOINTS@@@Z
	DQ	FLAT:?EvCreate@TDlg@@UEAAH_J@Z
	DQ	FLAT:?EvClose@TWin@@UEAAHXZ
	DQ	FLAT:?EvDestroy@TWin@@UEAAHXZ
	DQ	FLAT:?EvNcDestroy@TWin@@UEAAHXZ
	DQ	FLAT:?EvQueryEndSession@TWin@@UEAAHHH@Z
	DQ	FLAT:?EvEndSession@TWin@@UEAAHHH@Z
	DQ	FLAT:?EvPowerBroadcast@TWin@@UEAAH_K_J@Z
	DQ	FLAT:?EvQueryOpen@TDlg@@UEAAHXZ
	DQ	FLAT:?EvPaint@TWin@@UEAAHXZ
	DQ	FLAT:?EvNcPaint@TWin@@UEAAHPEAUHRGN__@@@Z
	DQ	FLAT:?EvSize@TWin@@UEAAHIGG@Z
	DQ	FLAT:?EvMove@TWin@@UEAAHHH@Z
	DQ	FLAT:?EvShowWindow@TWin@@UEAAHHH@Z
	DQ	FLAT:?EvGetMinMaxInfo@TWin@@UEAAHPEAUtagMINMAXINFO@@@Z
	DQ	FLAT:?EvTimer@TWin@@UEAAH_KP6AXPEAUHWND__@@I0K@Z@Z
	DQ	FLAT:?EvSetCursor@TWin@@UEAAHPEAUHWND__@@GG@Z
	DQ	FLAT:?EvMouseMove@TWin@@UEAAHIUtagPOINTS@@@Z
	DQ	FLAT:?EvNcHitTest@TWin@@UEAAHUtagPOINTS@@PEA_J@Z
	DQ	FLAT:?EvMeasureItem@TWin@@UEAAHIPEAUtagMEASUREITEMSTRUCT@@@Z
	DQ	FLAT:?EvDrawItem@TWin@@UEAAHIPEAUtagDRAWITEMSTRUCT@@@Z
	DQ	FLAT:?EvMenuSelect@TWin@@UEAAHIIPEAUHMENU__@@@Z
	DQ	FLAT:?EvDropFiles@TWin@@UEAAHPEAUHDROP__@@@Z
	DQ	FLAT:?EvNotify@TWin@@UEAAHIPEAUtagNMHDR@@@Z
	DQ	FLAT:?EvContextMenu@TWin@@UEAAHPEAUHWND__@@UtagPOINTS@@@Z
	DQ	FLAT:?EvHotKey@TWin@@UEAAHH@Z
	DQ	FLAT:?EvActivateApp@TWin@@UEAAHHK@Z
	DQ	FLAT:?EvActivate@TWin@@UEAAHHKPEAUHWND__@@@Z
	DQ	FLAT:?EvChar@TWin@@UEAAH_W_J@Z
	DQ	FLAT:?EvWindowPosChanged@TWin@@UEAAHPEAUtagWINDOWPOS@@@Z
	DQ	FLAT:?EvWindowPosChanging@TWin@@UEAAHPEAUtagWINDOWPOS@@@Z
	DQ	FLAT:?EvMouseWheel@TWin@@UEAAHGFFF@Z
	DQ	FLAT:?EventButton@TWin@@UEAAHIHUtagPOINTS@@@Z
	DQ	FLAT:?EventKey@TWin@@UEAAHIHJ@Z
	DQ	FLAT:?EventMenuLoop@TWin@@UEAAHIH@Z
	DQ	FLAT:?EventInitMenu@TWin@@UEAAHIPEAUHMENU__@@IH@Z
	DQ	FLAT:?EventCtlColor@TWin@@UEAAHIPEAUHDC__@@PEAUHWND__@@PEAPEAUHBRUSH__@@@Z
	DQ	FLAT:?EventFocus@TWin@@UEAAHIPEAUHWND__@@@Z
	DQ	FLAT:?EventScrollWrapper@TWin@@UEAAHIHHPEAUHWND__@@@Z
	DQ	FLAT:?EventScroll@TWin@@UEAAHIHHPEAUHWND__@@@Z
	DQ	FLAT:?EventPrint@TWin@@UEAAHIPEAUHDC__@@K@Z
	DQ	FLAT:?EventApp@TWin@@UEAAHI_K_J@Z
	DQ	FLAT:?EventUser@TWin@@UEAAHI_K_J@Z
	DQ	FLAT:?EventSystem@TWin@@UEAAHI_K_J@Z
	DQ	FLAT:?GetDlgItemTextA@TWin@@UEAAIHPEADH@Z
	DQ	FLAT:?GetDlgItemTextW@TWin@@UEAAIHPEA_WH@Z
	DQ	FLAT:?GetDlgItemTextU8@TWin@@UEAAIHPEADH@Z
	DQ	FLAT:?SetDlgItemTextA@TWin@@UEAAHHPEBD@Z
	DQ	FLAT:?SetDlgItemTextW@TWin@@UEAAHHPEB_W@Z
	DQ	FLAT:?SetDlgItemTextU8@TWin@@UEAAHHPEBD@Z
	DQ	FLAT:?GetDlgItemInt@TWin@@UEAAHHPEAHH@Z
	DQ	FLAT:?SetDlgItemInt@TWin@@UEAAHHHH@Z
	DQ	FLAT:?GetDlgItem@TWin@@UEAAPEAUHWND__@@H@Z
	DQ	FLAT:?CheckDlgButton@TWin@@UEAAHHI@Z
	DQ	FLAT:?IsDlgButtonChecked@TWin@@UEAAIH@Z
	DQ	FLAT:?IsWindowVisible@TWin@@UEAAHXZ
	DQ	FLAT:?EnableWindow@TWin@@UEAAHH@Z
	DQ	FLAT:?MessageBoxA@TWin@@UEAAHPEBD0I@Z
	DQ	FLAT:?MessageBoxW@TWin@@UEAAHPEB_W0I@Z
	DQ	FLAT:?MessageBoxU8@TWin@@UEAAHPEBD0I@Z
	DQ	FLAT:?BringWindowToTop@TWin@@UEAAHXZ
	DQ	FLAT:?SetForegroundWindow@TWin@@UEAAHXZ
	DQ	FLAT:?SetForceForegroundWindow@TWin@@UEAAHXZ
	DQ	FLAT:?ShowWindow@TWin@@UEAAHH@Z
	DQ	FLAT:?PostMessageA@TWin@@UEAAHI_K_J@Z
	DQ	FLAT:?PostMessageW@TWin@@UEAAHI_K_J@Z
	DQ	FLAT:?SendMessageA@TWin@@UEAA_JI_K_J@Z
	DQ	FLAT:?SendMessageW@TWin@@UEAA_JI_K_J@Z
	DQ	FLAT:?SendDlgItemMessageA@TWin@@UEAA_JHI_K_J@Z
	DQ	FLAT:?SendDlgItemMessageW@TWin@@UEAA_JHI_K_J@Z
	DQ	FLAT:?GetWindowRect@TWin@@UEAAHPEAUtagRECT@@@Z
	DQ	FLAT:?GetClientRect@TWin@@UEAAHPEAUtagRECT@@@Z
	DQ	FLAT:?SetWindowPos@TWin@@UEAAHPEAUHWND__@@HHHHI@Z
	DQ	FLAT:?SetActiveWindow@TWin@@UEAAPEAUHWND__@@XZ
	DQ	FLAT:?GetWindowTextA@TWin@@UEAAHPEADH@Z
	DQ	FLAT:?SetWindowTextA@TWin@@UEAAHPEBD@Z
	DQ	FLAT:?GetWindowTextW@TWin@@UEAAHPEA_WH@Z
	DQ	FLAT:?GetWindowTextU8@TWin@@UEAAHPEADH@Z
	DQ	FLAT:?SetWindowTextW@TWin@@UEAAHPEB_W@Z
	DQ	FLAT:?SetWindowTextU8@TWin@@UEAAHPEBD@Z
	DQ	FLAT:?GetWindowTextLengthW@TWin@@UEAAHXZ
	DQ	FLAT:?GetWindowTextLengthU8@TWin@@UEAAHXZ
	DQ	FLAT:?InvalidateRect@TWin@@UEAAHPEBUtagRECT@@H@Z
	DQ	FLAT:?SetFocus@TWin@@UEAAPEAUHWND__@@XZ
	DQ	FLAT:?SetWindowLongPtrA@TWin@@UEAA_JH_J@Z
	DQ	FLAT:?SetWindowWord@TWin@@UEAAGHG@Z
	DQ	FLAT:?GetWindowLongPtrA@TWin@@UEAA_JH@Z
	DQ	FLAT:?GetWindowWord@TWin@@UEAAGH@Z
	DQ	FLAT:?SetTimer@TWin@@UEAA_K_KIP6AXPEAUHWND__@@I0K@Z@Z
	DQ	FLAT:?KillTimer@TWin@@UEAAH_K@Z
	DQ	FLAT:?GetParent@TWin@@UEAAPEAV1@XZ
	DQ	FLAT:?SetParent@TWin@@UEAAXPEAV1@@Z
	DQ	FLAT:?MoveWindow@TWin@@UEAAHHHHHH@Z
	DQ	FLAT:?FitMoveWindow@TWin@@UEAAHHH@Z
	DQ	FLAT:?Sleep@TWin@@UEAAHI@Z
	DQ	FLAT:?Idle@TWin@@UEAAHXZ
	DQ	FLAT:?Parent@TWin@@UEAAPEAV1@XZ
	DQ	FLAT:?MoveCenter@TWin@@UEAAHH@Z
	DQ	FLAT:?PreProcMsg@TDlg@@UEAAHPEAUtagMSG@@@Z
	DQ	FLAT:?WinProc@TDlg@@UEAA_JI_K_J@Z
	DQ	FLAT:?DefWindowProcA@TWin@@UEAA_JI_K_J@Z
	DQ	FLAT:?SetAccel@TWin@@UEAAXPEAUHACCEL__@@@Z
	DQ	FLAT:?CreateTipWnd@TWin@@UEAAHPEB_WHH@Z
	DQ	FLAT:?SetTipTextW@TWin@@UEAAHPEB_WHH@Z
	DQ	FLAT:?CloseTipWnd@TWin@@UEAAHXZ
	DQ	FLAT:?Create@TDlg@@UEAAHPEAUHINSTANCE__@@@Z
	DQ	FLAT:?Exec@TDlg@@UEAAHXZ
	DQ	FLAT:?EndDialog@TDlg@@UEAAXH@Z
	DQ	FLAT:?SetDlgItem@TDlg@@UEAAHIK@Z
	DQ	FLAT:?FitDlgItems@TDlg@@UEAAHXZ
CONST	ENDS
;	COMDAT ??_R4TDlg@@6B@
rdata$r	SEGMENT
??_R4TDlg@@6B@ DD 01H					; TDlg::`RTTI Complete Object Locator'
	DD	00H
	DD	00H
	DD	imagerel ??_R0?AVTDlg@@@8
	DD	imagerel ??_R3TDlg@@8
	DD	imagerel ??_R4TDlg@@6B@
rdata$r	ENDS
;	COMDAT ??_C@_0DJ@FGFCCCJG@?$EA?$CI?$CD?$CJCopyright?5?$CIC?$CJ?51996?92016?5H?4Sh@
CONST	SEGMENT
??_C@_0DJ@FGFCCCJG@?$EA?$CI?$CD?$CJCopyright?5?$CIC?$CJ?51996?92016?5H?4Sh@ DB '@'
	DB	'(#)Copyright (C) 1996-2016 H.Shirouzu', 09H, 09H, 'tdlg.cpp', 09H
	DB	'Ver0.99', 00H				; `string'
PUBLIC	?EvCommand@TDlg@@UEAAHGG_J@Z			; TDlg::EvCommand
PUBLIC	??_GTDlg@@UEAAPEAXI@Z				; TDlg::`scalar deleting destructor'
PUBLIC	?WinProc@TDlg@@UEAA_JI_K_J@Z			; TDlg::WinProc
PUBLIC	?PreProcMsg@TDlg@@UEAAHPEAUtagMSG@@@Z		; TDlg::PreProcMsg
PUBLIC	?EvQueryOpen@TDlg@@UEAAHXZ			; TDlg::EvQueryOpen
PUBLIC	?EvSysCommand@TDlg@@UEAAH_KUtagPOINTS@@@Z	; TDlg::EvSysCommand
PUBLIC	?EvCreate@TDlg@@UEAAH_J@Z			; TDlg::EvCreate
PUBLIC	?FitDlgItems@TDlg@@UEAAHXZ			; TDlg::FitDlgItems
PUBLIC	?SetDlgItem@TDlg@@UEAAHIK@Z			; TDlg::SetDlgItem
PUBLIC	?EndDialog@TDlg@@UEAAXH@Z			; TDlg::EndDialog
PUBLIC	?Exec@TDlg@@UEAAHXZ				; TDlg::Exec
PUBLIC	?Destroy@TDlg@@UEAAXXZ				; TDlg::Destroy
PUBLIC	?Create@TDlg@@UEAAHPEAUHINSTANCE__@@@Z		; TDlg::Create
PUBLIC	??1TDlg@@UEAA@XZ				; TDlg::~TDlg
PUBLIC	??0TDlg@@QEAA@IPEAVTWin@@@Z			; TDlg::TDlg
EXTRN	??_ETDlg@@UEAAPEAXI@Z:PROC			; TDlg::`vector deleting destructor'
;	COMDAT pdata
pdata	SEGMENT
$pdata$?EvCommand@TDlg@@UEAAHGG_J@Z DD imagerel $LN7
	DD	imagerel $LN7+42
	DD	imagerel $unwind$?EvCommand@TDlg@@UEAAHGG_J@Z
pdata	ENDS
;	COMDAT pdata
pdata	SEGMENT
$pdata$??_GTDlg@@UEAAPEAXI@Z DD imagerel $LN6
	DD	imagerel $LN6+52
	DD	imagerel $unwind$??_GTDlg@@UEAAPEAXI@Z
pdata	ENDS
;	COMDAT pdata
pdata	SEGMENT
$pdata$?WinProc@TDlg@@UEAA_JI_K_J@Z DD imagerel $LN75
	DD	imagerel $LN75+2462
	DD	imagerel $unwind$?WinProc@TDlg@@UEAA_JI_K_J@Z
pdata	ENDS
;	COMDAT pdata
pdata	SEGMENT
$pdata$?PreProcMsg@TDlg@@UEAAHPEAUtagMSG@@@Z DD imagerel $LN6
	DD	imagerel $LN6+101
	DD	imagerel $unwind$?PreProcMsg@TDlg@@UEAAHPEAUtagMSG@@@Z
pdata	ENDS
;	COMDAT pdata
pdata	SEGMENT
$pdata$?FitDlgItems@TDlg@@UEAAHXZ DD imagerel $LN32
	DD	imagerel $LN32+38
	DD	imagerel $unwind$?FitDlgItems@TDlg@@UEAAHXZ
pdata	ENDS
;	COMDAT pdata
pdata	SEGMENT
$pdata$3$?FitDlgItems@TDlg@@UEAAHXZ DD imagerel $LN32+38
	DD	imagerel $LN32+393
	DD	imagerel $chain$3$?FitDlgItems@TDlg@@UEAAHXZ
pdata	ENDS
;	COMDAT pdata
pdata	SEGMENT
$pdata$5$?FitDlgItems@TDlg@@UEAAHXZ DD imagerel $LN32+393
	DD	imagerel $LN32+395
	DD	imagerel $chain$5$?FitDlgItems@TDlg@@UEAAHXZ
pdata	ENDS
;	COMDAT pdata
pdata	SEGMENT
$pdata$?SetDlgItem@TDlg@@UEAAHIK@Z DD imagerel $LN15
	DD	imagerel $LN15+325
	DD	imagerel $unwind$?SetDlgItem@TDlg@@UEAAHIK@Z
pdata	ENDS
;	COMDAT pdata
pdata	SEGMENT
$pdata$?EndDialog@TDlg@@UEAAXH@Z DD imagerel $LN8
	DD	imagerel $LN8+84
	DD	imagerel $unwind$?EndDialog@TDlg@@UEAAXH@Z
pdata	ENDS
;	COMDAT pdata
pdata	SEGMENT
$pdata$?Exec@TDlg@@UEAAHXZ DD imagerel $LN15
	DD	imagerel $LN15+111
	DD	imagerel $unwind$?Exec@TDlg@@UEAAHXZ
pdata	ENDS
;	COMDAT pdata
pdata	SEGMENT
$pdata$?Create@TDlg@@UEAAHPEAUHINSTANCE__@@@Z DD imagerel $LN20
	DD	imagerel $LN20+126
	DD	imagerel $unwind$?Create@TDlg@@UEAAHPEAUHINSTANCE__@@@Z
pdata	ENDS
;	COMDAT pdata
pdata	SEGMENT
$pdata$??1TDlg@@UEAA@XZ DD imagerel $LN4
	DD	imagerel $LN4+72
	DD	imagerel $unwind$??1TDlg@@UEAA@XZ
pdata	ENDS
;	COMDAT pdata
pdata	SEGMENT
$pdata$??0TDlg@@QEAA@IPEAVTWin@@@Z DD imagerel $LN4
	DD	imagerel $LN4+53
	DD	imagerel $unwind$??0TDlg@@QEAA@IPEAVTWin@@@Z
;	COMDAT xdata
xdata	SEGMENT
$unwind$??0TDlg@@QEAA@IPEAVTWin@@@Z DD 010401H
	DD	04204H
xdata	ENDS
;	COMDAT xdata
xdata	SEGMENT
$ip2state$??1TDlg@@UEAA@XZ DD imagerel ??1TDlg@@UEAA@XZ
	DD	0ffffffffH
xdata	ENDS
;	COMDAT CONST
CONST	SEGMENT
$cppxdata$??1TDlg@@UEAA@XZ DD 019930522H
	DD	00H
	DD	00H
	DD	00H
	DD	00H
	DD	01H
	DD	imagerel $ip2state$??1TDlg@@UEAA@XZ
	DD	020H
	DD	00H
	DD	05H
CONST	ENDS
;	COMDAT xdata
xdata	SEGMENT
$unwind$??1TDlg@@UEAA@XZ DD 020f19H
	DD	030025206H
	DD	imagerel __CxxFrameHandler3
	DD	imagerel $cppxdata$??1TDlg@@UEAA@XZ
xdata	ENDS
;	COMDAT xdata
xdata	SEGMENT
$unwind$?Create@TDlg@@UEAAHPEAUHINSTANCE__@@@Z DD 020601H
	DD	030025206H
xdata	ENDS
;	COMDAT xdata
xdata	SEGMENT
$unwind$?Exec@TDlg@@UEAAHXZ DD 020601H
	DD	030025206H
xdata	ENDS
;	COMDAT xdata
xdata	SEGMENT
$unwind$?EndDialog@TDlg@@UEAAXH@Z DD 040a01H
	DD	06340aH
	DD	07006320aH
xdata	ENDS
;	COMDAT xdata
xdata	SEGMENT
$unwind$?SetDlgItem@TDlg@@UEAAHIK@Z DD 082119H
	DD	0135412H
	DD	0123412H
	DD	0e00eb212H
	DD	0600b700cH
	DD	imagerel __GSHandlerCheck
	DD	050H
xdata	ENDS
;	COMDAT xdata
xdata	SEGMENT
$chain$5$?FitDlgItems@TDlg@@UEAAHXZ DD 080021H
	DD	0df400H
	DD	0ce400H
	DD	0b6400H
	DD	0a3400H
	DD	imagerel $LN32
	DD	imagerel $LN32+38
	DD	imagerel $unwind$?FitDlgItems@TDlg@@UEAAHXZ
xdata	ENDS
;	COMDAT xdata
xdata	SEGMENT
$chain$3$?FitDlgItems@TDlg@@UEAAHXZ DD 081721H
	DD	0df417H
	DD	0ce412H
	DD	0b640dH
	DD	0a3405H
	DD	imagerel $LN32
	DD	imagerel $LN32+38
	DD	imagerel $unwind$?FitDlgItems@TDlg@@UEAAHXZ
xdata	ENDS
;	COMDAT xdata
xdata	SEGMENT
$unwind$?FitDlgItems@TDlg@@UEAAHXZ DD 020601H
	DD	070027206H
xdata	ENDS
;	COMDAT xdata
xdata	SEGMENT
$unwind$?PreProcMsg@TDlg@@UEAAHPEAUtagMSG@@@Z DD 040a01H
	DD	06340aH
	DD	07006320aH
xdata	ENDS
;	COMDAT xdata
xdata	SEGMENT
$unwind$?WinProc@TDlg@@UEAA_JI_K_J@Z DD 061201H
	DD	0b7412H
	DD	0a3412H
	DD	0500b7212H
xdata	ENDS
;	COMDAT xdata
xdata	SEGMENT
$unwind$??_GTDlg@@UEAAPEAXI@Z DD 040a01H
	DD	06340aH
	DD	07006320aH
xdata	ENDS
;	COMDAT xdata
xdata	SEGMENT
$unwind$?EvCommand@TDlg@@UEAAHGG_J@Z DD 010401H
	DD	04204H
; Function compile flags: /Ogtpy
; File f:\software1\系统软件\fastcopy\fastcopy325src\src\tlib\tdlg.cpp
;	COMDAT ??0TDlg@@QEAA@IPEAVTWin@@@Z
_TEXT	SEGMENT
this$ = 48
_resId$ = 56
_parent$ = 64
??0TDlg@@QEAA@IPEAVTWin@@@Z PROC			; TDlg::TDlg, COMDAT

; 15   : {

$LN4:
  00000	48 83 ec 28	 sub	 rsp, 40			; 00000028H
  00004	44 8b ca	 mov	 r9d, edx
  00007	4c 8b d1	 mov	 r10, rcx
  0000a	49 8b d0	 mov	 rdx, r8
  0000d	e8 00 00 00 00	 call	 ??0TWin@@QEAA@PEAV0@@Z	; TWin::TWin

; 16   : 	resId	= _resId;
; 17   : 	modalFlg = FALSE;

  00012	33 c0		 xor	 eax, eax
  00014	45 89 4a 78	 mov	 DWORD PTR [r10+120], r9d
  00018	4c 8d 1d 00 00
	00 00		 lea	 r11, OFFSET FLAT:??_7TDlg@@6B@
  0001f	49 89 42 7c	 mov	 QWORD PTR [r10+124], rax

; 18   : 	maxItems = 0;
; 19   : 	dlgItems = NULL;

  00023	49 89 82 88 00
	00 00		 mov	 QWORD PTR [r10+136], rax

; 20   : }

  0002a	49 8b c2	 mov	 rax, r10
  0002d	4d 89 1a	 mov	 QWORD PTR [r10], r11
  00030	48 83 c4 28	 add	 rsp, 40			; 00000028H
  00034	c3		 ret	 0
??0TDlg@@QEAA@IPEAVTWin@@@Z ENDP			; TDlg::TDlg
_TEXT	ENDS
; Function compile flags: /Ogtpy
; File f:\software1\系统软件\fastcopy\fastcopy325src\src\tlib\tdlg.cpp
;	COMDAT ??1TDlg@@UEAA@XZ
_TEXT	SEGMENT
$T1 = 32
this$ = 64
??1TDlg@@UEAA@XZ PROC					; TDlg::~TDlg, COMDAT

; 23   : {

$LN4:
  00000	40 53		 push	 rbx
  00002	48 83 ec 30	 sub	 rsp, 48			; 00000030H
  00006	48 c7 44 24 20
	fe ff ff ff	 mov	 QWORD PTR $T1[rsp], -2
  0000f	48 8b d9	 mov	 rbx, rcx
  00012	48 8d 05 00 00
	00 00		 lea	 rax, OFFSET FLAT:??_7TDlg@@6B@
  00019	48 89 01	 mov	 QWORD PTR [rcx], rax

; 24   : 	if (hWnd) {

  0001c	48 83 79 60 00	 cmp	 QWORD PTR [rcx+96], 0
  00021	74 0b		 je	 SHORT $LN2@TDlg

; 25   : 		EndDialog(IDCANCEL);

  00023	ba 02 00 00 00	 mov	 edx, 2
  00028	e8 00 00 00 00	 call	 ?EndDialog@TDlg@@UEAAXH@Z ; TDlg::EndDialog
  0002d	90		 npad	 1
$LN2@TDlg:

; 26   : 	}
; 27   : 	delete [] dlgItems;

  0002e	48 8b 8b 88 00
	00 00		 mov	 rcx, QWORD PTR [rbx+136]
  00035	e8 00 00 00 00	 call	 ??_V@YAXPEAX@Z		; operator delete[]
  0003a	90		 npad	 1

; 28   : }

  0003b	48 8b cb	 mov	 rcx, rbx
  0003e	48 83 c4 30	 add	 rsp, 48			; 00000030H
  00042	5b		 pop	 rbx
  00043	e9 00 00 00 00	 jmp	 ??1TWin@@UEAA@XZ	; TWin::~TWin
??1TDlg@@UEAA@XZ ENDP					; TDlg::~TDlg
_TEXT	ENDS
; Function compile flags: /Ogtpy
; File f:\software1\系统软件\fastcopy\fastcopy325src\src\tlib\tdlg.cpp
; File f:\software1\系统软件\fastcopy\fastcopy325src\src\tlib\tlib.h
; File f:\software1\系统软件\fastcopy\fastcopy325src\src\tlib\tdlg.cpp
; File f:\software1\系统软件\fastcopy\fastcopy325src\src\tlib\tlib.h
; File f:\software1\系统软件\fastcopy\fastcopy325src\src\tlib\tdlg.cpp
; File f:\software1\系统软件\fastcopy\fastcopy325src\src\tlib\tlib.h
; File f:\software1\系统软件\fastcopy\fastcopy325src\src\tlib\tdlg.cpp
;	COMDAT ?Create@TDlg@@UEAAHPEAUHINSTANCE__@@@Z
_TEXT	SEGMENT
this$ = 64
hInstance$ = 72
?Create@TDlg@@UEAAHPEAUHINSTANCE__@@@Z PROC		; TDlg::Create, COMDAT

; 31   : {

$LN20:
  00000	40 53		 push	 rbx
  00002	48 83 ec 30	 sub	 rsp, 48			; 00000030H
  00006	48 8b c2	 mov	 rax, rdx
  00009	48 8b d9	 mov	 rbx, rcx
; File f:\software1\系统软件\fastcopy\fastcopy325src\src\tlib\tlib.h

; 644  : 	void	AddWin(TWin *win) { preWnd = win; }

  0000c	48 8b 15 00 00
	00 00		 mov	 rdx, QWORD PTR ?tapp@TApp@@1PEAV1@EA ; TApp::tapp
  00013	48 89 4a 38	 mov	 QWORD PTR [rdx+56], rcx
; File f:\software1\系统软件\fastcopy\fastcopy325src\src\tlib\tdlg.cpp

; 34   : 	hWnd = ::CreateDialogW(hInstance ? hInstance : TApp::hInst(), (WCHAR *)(DWORD_PTR)resId,

  00017	48 8b 49 48	 mov	 rcx, QWORD PTR [rcx+72]
  0001b	48 85 c9	 test	 rcx, rcx
  0001e	74 06		 je	 SHORT $LN5@Create
  00020	4c 8b 41 60	 mov	 r8, QWORD PTR [rcx+96]
  00024	eb 03		 jmp	 SHORT $LN6@Create
$LN5@Create:
  00026	45 33 c0	 xor	 r8d, r8d
$LN6@Create:
  00029	48 85 c0	 test	 rax, rax
  0002c	75 04		 jne	 SHORT $LN8@Create
; File f:\software1\系统软件\fastcopy\fastcopy325src\src\tlib\tlib.h

; 657  : 	static HINSTANCE hInst() { return tapp->hInstance; }

  0002e	48 8b 42 40	 mov	 rax, QWORD PTR [rdx+64]
$LN8@Create:
; File f:\software1\系统软件\fastcopy\fastcopy325src\src\tlib\tdlg.cpp

; 34   : 	hWnd = ::CreateDialogW(hInstance ? hInstance : TApp::hInst(), (WCHAR *)(DWORD_PTR)resId,

  00032	8b 53 78	 mov	 edx, DWORD PTR [rbx+120]
  00035	4c 8d 0d 00 00
	00 00		 lea	 r9, OFFSET FLAT:?WinProc@TApp@@SA_JPEAUHWND__@@I_K_J@Z ; TApp::WinProc
  0003c	48 8b c8	 mov	 rcx, rax
  0003f	48 c7 44 24 20
	00 00 00 00	 mov	 QWORD PTR [rsp+32], 0
  00048	ff 15 00 00 00
	00		 call	 QWORD PTR __imp_CreateDialogParamW
  0004e	48 89 43 60	 mov	 QWORD PTR [rbx+96], rax

; 35   : 				parent ? parent->hWnd : NULL, (DLGPROC)TApp::WinProc);
; 36   : 
; 37   : 	if (hWnd)

  00052	48 85 c0	 test	 rax, rax
  00055	74 0b		 je	 SHORT $LN2@Create

; 38   : 		return	TRUE;

  00057	b8 01 00 00 00	 mov	 eax, 1

; 41   : }

  0005c	48 83 c4 30	 add	 rsp, 48			; 00000030H
  00060	5b		 pop	 rbx
  00061	c3		 ret	 0
$LN2@Create:

; 40   : 		return	TApp::GetApp()->DelWin(this), FALSE;

  00062	48 8b 05 00 00
	00 00		 mov	 rax, QWORD PTR ?tapp@TApp@@1PEAV1@EA ; TApp::tapp
; File f:\software1\系统软件\fastcopy\fastcopy325src\src\tlib\tlib.h

; 649  : 	void	DelWin(TWin *win) { hash->UnRegister(win); }

  00069	48 8b d3	 mov	 rdx, rbx
  0006c	48 8b 48 08	 mov	 rcx, QWORD PTR [rax+8]
  00070	48 8b 01	 mov	 rax, QWORD PTR [rcx]
  00073	ff 50 28	 call	 QWORD PTR [rax+40]
; File f:\software1\系统软件\fastcopy\fastcopy325src\src\tlib\tdlg.cpp

; 40   : 		return	TApp::GetApp()->DelWin(this), FALSE;

  00076	33 c0		 xor	 eax, eax

; 41   : }

  00078	48 83 c4 30	 add	 rsp, 48			; 00000030H
  0007c	5b		 pop	 rbx
  0007d	c3		 ret	 0
?Create@TDlg@@UEAAHPEAUHINSTANCE__@@@Z ENDP		; TDlg::Create
_TEXT	ENDS
; Function compile flags: /Ogtpy
; File f:\software1\系统软件\fastcopy\fastcopy325src\src\tlib\tdlg.cpp
;	COMDAT ?Destroy@TDlg@@UEAAXXZ
_TEXT	SEGMENT
this$ = 8
?Destroy@TDlg@@UEAAXXZ PROC				; TDlg::Destroy, COMDAT

; 59   : 	EndDialog(IDCANCEL);

  00000	48 8b 01	 mov	 rax, QWORD PTR [rcx]
  00003	ba 02 00 00 00	 mov	 edx, 2
  00008	48 ff a0 a0 03
	00 00		 rex_jmp QWORD PTR [rax+928]
?Destroy@TDlg@@UEAAXXZ ENDP				; TDlg::Destroy
_TEXT	ENDS
; Function compile flags: /Ogtpy
; File f:\software1\系统软件\fastcopy\fastcopy325src\src\tlib\tdlg.cpp
; File f:\software1\系统软件\fastcopy\fastcopy325src\src\tlib\tlib.h
; File f:\software1\系统软件\fastcopy\fastcopy325src\src\tlib\tdlg.cpp
;	COMDAT ?Exec@TDlg@@UEAAHXZ
_TEXT	SEGMENT
this$ = 64
?Exec@TDlg@@UEAAHXZ PROC				; TDlg::Exec, COMDAT

; 44   : {

$LN15:
  00000	40 53		 push	 rbx
  00002	48 83 ec 30	 sub	 rsp, 48			; 00000030H
  00006	48 8b d9	 mov	 rbx, rcx
; File f:\software1\系统软件\fastcopy\fastcopy325src\src\tlib\tlib.h

; 644  : 	void	AddWin(TWin *win) { preWnd = win; }

  00009	48 8b 0d 00 00
	00 00		 mov	 rcx, QWORD PTR ?tapp@TApp@@1PEAV1@EA ; TApp::tapp
  00010	48 89 59 38	 mov	 QWORD PTR [rcx+56], rbx
; File f:\software1\系统软件\fastcopy\fastcopy325src\src\tlib\tdlg.cpp

; 47   : 	if (parent) parent->modalCount++;

  00014	48 8b 43 48	 mov	 rax, QWORD PTR [rbx+72]
  00018	c7 43 7c 01 00
	00 00		 mov	 DWORD PTR [rbx+124], 1
  0001f	48 85 c0	 test	 rax, rax
  00022	74 03		 je	 SHORT $LN2@Exec
  00024	ff 40 70	 inc	 DWORD PTR [rax+112]
$LN2@Exec:

; 48   : 
; 49   : 	int result = (int)::DialogBoxW(TApp::hInst(), (WCHAR *)(DWORD_PTR)resId,

  00027	48 8b 43 48	 mov	 rax, QWORD PTR [rbx+72]
  0002b	48 85 c0	 test	 rax, rax
  0002e	74 06		 je	 SHORT $LN5@Exec
  00030	4c 8b 40 60	 mov	 r8, QWORD PTR [rax+96]
  00034	eb 03		 jmp	 SHORT $LN6@Exec
$LN5@Exec:
  00036	45 33 c0	 xor	 r8d, r8d
$LN6@Exec:
  00039	8b 53 78	 mov	 edx, DWORD PTR [rbx+120]
  0003c	4c 8d 0d 00 00
	00 00		 lea	 r9, OFFSET FLAT:?WinProc@TApp@@SA_JPEAUHWND__@@I_K_J@Z ; TApp::WinProc
  00043	48 8b 49 40	 mov	 rcx, QWORD PTR [rcx+64]
  00047	48 c7 44 24 20
	00 00 00 00	 mov	 QWORD PTR [rsp+32], 0
  00050	ff 15 00 00 00
	00		 call	 QWORD PTR __imp_DialogBoxParamW

; 50   : 							parent ? parent->hWnd : NULL, (DLGPROC)TApp::WinProc);
; 51   : 
; 52   : 	if (parent) parent->modalCount--;

  00056	48 8b 4b 48	 mov	 rcx, QWORD PTR [rbx+72]
  0005a	48 85 c9	 test	 rcx, rcx
  0005d	74 03		 je	 SHORT $LN13@Exec
  0005f	ff 49 70	 dec	 DWORD PTR [rcx+112]
$LN13@Exec:

; 53   : 	modalFlg = FALSE;

  00062	c7 43 7c 00 00
	00 00		 mov	 DWORD PTR [rbx+124], 0

; 54   : 	return	result;
; 55   : }

  00069	48 83 c4 30	 add	 rsp, 48			; 00000030H
  0006d	5b		 pop	 rbx
  0006e	c3		 ret	 0
?Exec@TDlg@@UEAAHXZ ENDP				; TDlg::Exec
_TEXT	ENDS
; Function compile flags: /Ogtpy
; File f:\software1\系统软件\fastcopy\fastcopy325src\src\tlib\tdlg.cpp
;	COMDAT ?EndDialog@TDlg@@UEAAXH@Z
_TEXT	SEGMENT
this$ = 48
result$ = 56
?EndDialog@TDlg@@UEAAXH@Z PROC				; TDlg::EndDialog, COMDAT

; 335  : {

$LN8:
  00000	48 89 5c 24 08	 mov	 QWORD PTR [rsp+8], rbx
  00005	57		 push	 rdi
  00006	48 83 ec 20	 sub	 rsp, 32			; 00000020H

; 336  : 	if (hTipWnd) {

  0000a	48 83 79 68 00	 cmp	 QWORD PTR [rcx+104], 0
  0000f	48 8b d9	 mov	 rbx, rcx
  00012	48 63 fa	 movsxd	 rdi, edx
  00015	74 09		 je	 SHORT $LN2@EndDialog

; 337  : 		CloseTipWnd();

  00017	48 8b 01	 mov	 rax, QWORD PTR [rcx]
  0001a	ff 90 88 03 00
	00		 call	 QWORD PTR [rax+904]
$LN2@EndDialog:

; 338  : 	}
; 339  : 
; 340  : 	if (hWnd) {

  00020	48 8b 4b 60	 mov	 rcx, QWORD PTR [rbx+96]
  00024	48 85 c9	 test	 rcx, rcx
  00027	74 20		 je	 SHORT $LN5@EndDialog

; 341  : 		if (modalFlg) {

  00029	83 7b 7c 00	 cmp	 DWORD PTR [rbx+124], 0
  0002d	74 14		 je	 SHORT $LN4@EndDialog

; 342  : 			::EndDialog(hWnd, result);

  0002f	48 8b d7	 mov	 rdx, rdi

; 346  : 		}
; 347  : 	}
; 348  : }

  00032	48 8b 5c 24 30	 mov	 rbx, QWORD PTR [rsp+48]
  00037	48 83 c4 20	 add	 rsp, 32			; 00000020H
  0003b	5f		 pop	 rdi

; 342  : 			::EndDialog(hWnd, result);

  0003c	48 ff 25 00 00
	00 00		 rex_jmp QWORD PTR __imp_EndDialog
$LN4@EndDialog:

; 343  : 		}
; 344  : 		else {
; 345  : 			::DestroyWindow(hWnd);

  00043	ff 15 00 00 00
	00		 call	 QWORD PTR __imp_DestroyWindow
$LN5@EndDialog:

; 346  : 		}
; 347  : 	}
; 348  : }

  00049	48 8b 5c 24 30	 mov	 rbx, QWORD PTR [rsp+48]
  0004e	48 83 c4 20	 add	 rsp, 32			; 00000020H
  00052	5f		 pop	 rdi
  00053	c3		 ret	 0
?EndDialog@TDlg@@UEAAXH@Z ENDP				; TDlg::EndDialog
_TEXT	ENDS
; Function compile flags: /Ogtpy
; File f:\software1\系统软件\fastcopy\fastcopy325src\src\tlib\tdlg.cpp
;	COMDAT ?SetDlgItem@TDlg@@UEAAHIK@Z
_TEXT	SEGMENT
wp$ = 32
__$ArrayPad$ = 80
this$ = 128
ctl_id$ = 136
flags$ = 144
?SetDlgItem@TDlg@@UEAAHIK@Z PROC			; TDlg::SetDlgItem, COMDAT

; 351  : {

$LN15:
  00000	48 89 5c 24 18	 mov	 QWORD PTR [rsp+24], rbx
  00005	48 89 6c 24 20	 mov	 QWORD PTR [rsp+32], rbp
  0000a	56		 push	 rsi
  0000b	57		 push	 rdi
  0000c	41 56		 push	 r14
  0000e	48 83 ec 60	 sub	 rsp, 96			; 00000060H
  00012	48 8b 05 00 00
	00 00		 mov	 rax, QWORD PTR __security_cookie
  00019	48 33 c4	 xor	 rax, rsp
  0001c	48 89 44 24 50	 mov	 QWORD PTR __$ArrayPad$[rsp], rax

; 352  : 	WINDOWPLACEMENT wp;
; 353  : 	wp.length = sizeof(wp);
; 354  : 
; 355  : 	for (int i=0; i < maxItems; i++) {

  00021	44 8b 89 80 00
	00 00		 mov	 r9d, DWORD PTR [rcx+128]
  00028	33 ff		 xor	 edi, edi
  0002a	c7 44 24 20 2c
	00 00 00	 mov	 DWORD PTR wp$[rsp], 44	; 0000002cH
  00032	45 8b f0	 mov	 r14d, r8d
  00035	8b ea		 mov	 ebp, edx
  00037	48 8b f1	 mov	 rsi, rcx
  0003a	45 85 c9	 test	 r9d, r9d
  0003d	7e 17		 jle	 SHORT $LN3@SetDlgItem

; 356  : 		DlgItem *item = dlgItems + i;

  0003f	48 8b 99 88 00
	00 00		 mov	 rbx, QWORD PTR [rcx+136]
$LL4@SetDlgItem:

; 357  : 		if (item->id == ctl_id) {

  00046	39 6b 10	 cmp	 DWORD PTR [rbx+16], ebp
  00049	74 4d		 je	 SHORT $LN10@SetDlgItem

; 352  : 	WINDOWPLACEMENT wp;
; 353  : 	wp.length = sizeof(wp);
; 354  : 
; 355  : 	for (int i=0; i < maxItems; i++) {

  0004b	ff c7		 inc	 edi
  0004d	48 83 c3 28	 add	 rbx, 40			; 00000028H
  00051	41 3b f9	 cmp	 edi, r9d
  00054	7c f0		 jl	 SHORT $LL4@SetDlgItem
$LN3@SetDlgItem:

; 361  : 		}
; 362  : 	}
; 363  : 
; 364  : #define BIG_ALLOC 50
; 365  : 	if ((maxItems % BIG_ALLOC) == 0) {

  00056	b8 1f 85 eb 51	 mov	 eax, 1374389535		; 51eb851fH
  0005b	41 f7 e9	 imul	 r9d
  0005e	c1 fa 04	 sar	 edx, 4
  00061	8b c2		 mov	 eax, edx
  00063	c1 e8 1f	 shr	 eax, 31
  00066	03 d0		 add	 edx, eax
  00068	6b ca 32	 imul	 ecx, edx, 50		; 00000032H
  0006b	44 3b c9	 cmp	 r9d, ecx
  0006e	75 44		 jne	 SHORT $LN6@SetDlgItem

; 366  : 		DlgItem *p = (DlgItem *)realloc(dlgItems, (maxItems + BIG_ALLOC) * sizeof(DlgItem));

  00070	41 8d 41 32	 lea	 eax, DWORD PTR [r9+50]
  00074	48 63 c8	 movsxd	 rcx, eax
  00077	48 8d 14 89	 lea	 rdx, QWORD PTR [rcx+rcx*4]
  0007b	48 8b 8e 88 00
	00 00		 mov	 rcx, QWORD PTR [rsi+136]
  00082	48 c1 e2 03	 shl	 rdx, 3
  00086	e8 00 00 00 00	 call	 realloc

; 367  : 		if (!p) return -1;

  0008b	48 85 c0	 test	 rax, rax
  0008e	75 1d		 jne	 SHORT $LN7@SetDlgItem
  00090	83 c8 ff	 or	 eax, -1
  00093	e9 8b 00 00 00	 jmp	 $LN1@SetDlgItem
$LN10@SetDlgItem:

; 358  : 			item->hWnd = GetDlgItem(ctl_id);

  00098	4c 8b 01	 mov	 r8, QWORD PTR [rcx]
  0009b	41 ff 90 e8 01
	00 00		 call	 QWORD PTR [r8+488]
  000a2	48 89 43 08	 mov	 QWORD PTR [rbx+8], rax

; 359  : 			item->flags = flags;
; 360  : 			return i;

  000a6	8b c7		 mov	 eax, edi
  000a8	44 89 33	 mov	 DWORD PTR [rbx], r14d
  000ab	eb 76		 jmp	 SHORT $LN1@SetDlgItem
$LN7@SetDlgItem:

; 368  : 		dlgItems = p;

  000ad	48 89 86 88 00
	00 00		 mov	 QWORD PTR [rsi+136], rax
$LN6@SetDlgItem:

; 369  : 	}
; 370  : 	DlgItem *item = dlgItems + maxItems;

  000b4	48 63 86 80 00
	00 00		 movsxd	 rax, DWORD PTR [rsi+128]

; 371  : 
; 372  : 	item->hWnd = GetDlgItem(ctl_id);

  000bb	8b d5		 mov	 edx, ebp
  000bd	48 8d 0c 80	 lea	 rcx, QWORD PTR [rax+rax*4]
  000c1	48 8b 86 88 00
	00 00		 mov	 rax, QWORD PTR [rsi+136]
  000c8	48 8d 1c c8	 lea	 rbx, QWORD PTR [rax+rcx*8]
  000cc	48 8b 06	 mov	 rax, QWORD PTR [rsi]
  000cf	48 8b ce	 mov	 rcx, rsi
  000d2	ff 90 e8 01 00
	00		 call	 QWORD PTR [rax+488]

; 373  : 	::GetWindowPlacement(item->hWnd, &wp);

  000d8	48 8b c8	 mov	 rcx, rax
  000db	48 89 43 08	 mov	 QWORD PTR [rbx+8], rax
  000df	48 8d 54 24 20	 lea	 rdx, QWORD PTR wp$[rsp]
  000e4	ff 15 00 00 00
	00		 call	 QWORD PTR __imp_GetWindowPlacement

; 374  : 	item->wpos.x = wp.rcNormalPosition.left;

  000ea	8b 44 24 3c	 mov	 eax, DWORD PTR wp$[rsp+28]
  000ee	89 43 14	 mov	 DWORD PTR [rbx+20], eax

; 375  : 	item->wpos.y = wp.rcNormalPosition.top;

  000f1	8b 44 24 40	 mov	 eax, DWORD PTR wp$[rsp+32]
  000f5	89 43 18	 mov	 DWORD PTR [rbx+24], eax

; 376  : 	item->wpos.cx = wp.rcNormalPosition.right - wp.rcNormalPosition.left;

  000f8	8b 44 24 44	 mov	 eax, DWORD PTR wp$[rsp+36]
  000fc	2b 44 24 3c	 sub	 eax, DWORD PTR wp$[rsp+28]
  00100	89 43 1c	 mov	 DWORD PTR [rbx+28], eax

; 377  : 	item->wpos.cy = wp.rcNormalPosition.bottom - wp.rcNormalPosition.top;

  00103	8b 44 24 48	 mov	 eax, DWORD PTR wp$[rsp+40]
  00107	2b 44 24 40	 sub	 eax, DWORD PTR wp$[rsp+32]
  0010b	89 43 20	 mov	 DWORD PTR [rbx+32], eax

; 378  : 	item->flags = flags;

  0010e	44 89 33	 mov	 DWORD PTR [rbx], r14d

; 379  : 	item->id = ctl_id;

  00111	89 6b 10	 mov	 DWORD PTR [rbx+16], ebp

; 380  : 
; 381  : 	return	maxItems++;

  00114	8b 86 80 00 00
	00		 mov	 eax, DWORD PTR [rsi+128]
  0011a	8d 48 01	 lea	 ecx, DWORD PTR [rax+1]
  0011d	89 8e 80 00 00
	00		 mov	 DWORD PTR [rsi+128], ecx
$LN1@SetDlgItem:

; 382  : }

  00123	48 8b 4c 24 50	 mov	 rcx, QWORD PTR __$ArrayPad$[rsp]
  00128	48 33 cc	 xor	 rcx, rsp
  0012b	e8 00 00 00 00	 call	 __security_check_cookie
  00130	4c 8d 5c 24 60	 lea	 r11, QWORD PTR [rsp+96]
  00135	49 8b 5b 30	 mov	 rbx, QWORD PTR [r11+48]
  00139	49 8b 6b 38	 mov	 rbp, QWORD PTR [r11+56]
  0013d	49 8b e3	 mov	 rsp, r11
  00140	41 5e		 pop	 r14
  00142	5f		 pop	 rdi
  00143	5e		 pop	 rsi
  00144	c3		 ret	 0
?SetDlgItem@TDlg@@UEAAHIK@Z ENDP			; TDlg::SetDlgItem
_TEXT	ENDS
; Function compile flags: /Ogtpy
; File f:\software1\系统软件\fastcopy\fastcopy325src\src\tlib\tdlg.cpp
;	COMDAT ?FitDlgItems@TDlg@@UEAAHXZ
_TEXT	SEGMENT
this$ = 80
?FitDlgItems@TDlg@@UEAAHXZ PROC				; TDlg::FitDlgItems, COMDAT

; 385  : {

$LN32:
  00000	40 57		 push	 rdi
  00002	48 83 ec 40	 sub	 rsp, 64			; 00000040H
  00006	48 8b f9	 mov	 rdi, rcx

; 386  : 	if (::IsIconic(hWnd)) {

  00009	48 8b 49 60	 mov	 rcx, QWORD PTR [rcx+96]
  0000d	ff 15 00 00 00
	00		 call	 QWORD PTR __imp_IsIconic
  00013	85 c0		 test	 eax, eax
  00015	74 08		 je	 SHORT $LN5@FitDlgItem

; 387  : 		return	FALSE;

  00017	33 c0		 xor	 eax, eax

; 414  : }

  00019	48 83 c4 40	 add	 rsp, 64			; 00000040H
  0001d	5f		 pop	 rdi
  0001e	c3		 ret	 0
$LN5@FitDlgItem:

; 388  : 	}
; 389  : 
; 390  : 	GetWindowRect(&rect);

  0001f	48 8b 07	 mov	 rax, QWORD PTR [rdi]
  00022	48 8d 57 20	 lea	 rdx, QWORD PTR [rdi+32]
  00026	48 89 5c 24 50	 mov	 QWORD PTR [rsp+80], rbx
  0002b	48 8b cf	 mov	 rcx, rdi
  0002e	48 89 74 24 58	 mov	 QWORD PTR [rsp+88], rsi
  00033	4c 89 74 24 60	 mov	 QWORD PTR [rsp+96], r14
  00038	4c 89 7c 24 68	 mov	 QWORD PTR [rsp+104], r15
  0003d	ff 90 78 02 00
	00		 call	 QWORD PTR [rax+632]

; 391  : 	int	xdiff = (rect.right - rect.left) - (orgRect.right - orgRect.left);

  00043	44 8b 77 30	 mov	 r14d, DWORD PTR [rdi+48]
  00047	44 2b 77 38	 sub	 r14d, DWORD PTR [rdi+56]

; 392  : 	int ydiff = (rect.bottom - rect.top) - (orgRect.bottom - orgRect.top);

  0004b	44 8b 7f 34	 mov	 r15d, DWORD PTR [rdi+52]
  0004f	44 2b 7f 3c	 sub	 r15d, DWORD PTR [rdi+60]
  00053	44 03 77 28	 add	 r14d, DWORD PTR [rdi+40]
  00057	44 2b 7f 24	 sub	 r15d, DWORD PTR [rdi+36]

; 393  : 
; 394  : 	HDWP	hdwp = ::BeginDeferWindowPos(maxItems);	// MAX item number

  0005b	8b 8f 80 00 00
	00		 mov	 ecx, DWORD PTR [rdi+128]
  00061	44 2b 77 20	 sub	 r14d, DWORD PTR [rdi+32]
  00065	44 03 7f 2c	 add	 r15d, DWORD PTR [rdi+44]
  00069	ff 15 00 00 00
	00		 call	 QWORD PTR __imp_BeginDeferWindowPos

; 395  : 	UINT	dwFlg = SWP_SHOWWINDOW | SWP_NOZORDER;
; 396  : 
; 397  : 	for (int i=0; i < maxItems; i++) {

  0006f	33 db		 xor	 ebx, ebx
  00071	4c 8b d8	 mov	 r11, rax
  00074	39 9f 80 00 00
	00		 cmp	 DWORD PTR [rdi+128], ebx
  0007a	0f 8e e1 00 00
	00		 jle	 $LN26@FitDlgItem
  00080	8b f3		 mov	 esi, ebx
  00082	0f 1f 40 00 66
	66 0f 1f 84 00
	00 00 00 00	 npad	 14
$LL4@FitDlgItem:

; 398  : 		DlgItem *item = dlgItems + i;

  00090	48 8b 8f 88 00
	00 00		 mov	 rcx, QWORD PTR [rdi+136]

; 399  : 		DWORD	f = item->flags;

  00097	44 8b 04 0e	 mov	 r8d, DWORD PTR [rsi+rcx]

; 400  : 
; 401  : 		if (f & FIT_SKIP) continue;

  0009b	41 0f ba e0 0b	 bt	 r8d, 11
  000a0	0f 82 a9 00 00
	00		 jb	 $LN2@FitDlgItem

; 402  : 		int x = (f & LEFT_FIT) == LEFT_FIT ? item->wpos.x :

  000a6	41 f6 c0 01	 test	 r8b, 1
  000aa	74 07		 je	 SHORT $LN11@FitDlgItem
  000ac	44 8b 4c 0e 14	 mov	 r9d, DWORD PTR [rsi+rcx+20]
  000b1	eb 20		 jmp	 SHORT $LN10@FitDlgItem
$LN11@FitDlgItem:
  000b3	41 f6 c0 02	 test	 r8b, 2
  000b7	74 12		 je	 SHORT $LN9@FitDlgItem
  000b9	41 8b c6	 mov	 eax, r14d
  000bc	99		 cdq
  000bd	2b c2		 sub	 eax, edx
  000bf	d1 f8		 sar	 eax, 1
  000c1	44 8b c8	 mov	 r9d, eax
  000c4	44 03 4c 0e 14	 add	 r9d, DWORD PTR [rsi+rcx+20]
  000c9	eb 08		 jmp	 SHORT $LN10@FitDlgItem
$LN9@FitDlgItem:
  000cb	44 8b 4c 0e 14	 mov	 r9d, DWORD PTR [rsi+rcx+20]
  000d0	45 03 ce	 add	 r9d, r14d
$LN10@FitDlgItem:

; 403  : 				(f & HMID_FIT) == HMID_FIT ? item->wpos.x + xdiff/2 : item->wpos.x + xdiff;
; 404  : 		int y = (f & TOP_FIT)  == TOP_FIT  ? item->wpos.y :

  000d3	41 f6 c0 08	 test	 r8b, 8
  000d7	74 06		 je	 SHORT $LN15@FitDlgItem
  000d9	8b 54 0e 18	 mov	 edx, DWORD PTR [rsi+rcx+24]
  000dd	eb 1d		 jmp	 SHORT $LN14@FitDlgItem
$LN15@FitDlgItem:
  000df	41 f6 c0 10	 test	 r8b, 16
  000e3	74 10		 je	 SHORT $LN13@FitDlgItem
  000e5	41 8b c7	 mov	 eax, r15d
  000e8	99		 cdq
  000e9	2b c2		 sub	 eax, edx
  000eb	d1 f8		 sar	 eax, 1
  000ed	8b d0		 mov	 edx, eax
  000ef	03 54 0e 18	 add	 edx, DWORD PTR [rsi+rcx+24]
  000f3	eb 07		 jmp	 SHORT $LN14@FitDlgItem
$LN13@FitDlgItem:
  000f5	8b 54 0e 18	 mov	 edx, DWORD PTR [rsi+rcx+24]
  000f9	41 03 d7	 add	 edx, r15d
$LN14@FitDlgItem:

; 405  : 				(f & VMID_FIT) == VMID_FIT ? item->wpos.y + ydiff/2 : item->wpos.y + ydiff;
; 406  : 		int w = (f & X_FIT)    == X_FIT    ? item->wpos.cx + xdiff : item->wpos.cx;

  000fc	44 8b 54 0e 1c	 mov	 r10d, DWORD PTR [rsi+rcx+28]
  00101	41 8b c0	 mov	 eax, r8d
  00104	83 e0 05	 and	 eax, 5
  00107	3c 05		 cmp	 al, 5
  00109	75 03		 jne	 SHORT $LN18@FitDlgItem
  0010b	45 03 d6	 add	 r10d, r14d
$LN18@FitDlgItem:

; 407  : 		int h = (f & Y_FIT)    == Y_FIT    ? item->wpos.cy + ydiff : item->wpos.cy;

  0010e	41 83 e0 28	 and	 r8d, 40			; 00000028H
  00112	41 80 f8 28	 cmp	 r8b, 40			; 00000028H
  00116	44 8b 44 0e 20	 mov	 r8d, DWORD PTR [rsi+rcx+32]
  0011b	75 03		 jne	 SHORT $LN20@FitDlgItem
  0011d	45 03 c7	 add	 r8d, r15d
$LN20@FitDlgItem:

; 408  : 
; 409  : 		if (!(hdwp = ::DeferWindowPos(hdwp, item->hWnd, 0, x, y, w, h, dwFlg))) return FALSE;

  00120	c7 44 24 38 44
	00 00 00	 mov	 DWORD PTR [rsp+56], 68	; 00000044H
  00128	44 89 44 24 30	 mov	 DWORD PTR [rsp+48], r8d
  0012d	45 33 c0	 xor	 r8d, r8d
  00130	44 89 54 24 28	 mov	 DWORD PTR [rsp+40], r10d
  00135	89 54 24 20	 mov	 DWORD PTR [rsp+32], edx
  00139	48 8b 54 0e 08	 mov	 rdx, QWORD PTR [rsi+rcx+8]
  0013e	49 8b cb	 mov	 rcx, r11
  00141	ff 15 00 00 00
	00		 call	 QWORD PTR __imp_DeferWindowPos
  00147	4c 8b d8	 mov	 r11, rax
  0014a	48 85 c0	 test	 rax, rax
  0014d	74 3a		 je	 SHORT $LN22@FitDlgItem
$LN2@FitDlgItem:

; 395  : 	UINT	dwFlg = SWP_SHOWWINDOW | SWP_NOZORDER;
; 396  : 
; 397  : 	for (int i=0; i < maxItems; i++) {

  0014f	ff c3		 inc	 ebx
  00151	48 83 c6 28	 add	 rsi, 40			; 00000028H
  00155	3b 9f 80 00 00
	00		 cmp	 ebx, DWORD PTR [rdi+128]
  0015b	0f 8c 2f ff ff
	ff		 jl	 $LL4@FitDlgItem
$LN26@FitDlgItem:

; 410  : 	}
; 411  : 	::EndDeferWindowPos(hdwp);

  00161	49 8b cb	 mov	 rcx, r11
  00164	ff 15 00 00 00
	00		 call	 QWORD PTR __imp_EndDeferWindowPos

; 412  : 
; 413  : 	return	TRUE;

  0016a	b8 01 00 00 00	 mov	 eax, 1
$LN30@FitDlgItem:
  0016f	4c 8b 74 24 60	 mov	 r14, QWORD PTR [rsp+96]
  00174	48 8b 74 24 58	 mov	 rsi, QWORD PTR [rsp+88]
  00179	48 8b 5c 24 50	 mov	 rbx, QWORD PTR [rsp+80]
  0017e	4c 8b 7c 24 68	 mov	 r15, QWORD PTR [rsp+104]

; 414  : }

  00183	48 83 c4 40	 add	 rsp, 64			; 00000040H
  00187	5f		 pop	 rdi
  00188	c3		 ret	 0
$LN22@FitDlgItem:

; 408  : 
; 409  : 		if (!(hdwp = ::DeferWindowPos(hdwp, item->hWnd, 0, x, y, w, h, dwFlg))) return FALSE;

  00189	eb e4		 jmp	 SHORT $LN30@FitDlgItem
?FitDlgItems@TDlg@@UEAAHXZ ENDP				; TDlg::FitDlgItems
_TEXT	ENDS
; Function compile flags: /Ogtpy
; File f:\software1\系统软件\fastcopy\fastcopy325src\src\tlib\tdlg.cpp
;	COMDAT ?EvCreate@TDlg@@UEAAH_J@Z
_TEXT	SEGMENT
this$ = 8
lParam$ = 16
?EvCreate@TDlg@@UEAAH_J@Z PROC				; TDlg::EvCreate, COMDAT

; 331  : 	return	TRUE;

  00000	b8 01 00 00 00	 mov	 eax, 1

; 332  : }

  00005	c3		 ret	 0
?EvCreate@TDlg@@UEAAH_J@Z ENDP				; TDlg::EvCreate
_TEXT	ENDS
; Function compile flags: /Ogtpy
; File f:\software1\系统软件\fastcopy\fastcopy325src\src\tlib\tdlg.cpp
;	COMDAT ?EvSysCommand@TDlg@@UEAAH_KUtagPOINTS@@@Z
_TEXT	SEGMENT
this$ = 8
uCmdType$ = 16
pos$ = 24
?EvSysCommand@TDlg@@UEAAH_KUtagPOINTS@@@Z PROC		; TDlg::EvSysCommand, COMDAT

; 308  : 	return	FALSE;

  00000	33 c0		 xor	 eax, eax

; 309  : }

  00002	c3		 ret	 0
?EvSysCommand@TDlg@@UEAAH_KUtagPOINTS@@@Z ENDP		; TDlg::EvSysCommand
_TEXT	ENDS
; Function compile flags: /Ogtpy
; File f:\software1\系统软件\fastcopy\fastcopy325src\src\tlib\tdlg.cpp
;	COMDAT ?EvQueryOpen@TDlg@@UEAAHXZ
_TEXT	SEGMENT
this$ = 8
?EvQueryOpen@TDlg@@UEAAHXZ PROC				; TDlg::EvQueryOpen, COMDAT

; 326  : 	return	FALSE;

  00000	33 c0		 xor	 eax, eax

; 327  : }

  00002	c3		 ret	 0
?EvQueryOpen@TDlg@@UEAAHXZ ENDP				; TDlg::EvQueryOpen
_TEXT	ENDS
; Function compile flags: /Ogtpy
; File f:\software1\系统软件\fastcopy\fastcopy325src\src\tlib\tdlg.cpp
;	COMDAT ?PreProcMsg@TDlg@@UEAAHPEAUtagMSG@@@Z
_TEXT	SEGMENT
this$ = 48
msg$ = 56
?PreProcMsg@TDlg@@UEAAHPEAUtagMSG@@@Z PROC		; TDlg::PreProcMsg, COMDAT

; 296  : {

$LN6:
  00000	48 89 5c 24 08	 mov	 QWORD PTR [rsp+8], rbx
  00005	57		 push	 rdi
  00006	48 83 ec 20	 sub	 rsp, 32			; 00000020H
  0000a	48 8b fa	 mov	 rdi, rdx
  0000d	48 8b d9	 mov	 rbx, rcx

; 297  : 	if (hAccel && ::TranslateAccelerator(hWnd, hAccel, msg))

  00010	48 8b 51 40	 mov	 rdx, QWORD PTR [rcx+64]
  00014	48 85 d2	 test	 rdx, rdx
  00017	74 21		 je	 SHORT $LN2@PreProcMsg
  00019	48 8b 49 60	 mov	 rcx, QWORD PTR [rcx+96]
  0001d	4c 8b c7	 mov	 r8, rdi
  00020	ff 15 00 00 00
	00		 call	 QWORD PTR __imp_TranslateAcceleratorA
  00026	85 c0		 test	 eax, eax
  00028	74 10		 je	 SHORT $LN2@PreProcMsg

; 298  : 		return	TRUE;

  0002a	b8 01 00 00 00	 mov	 eax, 1

; 304  : }

  0002f	48 8b 5c 24 30	 mov	 rbx, QWORD PTR [rsp+48]
  00034	48 83 c4 20	 add	 rsp, 32			; 00000020H
  00038	5f		 pop	 rdi
  00039	c3		 ret	 0
$LN2@PreProcMsg:

; 299  : 
; 300  : 	if (!modalFlg)

  0003a	83 7b 7c 00	 cmp	 DWORD PTR [rbx+124], 0
  0003e	75 18		 jne	 SHORT $LN3@PreProcMsg

; 301  : 		return	::IsDialogMessage(hWnd, msg);

  00040	48 8b 4b 60	 mov	 rcx, QWORD PTR [rbx+96]
  00044	48 8b d7	 mov	 rdx, rdi

; 304  : }

  00047	48 8b 5c 24 30	 mov	 rbx, QWORD PTR [rsp+48]
  0004c	48 83 c4 20	 add	 rsp, 32			; 00000020H
  00050	5f		 pop	 rdi

; 301  : 		return	::IsDialogMessage(hWnd, msg);

  00051	48 ff 25 00 00
	00 00		 rex_jmp QWORD PTR __imp_IsDialogMessageA
$LN3@PreProcMsg:

; 302  : 
; 303  : 	return	FALSE;

  00058	33 c0		 xor	 eax, eax

; 304  : }

  0005a	48 8b 5c 24 30	 mov	 rbx, QWORD PTR [rsp+48]
  0005f	48 83 c4 20	 add	 rsp, 32			; 00000020H
  00063	5f		 pop	 rdi
  00064	c3		 ret	 0
?PreProcMsg@TDlg@@UEAAHPEAUtagMSG@@@Z ENDP		; TDlg::PreProcMsg
_TEXT	ENDS
; Function compile flags: /Ogtpy
; File f:\software1\系统软件\fastcopy\fastcopy325src\src\tlib\tdlg.cpp
; File f:\software1\系统软件\fastcopy\fastcopy325src\src\tlib\tlib.h
; File f:\software1\系统软件\fastcopy\fastcopy325src\src\tlib\tdlg.cpp
;	COMDAT ?WinProc@TDlg@@UEAA_JI_K_J@Z
_TEXT	SEGMENT
result$ = 48
this$ = 80
uMsg$ = 88
wParam$ = 96
lParam$ = 104
?WinProc@TDlg@@UEAA_JI_K_J@Z PROC			; TDlg::WinProc, COMDAT

; 63   : {

$LN75:
  00000	48 89 5c 24 08	 mov	 QWORD PTR [rsp+8], rbx
  00005	48 89 7c 24 10	 mov	 QWORD PTR [rsp+16], rdi
  0000a	55		 push	 rbp
  0000b	48 8b ec	 mov	 rbp, rsp
  0000e	48 83 ec 40	 sub	 rsp, 64			; 00000040H

; 64   : 	LRESULT	result = 0;

  00012	48 c7 45 f0 00
	00 00 00	 mov	 QWORD PTR result$[rbp-64], 0
  0001a	49 8b f9	 mov	 rdi, r9
  0001d	4d 8b d8	 mov	 r11, r8
  00020	48 8b d9	 mov	 rbx, rcx

; 65   : 
; 66   : 	switch (uMsg)

  00023	81 fa 01 01 00
	00		 cmp	 edx, 257		; 00000101H
  00029	0f 87 8e 03 00
	00		 ja	 $LN56@WinProc
  0002f	81 fa 00 01 00
	00		 cmp	 edx, 256		; 00000100H
  00035	0f 83 67 03 00
	00		 jae	 $LN41@WinProc
  0003b	8d 42 fe	 lea	 eax, DWORD PTR [rdx-2]
  0003e	3d a4 00 00 00	 cmp	 eax, 164		; 000000a4H
  00043	0f 87 6e 06 00
	00		 ja	 $LN48@WinProc
  00049	4c 8d 05 00 00
	00 00		 lea	 r8, OFFSET FLAT:__ImageBase
  00050	41 0f b6 84 00
	00 00 00 00	 movzx	 eax, BYTE PTR $LN66@WinProc[r8+rax]
  00059	41 8b 8c 80 00
	00 00 00	 mov	 ecx, DWORD PTR $LN67@WinProc[r8+rax*4]
  00061	49 03 c8	 add	 rcx, r8
  00064	ff e1		 jmp	 rcx
$LN7@WinProc:

; 76   : 
; 77   : 	case WM_CLOSE:
; 78   : 		EvClose();

  00066	48 8b 03	 mov	 rax, QWORD PTR [rbx]
  00069	48 8b cb	 mov	 rcx, rbx
  0006c	ff 50 58	 call	 QWORD PTR [rax+88]

; 117  : 		return	0;

  0006f	33 c0		 xor	 eax, eax

; 290  : 	}
; 291  : 
; 292  : 	return	0;
; 293  : }

  00071	48 8b 5c 24 50	 mov	 rbx, QWORD PTR [rsp+80]
  00076	48 8b 7c 24 58	 mov	 rdi, QWORD PTR [rsp+88]
  0007b	48 83 c4 40	 add	 rsp, 64			; 00000040H
  0007f	5d		 pop	 rbp
  00080	c3		 ret	 0
$LN11@WinProc:

; 91   : 		return	0;
; 92   : 
; 93   : 	case WM_DESTROY:
; 94   : 		EvDestroy();

  00081	48 8b 03	 mov	 rax, QWORD PTR [rbx]
  00084	48 8b cb	 mov	 rcx, rbx
  00087	ff 50 60	 call	 QWORD PTR [rax+96]

; 117  : 		return	0;

  0008a	33 c0		 xor	 eax, eax

; 290  : 	}
; 291  : 
; 292  : 	return	0;
; 293  : }

  0008c	48 8b 5c 24 50	 mov	 rbx, QWORD PTR [rsp+80]
  00091	48 8b 7c 24 58	 mov	 rdi, QWORD PTR [rsp+88]
  00096	48 83 c4 40	 add	 rsp, 64			; 00000040H
  0009a	5d		 pop	 rbp
  0009b	c3		 ret	 0
$LN12@WinProc:

; 95   : 		return	0;
; 96   : 
; 97   : 	case WM_NCDESTROY:
; 98   : 		if (!::IsIconic(hWnd)) {

  0009c	48 8b 4b 60	 mov	 rcx, QWORD PTR [rbx+96]
  000a0	ff 15 00 00 00
	00		 call	 QWORD PTR __imp_IsIconic
  000a6	85 c0		 test	 eax, eax
  000a8	75 10		 jne	 SHORT $LN13@WinProc

; 99   : 			GetWindowRect(&rect);

  000aa	48 8b 03	 mov	 rax, QWORD PTR [rbx]
  000ad	48 8d 53 20	 lea	 rdx, QWORD PTR [rbx+32]
  000b1	48 8b cb	 mov	 rcx, rbx
  000b4	ff 90 78 02 00
	00		 call	 QWORD PTR [rax+632]
$LN13@WinProc:

; 100  : 		}
; 101  : 		EvNcDestroy();

  000ba	48 8b 03	 mov	 rax, QWORD PTR [rbx]
  000bd	48 8b cb	 mov	 rcx, rbx
  000c0	ff 50 68	 call	 QWORD PTR [rax+104]

; 102  : 		TApp::GetApp()->DelWin(this);

  000c3	48 8b 05 00 00
	00 00		 mov	 rax, QWORD PTR ?tapp@TApp@@1PEAV1@EA ; TApp::tapp
; File f:\software1\系统软件\fastcopy\fastcopy325src\src\tlib\tlib.h

; 649  : 	void	DelWin(TWin *win) { hash->UnRegister(win); }

  000ca	48 8b d3	 mov	 rdx, rbx
  000cd	48 8b 48 08	 mov	 rcx, QWORD PTR [rax+8]
  000d1	48 8b 01	 mov	 rax, QWORD PTR [rcx]
  000d4	ff 50 28	 call	 QWORD PTR [rax+40]
; File f:\software1\系统软件\fastcopy\fastcopy325src\src\tlib\tdlg.cpp

; 117  : 		return	0;

  000d7	33 c0		 xor	 eax, eax
  000d9	48 c7 43 60 00
	00 00 00	 mov	 QWORD PTR [rbx+96], 0

; 290  : 	}
; 291  : 
; 292  : 	return	0;
; 293  : }

  000e1	48 8b 5c 24 50	 mov	 rbx, QWORD PTR [rsp+80]
  000e6	48 8b 7c 24 58	 mov	 rdi, QWORD PTR [rsp+88]
  000eb	48 83 c4 40	 add	 rsp, 64			; 00000040H
  000ef	5d		 pop	 rbp
  000f0	c3		 ret	 0
$LN14@WinProc:

; 103  : 		hWnd = 0;
; 104  : 		return	0;
; 105  : 
; 106  : 	case WM_QUERYENDSESSION:
; 107  : 		result = EvQueryEndSession((BOOL)wParam, (BOOL)lParam);

  000f1	48 8b 03	 mov	 rax, QWORD PTR [rbx]
  000f4	44 8b c7	 mov	 r8d, edi
  000f7	41 8b d3	 mov	 edx, r11d
  000fa	48 8b cb	 mov	 rcx, rbx
  000fd	ff 50 70	 call	 QWORD PTR [rax+112]
  00100	4c 63 c0	 movsxd	 r8, eax

; 108  : 		SetWindowLong(DWL_MSGRESULT, result);

  00103	33 d2		 xor	 edx, edx
  00105	48 8b 03	 mov	 rax, QWORD PTR [rbx]
  00108	48 8b cb	 mov	 rcx, rbx
  0010b	4c 89 45 f0	 mov	 QWORD PTR result$[rbp-64], r8
  0010f	ff 90 e8 02 00
	00		 call	 QWORD PTR [rax+744]

; 117  : 		return	0;

  00115	33 c0		 xor	 eax, eax

; 290  : 	}
; 291  : 
; 292  : 	return	0;
; 293  : }

  00117	48 8b 5c 24 50	 mov	 rbx, QWORD PTR [rsp+80]
  0011c	48 8b 7c 24 58	 mov	 rdi, QWORD PTR [rsp+88]
  00121	48 83 c4 40	 add	 rsp, 64			; 00000040H
  00125	5d		 pop	 rbp
  00126	c3		 ret	 0
$LN15@WinProc:

; 109  : 		return	0;
; 110  : 
; 111  : 	case WM_ENDSESSION:
; 112  : 		EvEndSession((BOOL)wParam, (BOOL)lParam);

  00127	48 8b 03	 mov	 rax, QWORD PTR [rbx]
  0012a	44 8b c7	 mov	 r8d, edi
  0012d	41 8b d3	 mov	 edx, r11d
  00130	48 8b cb	 mov	 rcx, rbx
  00133	ff 50 78	 call	 QWORD PTR [rax+120]

; 117  : 		return	0;

  00136	33 c0		 xor	 eax, eax

; 290  : 	}
; 291  : 
; 292  : 	return	0;
; 293  : }

  00138	48 8b 5c 24 50	 mov	 rbx, QWORD PTR [rsp+80]
  0013d	48 8b 7c 24 58	 mov	 rdi, QWORD PTR [rsp+88]
  00142	48 83 c4 40	 add	 rsp, 64			; 00000040H
  00146	5d		 pop	 rbp
  00147	c3		 ret	 0
$LN17@WinProc:

; 118  : 
; 119  : 	case WM_QUERYOPEN:
; 120  : 		result = EvQueryOpen();

  00148	48 8b 03	 mov	 rax, QWORD PTR [rbx]
  0014b	48 8b cb	 mov	 rcx, rbx
  0014e	ff 90 88 00 00
	00		 call	 QWORD PTR [rax+136]
$LN71@WinProc:
  00154	4c 63 c0	 movsxd	 r8, eax
  00157	4c 89 45 f0	 mov	 QWORD PTR result$[rbp-64], r8
$LN73@WinProc:

; 121  : 		SetWindowLong(DWL_MSGRESULT, result);

  0015b	48 8b 03	 mov	 rax, QWORD PTR [rbx]
  0015e	33 d2		 xor	 edx, edx
  00160	48 8b cb	 mov	 rcx, rbx
  00163	ff 90 e8 02 00
	00		 call	 QWORD PTR [rax+744]

; 122  : 		return	result;

  00169	48 8b 45 f0	 mov	 rax, QWORD PTR result$[rbp-64]

; 290  : 	}
; 291  : 
; 292  : 	return	0;
; 293  : }

  0016d	48 8b 5c 24 50	 mov	 rbx, QWORD PTR [rsp+80]
  00172	48 8b 7c 24 58	 mov	 rdi, QWORD PTR [rsp+88]
  00177	48 83 c4 40	 add	 rsp, 64			; 00000040H
  0017b	5d		 pop	 rbp
  0017c	c3		 ret	 0
$LN18@WinProc:

; 123  : 
; 124  : 	case WM_PAINT:
; 125  : 		EvPaint();

  0017d	48 8b 03	 mov	 rax, QWORD PTR [rbx]
  00180	48 8b cb	 mov	 rcx, rbx
  00183	ff 90 90 00 00
	00		 call	 QWORD PTR [rax+144]
  00189	33 c0		 xor	 eax, eax

; 290  : 	}
; 291  : 
; 292  : 	return	0;
; 293  : }

  0018b	48 8b 5c 24 50	 mov	 rbx, QWORD PTR [rsp+80]
  00190	48 8b 7c 24 58	 mov	 rdi, QWORD PTR [rsp+88]
  00195	48 83 c4 40	 add	 rsp, 64			; 00000040H
  00199	5d		 pop	 rbp
  0019a	c3		 ret	 0
$LN19@WinProc:

; 126  : 		return	0;
; 127  : 
; 128  : 	case WM_NCPAINT:
; 129  : 		EvNcPaint((HRGN)wParam);

  0019b	48 8b 03	 mov	 rax, QWORD PTR [rbx]
  0019e	49 8b d3	 mov	 rdx, r11
  001a1	48 8b cb	 mov	 rcx, rbx
  001a4	ff 90 98 00 00
	00		 call	 QWORD PTR [rax+152]
  001aa	33 c0		 xor	 eax, eax

; 290  : 	}
; 291  : 
; 292  : 	return	0;
; 293  : }

  001ac	48 8b 5c 24 50	 mov	 rbx, QWORD PTR [rsp+80]
  001b1	48 8b 7c 24 58	 mov	 rdi, QWORD PTR [rsp+88]
  001b6	48 83 c4 40	 add	 rsp, 64			; 00000040H
  001ba	5d		 pop	 rbp
  001bb	c3		 ret	 0
$LN21@WinProc:

; 135  : 		return	0;
; 136  : 
; 137  : 	case WM_SIZE:
; 138  : 		EvSize((UINT)wParam, LOWORD(lParam), HIWORD(lParam));

  001bc	4c 8b 13	 mov	 r10, QWORD PTR [rbx]
  001bf	44 0f b7 c7	 movzx	 r8d, di
  001c3	49 c1 e9 10	 shr	 r9, 16
  001c7	41 8b d3	 mov	 edx, r11d
  001ca	48 8b cb	 mov	 rcx, rbx
  001cd	41 ff 92 a0 00
	00 00		 call	 QWORD PTR [r10+160]
  001d4	33 c0		 xor	 eax, eax

; 290  : 	}
; 291  : 
; 292  : 	return	0;
; 293  : }

  001d6	48 8b 5c 24 50	 mov	 rbx, QWORD PTR [rsp+80]
  001db	48 8b 7c 24 58	 mov	 rdi, QWORD PTR [rsp+88]
  001e0	48 83 c4 40	 add	 rsp, 64			; 00000040H
  001e4	5d		 pop	 rbp
  001e5	c3		 ret	 0
$LN22@WinProc:

; 139  : 		return	0;
; 140  : 
; 141  : 	case WM_MOVE:
; 142  : 		EvMove(LOWORD(lParam), HIWORD(lParam));

  001e6	4c 8b 0b	 mov	 r9, QWORD PTR [rbx]
  001e9	48 8b c7	 mov	 rax, rdi
  001ec	48 c1 e8 10	 shr	 rax, 16
  001f0	48 8b cb	 mov	 rcx, rbx
  001f3	44 0f b7 c0	 movzx	 r8d, ax
  001f7	0f b7 d7	 movzx	 edx, di
  001fa	41 ff 91 a8 00
	00 00		 call	 QWORD PTR [r9+168]
  00201	33 c0		 xor	 eax, eax

; 290  : 	}
; 291  : 
; 292  : 	return	0;
; 293  : }

  00203	48 8b 5c 24 50	 mov	 rbx, QWORD PTR [rsp+80]
  00208	48 8b 7c 24 58	 mov	 rdi, QWORD PTR [rsp+88]
  0020d	48 83 c4 40	 add	 rsp, 64			; 00000040H
  00211	5d		 pop	 rbp
  00212	c3		 ret	 0
$LN23@WinProc:

; 143  : 		return	0;
; 144  : 
; 145  : 	case WM_SHOWWINDOW:
; 146  : 		EvShowWindow((BOOL)wParam, (int)lParam);

  00213	48 8b 03	 mov	 rax, QWORD PTR [rbx]
  00216	44 8b c7	 mov	 r8d, edi
  00219	41 8b d3	 mov	 edx, r11d
  0021c	48 8b cb	 mov	 rcx, rbx
  0021f	ff 90 b0 00 00
	00		 call	 QWORD PTR [rax+176]
  00225	33 c0		 xor	 eax, eax

; 290  : 	}
; 291  : 
; 292  : 	return	0;
; 293  : }

  00227	48 8b 5c 24 50	 mov	 rbx, QWORD PTR [rsp+80]
  0022c	48 8b 7c 24 58	 mov	 rdi, QWORD PTR [rsp+88]
  00231	48 83 c4 40	 add	 rsp, 64			; 00000040H
  00235	5d		 pop	 rbp
  00236	c3		 ret	 0
$LN24@WinProc:

; 147  : 		return	0;
; 148  : 
; 149  : 	case WM_GETMINMAXINFO:
; 150  : 		EvGetMinMaxInfo((MINMAXINFO *)lParam);

  00237	48 8b 03	 mov	 rax, QWORD PTR [rbx]
  0023a	48 8b d7	 mov	 rdx, rdi
  0023d	48 8b cb	 mov	 rcx, rbx
  00240	ff 90 b8 00 00
	00		 call	 QWORD PTR [rax+184]
  00246	33 c0		 xor	 eax, eax

; 290  : 	}
; 291  : 
; 292  : 	return	0;
; 293  : }

  00248	48 8b 5c 24 50	 mov	 rbx, QWORD PTR [rsp+80]
  0024d	48 8b 7c 24 58	 mov	 rdi, QWORD PTR [rsp+88]
  00252	48 83 c4 40	 add	 rsp, 64			; 00000040H
  00256	5d		 pop	 rbp
  00257	c3		 ret	 0
$LN25@WinProc:

; 151  : 		return	0;
; 152  : 
; 153  : 	case WM_SETCURSOR:
; 154  : 		result = EvSetCursor((HWND)wParam, LOWORD(lParam), HIWORD(lParam));

  00258	4c 8b 13	 mov	 r10, QWORD PTR [rbx]
  0025b	44 0f b7 c7	 movzx	 r8d, di
  0025f	49 c1 e9 10	 shr	 r9, 16
  00263	49 8b d3	 mov	 rdx, r11
  00266	48 8b cb	 mov	 rcx, rbx
  00269	41 ff 92 c8 00
	00 00		 call	 QWORD PTR [r10+200]

; 155  : 		SetWindowLong(DWL_MSGRESULT, result);
; 156  : 		return	result;

  00270	e9 df fe ff ff	 jmp	 $LN71@WinProc
$LN27@WinProc:

; 160  : 
; 161  : 	case WM_NCHITTEST:
; 162  : 		EvNcHitTest(MAKEPOINTS(lParam), &result);

  00275	48 8b 03	 mov	 rax, QWORD PTR [rbx]
  00278	4c 8d 45 f0	 lea	 r8, QWORD PTR result$[rbp-64]
  0027c	8b d7		 mov	 edx, edi
  0027e	48 8b cb	 mov	 rcx, rbx
  00281	ff 90 d8 00 00
	00		 call	 QWORD PTR [rax+216]

; 163  : 		SetWindowLong(DWL_MSGRESULT, result);

  00287	4c 8b 45 f0	 mov	 r8, QWORD PTR result$[rbp-64]

; 164  : 		return	result;

  0028b	e9 cb fe ff ff	 jmp	 $LN73@WinProc
$LN28@WinProc:

; 165  : 
; 166  : 	case WM_MEASUREITEM:
; 167  : 		result = EvMeasureItem((UINT)wParam, (LPMEASUREITEMSTRUCT)lParam);

  00290	48 8b 03	 mov	 rax, QWORD PTR [rbx]
  00293	4c 8b c7	 mov	 r8, rdi
  00296	41 8b d3	 mov	 edx, r11d
  00299	48 8b cb	 mov	 rcx, rbx
  0029c	ff 90 e0 00 00
	00		 call	 QWORD PTR [rax+224]

; 168  : 		SetWindowLong(DWL_MSGRESULT, result);
; 169  : 		return	result;

  002a2	e9 ad fe ff ff	 jmp	 $LN71@WinProc
$LN29@WinProc:

; 170  : 
; 171  : 	case WM_DRAWITEM:
; 172  : 		result = EvDrawItem((UINT)wParam, (LPDRAWITEMSTRUCT)lParam);

  002a7	48 8b 03	 mov	 rax, QWORD PTR [rbx]
  002aa	4c 8b c7	 mov	 r8, rdi
  002ad	41 8b d3	 mov	 edx, r11d
  002b0	48 8b cb	 mov	 rcx, rbx
  002b3	ff 90 e8 00 00
	00		 call	 QWORD PTR [rax+232]

; 173  : 		SetWindowLong(DWL_MSGRESULT, result);
; 174  : 		return	result;

  002b9	e9 96 fe ff ff	 jmp	 $LN71@WinProc
$LN30@WinProc:

; 175  : 
; 176  : 	case WM_NOTIFY:
; 177  : 		result = EvNotify((UINT)wParam, (LPNMHDR)lParam);

  002be	48 8b 03	 mov	 rax, QWORD PTR [rbx]
  002c1	4c 8b c7	 mov	 r8, rdi
  002c4	41 8b d3	 mov	 edx, r11d
  002c7	48 8b cb	 mov	 rcx, rbx
  002ca	ff 90 00 01 00
	00		 call	 QWORD PTR [rax+256]

; 178  : 		SetWindowLong(DWL_MSGRESULT, result);
; 179  : 		return	result;

  002d0	e9 7f fe ff ff	 jmp	 $LN71@WinProc
$LN31@WinProc:

; 180  : 
; 181  : 	case WM_CONTEXTMENU:
; 182  : 		result = EvContextMenu((HWND)wParam, MAKEPOINTS(lParam));

  002d5	48 8b 03	 mov	 rax, QWORD PTR [rbx]
  002d8	44 8b c7	 mov	 r8d, edi
  002db	49 8b d3	 mov	 rdx, r11
  002de	48 8b cb	 mov	 rcx, rbx
  002e1	ff 90 08 01 00
	00		 call	 QWORD PTR [rax+264]

; 183  : 		SetWindowLong(DWL_MSGRESULT, result);
; 184  : 		return	result;

  002e7	e9 68 fe ff ff	 jmp	 $LN71@WinProc
$LN33@WinProc:

; 190  : 
; 191  : 	case WM_ACTIVATEAPP:
; 192  : 		EvActivateApp((BOOL)wParam, (DWORD)lParam);

  002ec	48 8b 03	 mov	 rax, QWORD PTR [rbx]
  002ef	44 8b c7	 mov	 r8d, edi
  002f2	41 8b d3	 mov	 edx, r11d
  002f5	48 8b cb	 mov	 rcx, rbx
  002f8	ff 90 18 01 00
	00		 call	 QWORD PTR [rax+280]
  002fe	33 c0		 xor	 eax, eax

; 290  : 	}
; 291  : 
; 292  : 	return	0;
; 293  : }

  00300	48 8b 5c 24 50	 mov	 rbx, QWORD PTR [rsp+80]
  00305	48 8b 7c 24 58	 mov	 rdi, QWORD PTR [rsp+88]
  0030a	48 83 c4 40	 add	 rsp, 64			; 00000040H
  0030e	5d		 pop	 rbp
  0030f	c3		 ret	 0
$LN34@WinProc:

; 193  : 		break;
; 194  : 
; 195  : 	case WM_ACTIVATE:
; 196  : 		EvActivate(LOWORD(wParam), HIWORD(wParam), (HWND)lParam);

  00310	4c 8b 13	 mov	 r10, QWORD PTR [rbx]
  00313	49 8b c3	 mov	 rax, r11
  00316	48 c1 e8 10	 shr	 rax, 16
  0031a	48 8b cb	 mov	 rcx, rbx
  0031d	44 0f b7 c0	 movzx	 r8d, ax
  00321	41 0f b7 d3	 movzx	 edx, r11w
  00325	41 ff 92 20 01
	00 00		 call	 QWORD PTR [r10+288]
  0032c	33 c0		 xor	 eax, eax

; 290  : 	}
; 291  : 
; 292  : 	return	0;
; 293  : }

  0032e	48 8b 5c 24 50	 mov	 rbx, QWORD PTR [rsp+80]
  00333	48 8b 7c 24 58	 mov	 rdi, QWORD PTR [rsp+88]
  00338	48 83 c4 40	 add	 rsp, 64			; 00000040H
  0033c	5d		 pop	 rbp
  0033d	c3		 ret	 0
$LN37@WinProc:

; 207  : 
; 208  : 	case WM_WINDOWPOSCHANGING:
; 209  : 		EvWindowPosChanging((WINDOWPOS *)lParam);

  0033e	48 8b 03	 mov	 rax, QWORD PTR [rbx]
  00341	48 8b d7	 mov	 rdx, rdi
  00344	48 8b cb	 mov	 rcx, rbx
  00347	ff 90 38 01 00
	00		 call	 QWORD PTR [rax+312]
$LN70@WinProc:

; 210  : 		SetWindowLong(DWL_MSGRESULT, 0);

  0034d	48 8b 03	 mov	 rax, QWORD PTR [rbx]
  00350	45 33 c0	 xor	 r8d, r8d
  00353	33 d2		 xor	 edx, edx
  00355	48 8b cb	 mov	 rcx, rbx
  00358	ff 90 e8 02 00
	00		 call	 QWORD PTR [rax+744]
  0035e	33 c0		 xor	 eax, eax

; 290  : 	}
; 291  : 
; 292  : 	return	0;
; 293  : }

  00360	48 8b 5c 24 50	 mov	 rbx, QWORD PTR [rsp+80]
  00365	48 8b 7c 24 58	 mov	 rdi, QWORD PTR [rsp+88]
  0036a	48 83 c4 40	 add	 rsp, 64			; 00000040H
  0036e	5d		 pop	 rbp
  0036f	c3		 ret	 0
$LN38@WinProc:

; 211  : 		return	0;
; 212  : 
; 213  : 	case WM_WINDOWPOSCHANGED:
; 214  : 		EvWindowPosChanged((WINDOWPOS *)lParam);

  00370	48 8b 03	 mov	 rax, QWORD PTR [rbx]
  00373	48 8b d7	 mov	 rdx, rdi
  00376	48 8b cb	 mov	 rcx, rbx
  00379	ff 90 30 01 00
	00		 call	 QWORD PTR [rax+304]

; 215  : 		SetWindowLong(DWL_MSGRESULT, 0);
; 216  : 		return	0;

  0037f	eb cc		 jmp	 SHORT $LN70@WinProc
$LN47@WinProc:

; 272  : 
; 273  : 	case WM_KILLFOCUS:
; 274  : 	case WM_SETFOCUS:
; 275  : 		EventFocus(uMsg, (HWND)wParam);

  00381	48 8b 03	 mov	 rax, QWORD PTR [rbx]
  00384	4d 8b c3	 mov	 r8, r11
  00387	48 8b cb	 mov	 rcx, rbx
  0038a	ff 90 70 01 00
	00		 call	 QWORD PTR [rax+368]
  00390	33 c0		 xor	 eax, eax

; 290  : 	}
; 291  : 
; 292  : 	return	0;
; 293  : }

  00392	48 8b 5c 24 50	 mov	 rbx, QWORD PTR [rsp+80]
  00397	48 8b 7c 24 58	 mov	 rdi, QWORD PTR [rsp+88]
  0039c	48 83 c4 40	 add	 rsp, 64			; 00000040H
  003a0	5d		 pop	 rbp
  003a1	c3		 ret	 0
$LN41@WinProc:

; 236  : 		return	0;
; 237  : 
; 238  : 	case WM_KEYUP:
; 239  : 	case WM_KEYDOWN:
; 240  : 		EventKey(uMsg, (int)wParam, (LONG)lParam);

  003a2	48 8b 01	 mov	 rax, QWORD PTR [rcx]
  003a5	ff 90 50 01 00
	00		 call	 QWORD PTR [rax+336]
  003ab	33 c0		 xor	 eax, eax

; 290  : 	}
; 291  : 
; 292  : 	return	0;
; 293  : }

  003ad	48 8b 5c 24 50	 mov	 rbx, QWORD PTR [rsp+80]
  003b2	48 8b 7c 24 58	 mov	 rdi, QWORD PTR [rsp+88]
  003b7	48 83 c4 40	 add	 rsp, 64			; 00000040H
  003bb	5d		 pop	 rbp
  003bc	c3		 ret	 0
$LN56@WinProc:

; 65   : 
; 66   : 	switch (uMsg)

  003bd	81 fa 10 01 00
	00		 cmp	 edx, 272		; 00000110H
  003c3	0f 87 a6 00 00
	00		 ja	 $LN57@WinProc
  003c9	74 21		 je	 SHORT $LN4@WinProc
  003cb	81 fa 02 01 00
	00		 cmp	 edx, 258		; 00000102H
  003d1	0f 85 e0 02 00
	00		 jne	 $LN48@WinProc

; 201  : 		return	0;
; 202  : 
; 203  : 	case WM_CHAR:
; 204  : 		EvChar((WCHAR)wParam, lParam);

  003d7	48 8b 01	 mov	 rax, QWORD PTR [rcx]
  003da	4c 8b c7	 mov	 r8, rdi
  003dd	41 0f b7 d3	 movzx	 edx, r11w
  003e1	ff 90 28 01 00
	00		 call	 QWORD PTR [rax+296]

; 205  : 		SetWindowLong(DWL_MSGRESULT, 0);
; 206  : 		return	0;

  003e7	e9 61 ff ff ff	 jmp	 $LN70@WinProc
$LN4@WinProc:

; 67   : 	{
; 68   : 	case WM_INITDIALOG:
; 69   : 		if (rect.left != CW_USEDEFAULT && !(::GetWindowLong(hWnd, GWL_STYLE) & WS_CHILD)) {

  003ec	81 79 20 00 00
	00 80		 cmp	 DWORD PTR [rcx+32], -2147483648 ; ffffffff80000000H
  003f3	74 43		 je	 SHORT $LN5@WinProc
  003f5	48 8b 49 60	 mov	 rcx, QWORD PTR [rcx+96]
  003f9	ba f0 ff ff ff	 mov	 edx, -16
  003fe	ff 15 00 00 00
	00		 call	 QWORD PTR __imp_GetWindowLongPtrA
  00404	48 0f ba e0 1e	 bt	 rax, 30
  00409	72 2d		 jb	 SHORT $LN5@WinProc

; 70   : 			MoveWindow(rect.left, rect.top, rect.right - rect.left, rect.bottom - rect.top,FALSE);

  0040b	8b 43 2c	 mov	 eax, DWORD PTR [rbx+44]
  0040e	48 8b cb	 mov	 rcx, rbx
  00411	44 8b 43 24	 mov	 r8d, DWORD PTR [rbx+36]
  00415	41 2b c0	 sub	 eax, r8d
  00418	44 8b 4b 28	 mov	 r9d, DWORD PTR [rbx+40]
  0041c	8b 53 20	 mov	 edx, DWORD PTR [rbx+32]
  0041f	44 2b ca	 sub	 r9d, edx
  00422	4c 8b 13	 mov	 r10, QWORD PTR [rbx]
  00425	c7 44 24 28 00
	00 00 00	 mov	 DWORD PTR [rsp+40], 0
  0042d	89 44 24 20	 mov	 DWORD PTR [rsp+32], eax
  00431	41 ff 92 28 03
	00 00		 call	 QWORD PTR [r10+808]
$LN5@WinProc:

; 71   : 		}
; 72   : 		if (rect.left == CW_USEDEFAULT) {

  00438	81 7b 20 00 00
	00 80		 cmp	 DWORD PTR [rbx+32], -2147483648 ; ffffffff80000000H
  0043f	75 10		 jne	 SHORT $LN6@WinProc

; 73   : 			GetWindowRect(&orgRect);

  00441	48 8b 03	 mov	 rax, QWORD PTR [rbx]
  00444	48 8d 53 30	 lea	 rdx, QWORD PTR [rbx+48]
  00448	48 8b cb	 mov	 rcx, rbx
  0044b	ff 90 78 02 00
	00		 call	 QWORD PTR [rax+632]
$LN6@WinProc:

; 74   : 		}
; 75   : 		return	EvCreate(lParam);

  00451	48 8b 03	 mov	 rax, QWORD PTR [rbx]
  00454	48 8b d7	 mov	 rdx, rdi
  00457	48 8b cb	 mov	 rcx, rbx
  0045a	ff 50 50	 call	 QWORD PTR [rax+80]
  0045d	48 98		 cdqe

; 290  : 	}
; 291  : 
; 292  : 	return	0;
; 293  : }

  0045f	48 8b 5c 24 50	 mov	 rbx, QWORD PTR [rsp+80]
  00464	48 8b 7c 24 58	 mov	 rdi, QWORD PTR [rsp+88]
  00469	48 83 c4 40	 add	 rsp, 64			; 00000040H
  0046d	5d		 pop	 rbp
  0046e	c3		 ret	 0
$LN57@WinProc:

; 65   : 
; 66   : 	switch (uMsg)

  0046f	81 fa 12 02 00
	00		 cmp	 edx, 530		; 00000212H
  00475	0f 87 f2 01 00
	00		 ja	 $LN58@WinProc
  0047b	81 fa 11 02 00
	00		 cmp	 edx, 529		; 00000211H
  00481	0f 83 cb 01 00
	00		 jae	 $LN43@WinProc
  00487	8d 82 ef fe ff
	ff		 lea	 eax, DWORD PTR [rdx-273]
  0048d	3d f9 00 00 00	 cmp	 eax, 249		; 000000f9H
  00492	0f 87 1f 02 00
	00		 ja	 $LN48@WinProc
  00498	4c 8d 05 00 00
	00 00		 lea	 r8, OFFSET FLAT:__ImageBase
  0049f	41 0f b6 84 00
	00 00 00 00	 movzx	 eax, BYTE PTR $LN64@WinProc[r8+rax]
  004a8	41 8b 8c 80 00
	00 00 00	 mov	 ecx, DWORD PTR $LN65@WinProc[r8+rax*4]
  004b0	49 03 c8	 add	 rcx, r8
  004b3	ff e1		 jmp	 rcx
$LN8@WinProc:

; 79   : 		return	0;
; 80   : 
; 81   : 	case WM_COMMAND:
; 82   : 		EvCommand(HIWORD(wParam), LOWORD(wParam), lParam);

  004b5	4c 8b 13	 mov	 r10, QWORD PTR [rbx]
  004b8	49 8b d3	 mov	 rdx, r11
  004bb	48 c1 ea 10	 shr	 rdx, 16
  004bf	45 0f b7 c3	 movzx	 r8d, r11w
  004c3	48 8b cb	 mov	 rcx, rbx
  004c6	41 ff 52 40	 call	 QWORD PTR [r10+64]

; 117  : 		return	0;

  004ca	33 c0		 xor	 eax, eax

; 290  : 	}
; 291  : 
; 292  : 	return	0;
; 293  : }

  004cc	48 8b 5c 24 50	 mov	 rbx, QWORD PTR [rsp+80]
  004d1	48 8b 7c 24 58	 mov	 rdi, QWORD PTR [rsp+88]
  004d6	48 83 c4 40	 add	 rsp, 64			; 00000040H
  004da	5d		 pop	 rbp
  004db	c3		 ret	 0
$LN9@WinProc:

; 83   : 		return	0;
; 84   : 
; 85   : 	case WM_SYSCOMMAND:
; 86   : 		EvSysCommand(wParam, MAKEPOINTS(lParam));

  004dc	48 8b 03	 mov	 rax, QWORD PTR [rbx]
  004df	44 8b c7	 mov	 r8d, edi
  004e2	49 8b d3	 mov	 rdx, r11
  004e5	48 8b cb	 mov	 rcx, rbx
  004e8	ff 50 48	 call	 QWORD PTR [rax+72]

; 117  : 		return	0;

  004eb	33 c0		 xor	 eax, eax

; 290  : 	}
; 291  : 
; 292  : 	return	0;
; 293  : }

  004ed	48 8b 5c 24 50	 mov	 rbx, QWORD PTR [rsp+80]
  004f2	48 8b 7c 24 58	 mov	 rdi, QWORD PTR [rsp+88]
  004f7	48 83 c4 40	 add	 rsp, 64			; 00000040H
  004fb	5d		 pop	 rbp
  004fc	c3		 ret	 0
$LN10@WinProc:

; 87   : 		return	0;
; 88   : 
; 89   : 	case WM_TIMER:
; 90   : 		EvTimer(wParam, (TIMERPROC)lParam);

  004fd	48 8b 03	 mov	 rax, QWORD PTR [rbx]
  00500	4c 8b c7	 mov	 r8, rdi
  00503	49 8b d3	 mov	 rdx, r11
  00506	48 8b cb	 mov	 rcx, rbx
  00509	ff 90 c0 00 00
	00		 call	 QWORD PTR [rax+192]

; 117  : 		return	0;

  0050f	33 c0		 xor	 eax, eax

; 290  : 	}
; 291  : 
; 292  : 	return	0;
; 293  : }

  00511	48 8b 5c 24 50	 mov	 rbx, QWORD PTR [rsp+80]
  00516	48 8b 7c 24 58	 mov	 rdi, QWORD PTR [rsp+88]
  0051b	48 83 c4 40	 add	 rsp, 64			; 00000040H
  0051f	5d		 pop	 rbp
  00520	c3		 ret	 0
$LN26@WinProc:

; 157  : 
; 158  : 	case WM_MOUSEMOVE:
; 159  : 		return	EvMouseMove((UINT)wParam, MAKEPOINTS(lParam));

  00521	48 8b 03	 mov	 rax, QWORD PTR [rbx]
  00524	44 8b c7	 mov	 r8d, edi
  00527	41 8b d3	 mov	 edx, r11d
  0052a	48 8b cb	 mov	 rcx, rbx
  0052d	ff 90 d0 00 00
	00		 call	 QWORD PTR [rax+208]
  00533	48 98		 cdqe

; 290  : 	}
; 291  : 
; 292  : 	return	0;
; 293  : }

  00535	48 8b 5c 24 50	 mov	 rbx, QWORD PTR [rsp+80]
  0053a	48 8b 7c 24 58	 mov	 rdi, QWORD PTR [rsp+88]
  0053f	48 83 c4 40	 add	 rsp, 64			; 00000040H
  00543	5d		 pop	 rbp
  00544	c3		 ret	 0
$LN39@WinProc:

; 217  : 
; 218  : 	case WM_MOUSEWHEEL:
; 219  : 		EvMouseWheel(GET_KEYSTATE_WPARAM(wParam), GET_WHEEL_DELTA_WPARAM(wParam),

  00545	4c 8b 13	 mov	 r10, QWORD PTR [rbx]
  00548	4d 8b c3	 mov	 r8, r11
  0054b	48 8b c7	 mov	 rax, rdi
  0054e	49 c1 e8 10	 shr	 r8, 16
  00552	48 c1 e8 10	 shr	 rax, 16
  00556	41 0f b7 d3	 movzx	 edx, r11w
  0055a	48 8b cb	 mov	 rcx, rbx
  0055d	66 89 44 24 20	 mov	 WORD PTR [rsp+32], ax
  00562	41 ff 92 40 01
	00 00		 call	 QWORD PTR [r10+320]
  00569	33 c0		 xor	 eax, eax

; 290  : 	}
; 291  : 
; 292  : 	return	0;
; 293  : }

  0056b	48 8b 5c 24 50	 mov	 rbx, QWORD PTR [rsp+80]
  00570	48 8b 7c 24 58	 mov	 rdi, QWORD PTR [rsp+88]
  00575	48 83 c4 40	 add	 rsp, 64			; 00000040H
  00579	5d		 pop	 rbp
  0057a	c3		 ret	 0
$LN40@WinProc:

; 220  : 			GET_X_LPARAM(lParam), GET_Y_LPARAM(lParam));
; 221  : 		return	0;
; 222  : 
; 223  : 	case WM_LBUTTONUP:
; 224  : 	case WM_RBUTTONUP:
; 225  : 	case WM_NCLBUTTONUP:
; 226  : 	case WM_NCRBUTTONUP:
; 227  : 	case WM_LBUTTONDOWN:
; 228  : 	case WM_RBUTTONDOWN:
; 229  : 	case WM_NCLBUTTONDOWN:
; 230  : 	case WM_NCRBUTTONDOWN:
; 231  : 	case WM_LBUTTONDBLCLK:
; 232  : 	case WM_RBUTTONDBLCLK:
; 233  : 	case WM_NCLBUTTONDBLCLK:
; 234  : 	case WM_NCRBUTTONDBLCLK:
; 235  : 		EventButton(uMsg, (int)wParam, MAKEPOINTS(lParam));

  0057b	48 8b 03	 mov	 rax, QWORD PTR [rbx]
  0057e	45 8b c3	 mov	 r8d, r11d
  00581	48 8b cb	 mov	 rcx, rbx
  00584	ff 90 48 01 00
	00		 call	 QWORD PTR [rax+328]
  0058a	33 c0		 xor	 eax, eax

; 290  : 	}
; 291  : 
; 292  : 	return	0;
; 293  : }

  0058c	48 8b 5c 24 50	 mov	 rbx, QWORD PTR [rsp+80]
  00591	48 8b 7c 24 58	 mov	 rdi, QWORD PTR [rsp+88]
  00596	48 83 c4 40	 add	 rsp, 64			; 00000040H
  0059a	5d		 pop	 rbp
  0059b	c3		 ret	 0
$LN42@WinProc:

; 241  : 		return	0;
; 242  : 
; 243  : 	case WM_HSCROLL:
; 244  : 	case WM_VSCROLL:
; 245  : 		EventScrollWrapper(uMsg, LOWORD(wParam), HIWORD(wParam), (HWND)lParam);

  0059c	4c 8b 13	 mov	 r10, QWORD PTR [rbx]
  0059f	49 8b c3	 mov	 rax, r11
  005a2	48 c1 e8 10	 shr	 rax, 16
  005a6	48 8b cb	 mov	 rcx, rbx
  005a9	44 0f b7 c8	 movzx	 r9d, ax
  005ad	45 0f b7 c3	 movzx	 r8d, r11w
  005b1	48 89 7c 24 20	 mov	 QWORD PTR [rsp+32], rdi
  005b6	41 ff 92 78 01
	00 00		 call	 QWORD PTR [r10+376]
  005bd	33 c0		 xor	 eax, eax

; 290  : 	}
; 291  : 
; 292  : 	return	0;
; 293  : }

  005bf	48 8b 5c 24 50	 mov	 rbx, QWORD PTR [rsp+80]
  005c4	48 8b 7c 24 58	 mov	 rdi, QWORD PTR [rsp+88]
  005c9	48 83 c4 40	 add	 rsp, 64			; 00000040H
  005cd	5d		 pop	 rbp
  005ce	c3		 ret	 0
$LN44@WinProc:

; 251  : 		break;
; 252  : 
; 253  : 	case WM_INITMENU:
; 254  : 	case WM_INITMENUPOPUP:
; 255  : 		EventInitMenu(uMsg, (HMENU)wParam, LOWORD(lParam), (BOOL)HIWORD(lParam));

  005cf	4c 8b 13	 mov	 r10, QWORD PTR [rbx]
  005d2	48 8b c7	 mov	 rax, rdi
  005d5	48 c1 e8 10	 shr	 rax, 16
  005d9	4d 8b c3	 mov	 r8, r11
  005dc	0f b7 c8	 movzx	 ecx, ax
  005df	89 4c 24 20	 mov	 DWORD PTR [rsp+32], ecx
  005e3	48 8b cb	 mov	 rcx, rbx
  005e6	44 0f b7 cf	 movzx	 r9d, di
  005ea	41 ff 92 60 01
	00 00		 call	 QWORD PTR [r10+352]
  005f1	33 c0		 xor	 eax, eax

; 290  : 	}
; 291  : 
; 292  : 	return	0;
; 293  : }

  005f3	48 8b 5c 24 50	 mov	 rbx, QWORD PTR [rsp+80]
  005f8	48 8b 7c 24 58	 mov	 rdi, QWORD PTR [rsp+88]
  005fd	48 83 c4 40	 add	 rsp, 64			; 00000040H
  00601	5d		 pop	 rbp
  00602	c3		 ret	 0
$LN45@WinProc:

; 256  : 		return	0;
; 257  : 
; 258  : 	case WM_MENUSELECT:
; 259  : 		EvMenuSelect(LOWORD(wParam), (BOOL)HIWORD(wParam), (HMENU)lParam);

  00603	4c 8b 13	 mov	 r10, QWORD PTR [rbx]
  00606	49 8b c3	 mov	 rax, r11
  00609	48 c1 e8 10	 shr	 rax, 16
  0060d	48 8b cb	 mov	 rcx, rbx
  00610	44 0f b7 c0	 movzx	 r8d, ax
  00614	41 0f b7 d3	 movzx	 edx, r11w
  00618	41 ff 92 f0 00
	00 00		 call	 QWORD PTR [r10+240]
  0061f	33 c0		 xor	 eax, eax

; 290  : 	}
; 291  : 
; 292  : 	return	0;
; 293  : }

  00621	48 8b 5c 24 50	 mov	 rbx, QWORD PTR [rsp+80]
  00626	48 8b 7c 24 58	 mov	 rdi, QWORD PTR [rsp+88]
  0062b	48 83 c4 40	 add	 rsp, 64			; 00000040H
  0062f	5d		 pop	 rbp
  00630	c3		 ret	 0
$LN46@WinProc:

; 260  : 		return	0;
; 261  : 
; 262  : 	case WM_CTLCOLORBTN:
; 263  : 	case WM_CTLCOLORDLG:
; 264  : 	case WM_CTLCOLOREDIT:
; 265  : 	case WM_CTLCOLORLISTBOX:
; 266  : 	case WM_CTLCOLORMSGBOX:
; 267  : 	case WM_CTLCOLORSCROLLBAR:
; 268  : 	case WM_CTLCOLORSTATIC:
; 269  : 		EventCtlColor(uMsg, (HDC)wParam, (HWND)lParam, (HBRUSH *)&result);

  00631	48 8b 03	 mov	 rax, QWORD PTR [rbx]
  00634	48 8d 4d f0	 lea	 rcx, QWORD PTR result$[rbp-64]
  00638	48 89 4c 24 20	 mov	 QWORD PTR [rsp+32], rcx
  0063d	4d 8b c3	 mov	 r8, r11
  00640	48 8b cb	 mov	 rcx, rbx
  00643	ff 90 68 01 00
	00		 call	 QWORD PTR [rax+360]

; 270  : 		SetWindowLong(DWL_MSGRESULT, result);

  00649	4c 8b 45 f0	 mov	 r8, QWORD PTR result$[rbp-64]

; 271  : 		return	result;

  0064d	e9 09 fb ff ff	 jmp	 $LN73@WinProc
$LN43@WinProc:

; 246  : 		return	0;
; 247  : 
; 248  : 	case WM_ENTERMENULOOP:
; 249  : 	case WM_EXITMENULOOP:
; 250  : 		EventMenuLoop(uMsg, (BOOL)wParam);

  00652	48 8b 01	 mov	 rax, QWORD PTR [rcx]
  00655	ff 90 58 01 00
	00		 call	 QWORD PTR [rax+344]
  0065b	33 c0		 xor	 eax, eax

; 290  : 	}
; 291  : 
; 292  : 	return	0;
; 293  : }

  0065d	48 8b 5c 24 50	 mov	 rbx, QWORD PTR [rsp+80]
  00662	48 8b 7c 24 58	 mov	 rdi, QWORD PTR [rsp+88]
  00667	48 83 c4 40	 add	 rsp, 64			; 00000040H
  0066b	5d		 pop	 rbp
  0066c	c3		 ret	 0
$LN58@WinProc:

; 65   : 
; 66   : 	switch (uMsg)

  0066d	81 fa 18 02 00
	00		 cmp	 edx, 536		; 00000218H
  00673	0f 84 d0 00 00
	00		 je	 $LN16@WinProc
  00679	81 fa 33 02 00
	00		 cmp	 edx, 563		; 00000233H
  0067f	0f 84 a6 00 00
	00		 je	 $LN35@WinProc
  00685	81 fa 12 03 00
	00		 cmp	 edx, 786		; 00000312H
  0068b	0f 84 89 00 00
	00		 je	 $LN32@WinProc
  00691	8d 82 e9 fc ff
	ff		 lea	 eax, DWORD PTR [rdx-791]
  00697	83 f8 01	 cmp	 eax, 1
  0069a	77 1b		 ja	 SHORT $LN48@WinProc

; 130  : 		return	0;
; 131  : 
; 132  : 	case WM_PRINT:
; 133  : 	case WM_PRINTCLIENT:
; 134  : 		EventPrint(uMsg, (HDC)wParam, (DWORD)lParam);

  0069c	48 8b 01	 mov	 rax, QWORD PTR [rcx]
  0069f	ff 90 88 01 00
	00		 call	 QWORD PTR [rax+392]
  006a5	33 c0		 xor	 eax, eax

; 290  : 	}
; 291  : 
; 292  : 	return	0;
; 293  : }

  006a7	48 8b 5c 24 50	 mov	 rbx, QWORD PTR [rsp+80]
  006ac	48 8b 7c 24 58	 mov	 rdi, QWORD PTR [rsp+88]
  006b1	48 83 c4 40	 add	 rsp, 64			; 00000040H
  006b5	5d		 pop	 rbp
  006b6	c3		 ret	 0
$LN48@WinProc:

; 276  : 		return	0;
; 277  : 
; 278  : 	default:
; 279  : 		if (uMsg >= WM_APP && uMsg <= 0xBFFF) {

  006b7	8d 82 00 80 ff
	ff		 lea	 eax, DWORD PTR [rdx-32768]
  006bd	3d ff 3f 00 00	 cmp	 eax, 16383		; 00003fffH
  006c2	77 14		 ja	 SHORT $LN49@WinProc

; 280  : 			result = EventApp(uMsg, wParam, lParam);

  006c4	48 8b 03	 mov	 rax, QWORD PTR [rbx]
  006c7	4d 8b c3	 mov	 r8, r11
  006ca	48 8b cb	 mov	 rcx, rbx
  006cd	ff 90 90 01 00
	00		 call	 QWORD PTR [rax+400]
  006d3	e9 7c fa ff ff	 jmp	 $LN71@WinProc
$LN49@WinProc:
  006d8	8d 82 00 fc ff
	ff		 lea	 eax, DWORD PTR [rdx-1024]
  006de	3d ff 7b 00 00	 cmp	 eax, 31743		; 00007bffH
  006e3	76 21		 jbe	 SHORT $LN53@WinProc
  006e5	8d 82 00 40 ff
	ff		 lea	 eax, DWORD PTR [rdx-49152]
  006eb	3d ff 3f 00 00	 cmp	 eax, 16383		; 00003fffH
  006f0	76 14		 jbe	 SHORT $LN53@WinProc

; 284  : 		}
; 285  : 		else {
; 286  : 			result = EventSystem(uMsg, wParam, lParam);

  006f2	48 8b 03	 mov	 rax, QWORD PTR [rbx]
  006f5	4d 8b c3	 mov	 r8, r11
  006f8	48 8b cb	 mov	 rcx, rbx
  006fb	ff 90 a0 01 00
	00		 call	 QWORD PTR [rax+416]
  00701	e9 4e fa ff ff	 jmp	 $LN71@WinProc
$LN53@WinProc:

; 281  : 		}
; 282  : 		else if (uMsg >= WM_USER && uMsg < WM_APP || uMsg >= 0xC000 && uMsg <= 0xFFFF) {
; 283  : 			result = EventUser(uMsg, wParam, lParam);

  00706	48 8b 03	 mov	 rax, QWORD PTR [rbx]
  00709	4d 8b c3	 mov	 r8, r11
  0070c	48 8b cb	 mov	 rcx, rbx
  0070f	ff 90 98 01 00
	00		 call	 QWORD PTR [rax+408]

; 287  : 		}
; 288  : 		SetWindowLong(DWL_MSGRESULT, result);
; 289  : 		return	result;

  00715	e9 3a fa ff ff	 jmp	 $LN71@WinProc
$LN32@WinProc:

; 185  : 
; 186  : 	case WM_HOTKEY:
; 187  : 		result = EvHotKey((int)wParam);

  0071a	48 8b 01	 mov	 rax, QWORD PTR [rcx]
  0071d	41 8b d3	 mov	 edx, r11d
  00720	ff 90 10 01 00
	00		 call	 QWORD PTR [rax+272]

; 188  : 		SetWindowLong(DWL_MSGRESULT, result);
; 189  : 		return	result;

  00726	e9 29 fa ff ff	 jmp	 $LN71@WinProc
$LN35@WinProc:

; 197  : 		break;
; 198  : 
; 199  : 	case WM_DROPFILES:
; 200  : 		EvDropFiles((HDROP)wParam);

  0072b	48 8b 01	 mov	 rax, QWORD PTR [rcx]
  0072e	49 8b d3	 mov	 rdx, r11
  00731	ff 90 f8 00 00
	00		 call	 QWORD PTR [rax+248]
  00737	33 c0		 xor	 eax, eax

; 290  : 	}
; 291  : 
; 292  : 	return	0;
; 293  : }

  00739	48 8b 5c 24 50	 mov	 rbx, QWORD PTR [rsp+80]
  0073e	48 8b 7c 24 58	 mov	 rdi, QWORD PTR [rsp+88]
  00743	48 83 c4 40	 add	 rsp, 64			; 00000040H
  00747	5d		 pop	 rbp
  00748	c3		 ret	 0
$LN16@WinProc:

; 113  : 		return	0;
; 114  : 
; 115  : 	case WM_POWERBROADCAST:
; 116  : 		EvPowerBroadcast(wParam, lParam);

  00749	48 8b 01	 mov	 rax, QWORD PTR [rcx]
  0074c	4c 8b c7	 mov	 r8, rdi
  0074f	49 8b d3	 mov	 rdx, r11
  00752	ff 90 80 00 00
	00		 call	 QWORD PTR [rax+128]

; 290  : 	}
; 291  : 
; 292  : 	return	0;
; 293  : }

  00758	48 8b 5c 24 50	 mov	 rbx, QWORD PTR [rsp+80]
  0075d	33 c0		 xor	 eax, eax
  0075f	48 8b 7c 24 58	 mov	 rdi, QWORD PTR [rsp+88]
  00764	48 83 c4 40	 add	 rsp, 64			; 00000040H
  00768	5d		 pop	 rbp
  00769	c3		 ret	 0
  0076a	66 90		 npad	 2
$LN67@WinProc:
  0076c	00 00 00 00	 DD	 $LN11@WinProc
  00770	00 00 00 00	 DD	 $LN22@WinProc
  00774	00 00 00 00	 DD	 $LN21@WinProc
  00778	00 00 00 00	 DD	 $LN34@WinProc
  0077c	00 00 00 00	 DD	 $LN47@WinProc
  00780	00 00 00 00	 DD	 $LN18@WinProc
  00784	00 00 00 00	 DD	 $LN7@WinProc
  00788	00 00 00 00	 DD	 $LN14@WinProc
  0078c	00 00 00 00	 DD	 $LN17@WinProc
  00790	00 00 00 00	 DD	 $LN15@WinProc
  00794	00 00 00 00	 DD	 $LN23@WinProc
  00798	00 00 00 00	 DD	 $LN33@WinProc
  0079c	00 00 00 00	 DD	 $LN25@WinProc
  007a0	00 00 00 00	 DD	 $LN24@WinProc
  007a4	00 00 00 00	 DD	 $LN29@WinProc
  007a8	00 00 00 00	 DD	 $LN28@WinProc
  007ac	00 00 00 00	 DD	 $LN37@WinProc
  007b0	00 00 00 00	 DD	 $LN38@WinProc
  007b4	00 00 00 00	 DD	 $LN30@WinProc
  007b8	00 00 00 00	 DD	 $LN31@WinProc
  007bc	00 00 00 00	 DD	 $LN12@WinProc
  007c0	00 00 00 00	 DD	 $LN27@WinProc
  007c4	00 00 00 00	 DD	 $LN19@WinProc
  007c8	00 00 00 00	 DD	 $LN40@WinProc
  007cc	00 00 00 00	 DD	 $LN48@WinProc
$LN66@WinProc:
  007d0	00		 DB	 0
  007d1	01		 DB	 1
  007d2	18		 DB	 24
  007d3	02		 DB	 2
  007d4	03		 DB	 3
  007d5	04		 DB	 4
  007d6	04		 DB	 4
  007d7	18		 DB	 24
  007d8	18		 DB	 24
  007d9	18		 DB	 24
  007da	18		 DB	 24
  007db	18		 DB	 24
  007dc	18		 DB	 24
  007dd	05		 DB	 5
  007de	06		 DB	 6
  007df	07		 DB	 7
  007e0	18		 DB	 24
  007e1	08		 DB	 8
  007e2	18		 DB	 24
  007e3	18		 DB	 24
  007e4	09		 DB	 9
  007e5	18		 DB	 24
  007e6	0a		 DB	 10
  007e7	18		 DB	 24
  007e8	18		 DB	 24
  007e9	18		 DB	 24
  007ea	0b		 DB	 11
  007eb	18		 DB	 24
  007ec	18		 DB	 24
  007ed	18		 DB	 24
  007ee	0c		 DB	 12
  007ef	18		 DB	 24
  007f0	18		 DB	 24
  007f1	18		 DB	 24
  007f2	0d		 DB	 13
  007f3	18		 DB	 24
  007f4	18		 DB	 24
  007f5	18		 DB	 24
  007f6	18		 DB	 24
  007f7	18		 DB	 24
  007f8	18		 DB	 24
  007f9	0e		 DB	 14
  007fa	0f		 DB	 15
  007fb	18		 DB	 24
  007fc	18		 DB	 24
  007fd	18		 DB	 24
  007fe	18		 DB	 24
  007ff	18		 DB	 24
  00800	18		 DB	 24
  00801	18		 DB	 24
  00802	18		 DB	 24
  00803	18		 DB	 24
  00804	18		 DB	 24
  00805	18		 DB	 24
  00806	18		 DB	 24
  00807	18		 DB	 24
  00808	18		 DB	 24
  00809	18		 DB	 24
  0080a	18		 DB	 24
  0080b	18		 DB	 24
  0080c	18		 DB	 24
  0080d	18		 DB	 24
  0080e	18		 DB	 24
  0080f	18		 DB	 24
  00810	18		 DB	 24
  00811	18		 DB	 24
  00812	18		 DB	 24
  00813	18		 DB	 24
  00814	10		 DB	 16
  00815	11		 DB	 17
  00816	18		 DB	 24
  00817	18		 DB	 24
  00818	18		 DB	 24
  00819	18		 DB	 24
  0081a	18		 DB	 24
  0081b	18		 DB	 24
  0081c	12		 DB	 18
  0081d	18		 DB	 24
  0081e	18		 DB	 24
  0081f	18		 DB	 24
  00820	18		 DB	 24
  00821	18		 DB	 24
  00822	18		 DB	 24
  00823	18		 DB	 24
  00824	18		 DB	 24
  00825	18		 DB	 24
  00826	18		 DB	 24
  00827	18		 DB	 24
  00828	18		 DB	 24
  00829	18		 DB	 24
  0082a	18		 DB	 24
  0082b	18		 DB	 24
  0082c	18		 DB	 24
  0082d	18		 DB	 24
  0082e	18		 DB	 24
  0082f	18		 DB	 24
  00830	18		 DB	 24
  00831	18		 DB	 24
  00832	18		 DB	 24
  00833	18		 DB	 24
  00834	18		 DB	 24
  00835	18		 DB	 24
  00836	18		 DB	 24
  00837	18		 DB	 24
  00838	18		 DB	 24
  00839	18		 DB	 24
  0083a	18		 DB	 24
  0083b	18		 DB	 24
  0083c	18		 DB	 24
  0083d	18		 DB	 24
  0083e	18		 DB	 24
  0083f	18		 DB	 24
  00840	18		 DB	 24
  00841	18		 DB	 24
  00842	18		 DB	 24
  00843	18		 DB	 24
  00844	18		 DB	 24
  00845	18		 DB	 24
  00846	18		 DB	 24
  00847	18		 DB	 24
  00848	18		 DB	 24
  00849	13		 DB	 19
  0084a	18		 DB	 24
  0084b	18		 DB	 24
  0084c	18		 DB	 24
  0084d	18		 DB	 24
  0084e	18		 DB	 24
  0084f	18		 DB	 24
  00850	14		 DB	 20
  00851	18		 DB	 24
  00852	15		 DB	 21
  00853	16		 DB	 22
  00854	18		 DB	 24
  00855	18		 DB	 24
  00856	18		 DB	 24
  00857	18		 DB	 24
  00858	18		 DB	 24
  00859	18		 DB	 24
  0085a	18		 DB	 24
  0085b	18		 DB	 24
  0085c	18		 DB	 24
  0085d	18		 DB	 24
  0085e	18		 DB	 24
  0085f	18		 DB	 24
  00860	18		 DB	 24
  00861	18		 DB	 24
  00862	18		 DB	 24
  00863	18		 DB	 24
  00864	18		 DB	 24
  00865	18		 DB	 24
  00866	18		 DB	 24
  00867	18		 DB	 24
  00868	18		 DB	 24
  00869	18		 DB	 24
  0086a	18		 DB	 24
  0086b	18		 DB	 24
  0086c	18		 DB	 24
  0086d	18		 DB	 24
  0086e	18		 DB	 24
  0086f	17		 DB	 23
  00870	17		 DB	 23
  00871	17		 DB	 23
  00872	17		 DB	 23
  00873	17		 DB	 23
  00874	17		 DB	 23
  00875	0f 1f 00	 npad	 3
$LN65@WinProc:
  00878	00 00 00 00	 DD	 $LN8@WinProc
  0087c	00 00 00 00	 DD	 $LN9@WinProc
  00880	00 00 00 00	 DD	 $LN10@WinProc
  00884	00 00 00 00	 DD	 $LN42@WinProc
  00888	00 00 00 00	 DD	 $LN44@WinProc
  0088c	00 00 00 00	 DD	 $LN45@WinProc
  00890	00 00 00 00	 DD	 $LN46@WinProc
  00894	00 00 00 00	 DD	 $LN26@WinProc
  00898	00 00 00 00	 DD	 $LN40@WinProc
  0089c	00 00 00 00	 DD	 $LN39@WinProc
  008a0	00 00 00 00	 DD	 $LN48@WinProc
$LN64@WinProc:
  008a4	00		 DB	 0
  008a5	01		 DB	 1
  008a6	02		 DB	 2
  008a7	03		 DB	 3
  008a8	03		 DB	 3
  008a9	04		 DB	 4
  008aa	04		 DB	 4
  008ab	0a		 DB	 10
  008ac	0a		 DB	 10
  008ad	0a		 DB	 10
  008ae	0a		 DB	 10
  008af	0a		 DB	 10
  008b0	0a		 DB	 10
  008b1	0a		 DB	 10
  008b2	05		 DB	 5
  008b3	0a		 DB	 10
  008b4	0a		 DB	 10
  008b5	0a		 DB	 10
  008b6	0a		 DB	 10
  008b7	0a		 DB	 10
  008b8	0a		 DB	 10
  008b9	0a		 DB	 10
  008ba	0a		 DB	 10
  008bb	0a		 DB	 10
  008bc	0a		 DB	 10
  008bd	0a		 DB	 10
  008be	0a		 DB	 10
  008bf	0a		 DB	 10
  008c0	0a		 DB	 10
  008c1	0a		 DB	 10
  008c2	0a		 DB	 10
  008c3	0a		 DB	 10
  008c4	0a		 DB	 10
  008c5	06		 DB	 6
  008c6	06		 DB	 6
  008c7	06		 DB	 6
  008c8	06		 DB	 6
  008c9	06		 DB	 6
  008ca	06		 DB	 6
  008cb	06		 DB	 6
  008cc	0a		 DB	 10
  008cd	0a		 DB	 10
  008ce	0a		 DB	 10
  008cf	0a		 DB	 10
  008d0	0a		 DB	 10
  008d1	0a		 DB	 10
  008d2	0a		 DB	 10
  008d3	0a		 DB	 10
  008d4	0a		 DB	 10
  008d5	0a		 DB	 10
  008d6	0a		 DB	 10
  008d7	0a		 DB	 10
  008d8	0a		 DB	 10
  008d9	0a		 DB	 10
  008da	0a		 DB	 10
  008db	0a		 DB	 10
  008dc	0a		 DB	 10
  008dd	0a		 DB	 10
  008de	0a		 DB	 10
  008df	0a		 DB	 10
  008e0	0a		 DB	 10
  008e1	0a		 DB	 10
  008e2	0a		 DB	 10
  008e3	0a		 DB	 10
  008e4	0a		 DB	 10
  008e5	0a		 DB	 10
  008e6	0a		 DB	 10
  008e7	0a		 DB	 10
  008e8	0a		 DB	 10
  008e9	0a		 DB	 10
  008ea	0a		 DB	 10
  008eb	0a		 DB	 10
  008ec	0a		 DB	 10
  008ed	0a		 DB	 10
  008ee	0a		 DB	 10
  008ef	0a		 DB	 10
  008f0	0a		 DB	 10
  008f1	0a		 DB	 10
  008f2	0a		 DB	 10
  008f3	0a		 DB	 10
  008f4	0a		 DB	 10
  008f5	0a		 DB	 10
  008f6	0a		 DB	 10
  008f7	0a		 DB	 10
  008f8	0a		 DB	 10
  008f9	0a		 DB	 10
  008fa	0a		 DB	 10
  008fb	0a		 DB	 10
  008fc	0a		 DB	 10
  008fd	0a		 DB	 10
  008fe	0a		 DB	 10
  008ff	0a		 DB	 10
  00900	0a		 DB	 10
  00901	0a		 DB	 10
  00902	0a		 DB	 10
  00903	0a		 DB	 10
  00904	0a		 DB	 10
  00905	0a		 DB	 10
  00906	0a		 DB	 10
  00907	0a		 DB	 10
  00908	0a		 DB	 10
  00909	0a		 DB	 10
  0090a	0a		 DB	 10
  0090b	0a		 DB	 10
  0090c	0a		 DB	 10
  0090d	0a		 DB	 10
  0090e	0a		 DB	 10
  0090f	0a		 DB	 10
  00910	0a		 DB	 10
  00911	0a		 DB	 10
  00912	0a		 DB	 10
  00913	0a		 DB	 10
  00914	0a		 DB	 10
  00915	0a		 DB	 10
  00916	0a		 DB	 10
  00917	0a		 DB	 10
  00918	0a		 DB	 10
  00919	0a		 DB	 10
  0091a	0a		 DB	 10
  0091b	0a		 DB	 10
  0091c	0a		 DB	 10
  0091d	0a		 DB	 10
  0091e	0a		 DB	 10
  0091f	0a		 DB	 10
  00920	0a		 DB	 10
  00921	0a		 DB	 10
  00922	0a		 DB	 10
  00923	0a		 DB	 10
  00924	0a		 DB	 10
  00925	0a		 DB	 10
  00926	0a		 DB	 10
  00927	0a		 DB	 10
  00928	0a		 DB	 10
  00929	0a		 DB	 10
  0092a	0a		 DB	 10
  0092b	0a		 DB	 10
  0092c	0a		 DB	 10
  0092d	0a		 DB	 10
  0092e	0a		 DB	 10
  0092f	0a		 DB	 10
  00930	0a		 DB	 10
  00931	0a		 DB	 10
  00932	0a		 DB	 10
  00933	0a		 DB	 10
  00934	0a		 DB	 10
  00935	0a		 DB	 10
  00936	0a		 DB	 10
  00937	0a		 DB	 10
  00938	0a		 DB	 10
  00939	0a		 DB	 10
  0093a	0a		 DB	 10
  0093b	0a		 DB	 10
  0093c	0a		 DB	 10
  0093d	0a		 DB	 10
  0093e	0a		 DB	 10
  0093f	0a		 DB	 10
  00940	0a		 DB	 10
  00941	0a		 DB	 10
  00942	0a		 DB	 10
  00943	0a		 DB	 10
  00944	0a		 DB	 10
  00945	0a		 DB	 10
  00946	0a		 DB	 10
  00947	0a		 DB	 10
  00948	0a		 DB	 10
  00949	0a		 DB	 10
  0094a	0a		 DB	 10
  0094b	0a		 DB	 10
  0094c	0a		 DB	 10
  0094d	0a		 DB	 10
  0094e	0a		 DB	 10
  0094f	0a		 DB	 10
  00950	0a		 DB	 10
  00951	0a		 DB	 10
  00952	0a		 DB	 10
  00953	0a		 DB	 10
  00954	0a		 DB	 10
  00955	0a		 DB	 10
  00956	0a		 DB	 10
  00957	0a		 DB	 10
  00958	0a		 DB	 10
  00959	0a		 DB	 10
  0095a	0a		 DB	 10
  0095b	0a		 DB	 10
  0095c	0a		 DB	 10
  0095d	0a		 DB	 10
  0095e	0a		 DB	 10
  0095f	0a		 DB	 10
  00960	0a		 DB	 10
  00961	0a		 DB	 10
  00962	0a		 DB	 10
  00963	0a		 DB	 10
  00964	0a		 DB	 10
  00965	0a		 DB	 10
  00966	0a		 DB	 10
  00967	0a		 DB	 10
  00968	0a		 DB	 10
  00969	0a		 DB	 10
  0096a	0a		 DB	 10
  0096b	0a		 DB	 10
  0096c	0a		 DB	 10
  0096d	0a		 DB	 10
  0096e	0a		 DB	 10
  0096f	0a		 DB	 10
  00970	0a		 DB	 10
  00971	0a		 DB	 10
  00972	0a		 DB	 10
  00973	0a		 DB	 10
  00974	0a		 DB	 10
  00975	0a		 DB	 10
  00976	0a		 DB	 10
  00977	0a		 DB	 10
  00978	0a		 DB	 10
  00979	0a		 DB	 10
  0097a	0a		 DB	 10
  0097b	0a		 DB	 10
  0097c	0a		 DB	 10
  0097d	0a		 DB	 10
  0097e	0a		 DB	 10
  0097f	0a		 DB	 10
  00980	0a		 DB	 10
  00981	0a		 DB	 10
  00982	0a		 DB	 10
  00983	0a		 DB	 10
  00984	0a		 DB	 10
  00985	0a		 DB	 10
  00986	0a		 DB	 10
  00987	0a		 DB	 10
  00988	0a		 DB	 10
  00989	0a		 DB	 10
  0098a	0a		 DB	 10
  0098b	0a		 DB	 10
  0098c	0a		 DB	 10
  0098d	0a		 DB	 10
  0098e	0a		 DB	 10
  0098f	0a		 DB	 10
  00990	0a		 DB	 10
  00991	0a		 DB	 10
  00992	0a		 DB	 10
  00993	07		 DB	 7
  00994	08		 DB	 8
  00995	08		 DB	 8
  00996	08		 DB	 8
  00997	08		 DB	 8
  00998	08		 DB	 8
  00999	08		 DB	 8
  0099a	0a		 DB	 10
  0099b	0a		 DB	 10
  0099c	0a		 DB	 10
  0099d	09		 DB	 9
?WinProc@TDlg@@UEAA_JI_K_J@Z ENDP			; TDlg::WinProc
_TEXT	ENDS
; Function compile flags: /Ogtpy
;	COMDAT ??_GTDlg@@UEAAPEAXI@Z
_TEXT	SEGMENT
this$ = 48
__flags$ = 56
??_GTDlg@@UEAAPEAXI@Z PROC				; TDlg::`scalar deleting destructor', COMDAT
$LN6:
  00000	48 89 5c 24 08	 mov	 QWORD PTR [rsp+8], rbx
  00005	57		 push	 rdi
  00006	48 83 ec 20	 sub	 rsp, 32			; 00000020H
  0000a	8b da		 mov	 ebx, edx
  0000c	48 8b f9	 mov	 rdi, rcx
  0000f	e8 00 00 00 00	 call	 ??1TDlg@@UEAA@XZ	; TDlg::~TDlg
  00014	f6 c3 01	 test	 bl, 1
  00017	74 0d		 je	 SHORT $LN4@scalar
  00019	ba 90 00 00 00	 mov	 edx, 144		; 00000090H
  0001e	48 8b cf	 mov	 rcx, rdi
  00021	e8 00 00 00 00	 call	 ??3@YAXPEAX_K@Z		; operator delete
$LN4@scalar:
  00026	48 8b c7	 mov	 rax, rdi
  00029	48 8b 5c 24 30	 mov	 rbx, QWORD PTR [rsp+48]
  0002e	48 83 c4 20	 add	 rsp, 32			; 00000020H
  00032	5f		 pop	 rdi
  00033	c3		 ret	 0
??_GTDlg@@UEAAPEAXI@Z ENDP				; TDlg::`scalar deleting destructor'
_TEXT	ENDS
; Function compile flags: /Ogtpy
; File f:\software1\系统软件\fastcopy\fastcopy325src\src\tlib\tdlg.cpp
;	COMDAT ?EvCommand@TDlg@@UEAAHGG_J@Z
_TEXT	SEGMENT
this$ = 48
wNotifyCode$ = 56
wID$ = 64
hwndCtl$ = 72
?EvCommand@TDlg@@UEAAHGG_J@Z PROC			; TDlg::EvCommand, COMDAT

; 312  : {

$LN7:
  00000	48 83 ec 28	 sub	 rsp, 40			; 00000028H

; 313  : 	switch (wID)

  00004	41 0f b7 d0	 movzx	 edx, r8w
  00008	8d 42 ff	 lea	 eax, DWORD PTR [rdx-1]
  0000b	83 f8 06	 cmp	 eax, 6
  0000e	77 13		 ja	 SHORT $LN2@EvCommand

; 314  : 	{
; 315  : 	case IDOK: case IDCANCEL: case IDYES: case IDNO:
; 316  : 	case IDABORT: case IDIGNORE: case IDRETRY:
; 317  : 		EndDialog(wID);

  00010	48 8b 01	 mov	 rax, QWORD PTR [rcx]
  00013	ff 90 a0 03 00
	00		 call	 QWORD PTR [rax+928]

; 318  : 		return	TRUE;

  00019	b8 01 00 00 00	 mov	 eax, 1

; 322  : }

  0001e	48 83 c4 28	 add	 rsp, 40			; 00000028H
  00022	c3		 ret	 0
$LN2@EvCommand:

; 319  : 	}
; 320  : 
; 321  : 	return	FALSE;

  00023	33 c0		 xor	 eax, eax

; 322  : }

  00025	48 83 c4 28	 add	 rsp, 40			; 00000028H
  00029	c3		 ret	 0
?EvCommand@TDlg@@UEAAHGG_J@Z ENDP			; TDlg::EvCommand
_TEXT	ENDS
END
