; Listing generated by Microsoft (R) Optimizing Compiler Version 19.00.24215.1 

include listing.inc

INCLUDELIB OLDNAMES

PUBLIC	??_C@_0DK@OLCJDIPE@?$EA?$CI?$CD?$CJCopyright?5?$CIC?$CJ?51996?92016?5H?4Sh@ ; `string'
PUBLIC	??_C@_04DFEBHPOG@TLib?$AA@			; `string'
PUBLIC	??_C@_0BN@BINKLCDN@Detect?5too?5many?5wait?5threads?$AA@ ; `string'
PUBLIC	??_C@_01KICIPPFI@?2?$AA@			; `string'
PUBLIC	??_C@_06DIJPEION@?$CFs?$CFs?$CFs?$AA@		; `string'
PUBLIC	??_C@_15GANGMFKL@?$AA?$CF?$AAs?$AA?$AA@		; `string'
PUBLIC	??_C@_13FPGAJAPJ@?$AA?2?$AA?$AA@		; `string'
PUBLIC	??_C@_1O@JBBHAGJJ@?$AA?$CF?$AAs?$AA?$CF?$AAs?$AA?$CF?$AAs?$AA?$AA@ ; `string'
PUBLIC	??_C@_0BB@JCEFLFJE@0123456789abcdef?$AA@	; `string'
PUBLIC	??_C@_1CC@FLKNJKKC@?$AA0?$AA1?$AA2?$AA3?$AA4?$AA5?$AA6?$AA7?$AA8?$AA9?$AAa?$AAb?$AAc?$AAd?$AAe?$AAf?$AA?$AA@ ; `string'
PUBLIC	??_C@_03JKKBDOOC@?$DN?$DN?$DN?$AA@		; `string'
PUBLIC	??_C@_04EBNJJJJI@?$CF?4?$CKs?$AA@		; `string'
PUBLIC	??_C@_0BC@NAGFGCOE@?5?$CF02x?$CF02x?$CF02x?$CF02x?$AA@ ; `string'
PUBLIC	??_C@_09FAALLACF@?5?4?4?4?4?4?4?4?4?$AA@	; `string'
PUBLIC	??_C@_02PCIJFNDE@?$AN?6?$AA@			; `string'
PUBLIC	??_C@_03NDEAONJP@?5?5?5?$AA@			; `string'
PUBLIC	??_C@_0IF@BFDDCMMG@?9?9?9?9?9?9?5?$CF?4100s?5?9?9?9?9?9?$AN?6?5Date?5?5?5?5?5?5@ ; `string'
PUBLIC	??_C@_0OG@DMEEOACO@?5Code?1Adr?1DC?5?3?5?$CFX?5?1?5?$CFp?5?1?5?$CFp?$AN?6?5AX@ ; `string'
PUBLIC	??_C@_01CLKCMJKC@?5?$AA@			; `string'
PUBLIC	??_C@_04GBFHKGDE@?$CFp?$CFs?$AA@		; `string'
PUBLIC	??_C@_0BL@FDCOBIGB@?9?9?9?9?9?9?9?5stack?5info?5?9?9?9?9?9?$AN?6?$AA@ ; `string'
PUBLIC	??_C@_0BL@KOEPHMLK@?9?9?9?9?5reg?5point?5info?5?9?9?9?9?$AN?6?$AA@ ; `string'
PUBLIC	??_C@_03BBEMLFCD@Rax?$AA@			; `string'
PUBLIC	??_C@_03BDAKALHK@Rbx?$AA@			; `string'
PUBLIC	??_C@_03BCMIGBEN@Rcx?$AA@			; `string'
PUBLIC	??_C@_03BHIHHHMI@Rdx?$AA@			; `string'
PUBLIC	??_C@_03FNDHOBCN@Rsi?$AA@			; `string'
PUBLIC	??_C@_03EEFOFENI@Rdi?$AA@			; `string'
PUBLIC	??_C@_03NLNDIBHC@Rbp?$AA@			; `string'
PUBLIC	??_C@_03MGDHEIDF@Rsp?$AA@			; `string'
PUBLIC	??_C@_03EDHHEA@R8?5?$AA@			; `string'
PUBLIC	??_C@_03BIBBNHH@R9?5?$AA@			; `string'
PUBLIC	??_C@_03EFFAFOJO@R10?$AA@			; `string'
PUBLIC	??_C@_03FMELGPNP@R11?$AA@			; `string'
PUBLIC	??_C@_03HHGGDMBM@R12?$AA@			; `string'
PUBLIC	??_C@_03GOHNANFN@R13?$AA@			; `string'
PUBLIC	??_C@_03CBDMJLJK@R14?$AA@			; `string'
PUBLIC	??_C@_03DICHKKNL@R15?$AA@			; `string'
PUBLIC	??_C@_03NHIGGOJD@Rip?$AA@			; `string'
PUBLIC	??_C@_0BL@BMCMDBEN@?9?9?9?9?5trace?5log?5info?5?9?9?9?9?$AN?6?$AA@ ; `string'
PUBLIC	??_C@_0BN@ODLBAGLK@?9?9?9?9?9?9?9?9?9?9?9?9?9?9?9?9?9?9?9?9?9?9?9?9?$AN?6?$AN?6?$AA@ ; `string'
PUBLIC	??_C@_08GKKICAKB@explorer?$AA@			; `string'
PUBLIC	??_C@_0P@NJGPEHMM@_exception?4log?$AA@		; `string'
PUBLIC	??_C@_0L@IGBOJMIH@?1select?0?$CFs?$AA@		; `string'
PUBLIC	??_C@_0BO@FMEMLCCA@?$CF02x?1?$CF02x?1?$CF02x?1?$CF02x?1?$CF02x?1?$CF02x?$AA@ ; `string'
PUBLIC	??_C@_0P@LKABJJMO@IsWow64Process?$AA@		; `string'
PUBLIC	??_C@_08PNLNEKOB@kernel32?$AA@			; `string'
PUBLIC	??_C@_0BI@MCEAONBI@RegDisableReflectionKey?$AA@	; `string'
PUBLIC	??_C@_08DOPOLOOH@advapi32?$AA@			; `string'
PUBLIC	??_C@_0BH@MJKGPAOP@RegEnableReflectionKey?$AA@	; `string'
PUBLIC	??_C@_0BP@OODKCJPP@Wow64DisableWow64FsRedirection?$AA@ ; `string'
PUBLIC	??_C@_0BO@KOCOEJCM@Wow64RevertWow64FsRedirection?$AA@ ; `string'
PUBLIC	??_C@_0DK@CJDIKJOC@SOFTWARE?2Microsoft?2Windows?2Curre@ ; `string'
PUBLIC	??_C@_09IMBMLODE@EnableLUA?$AA@			; `string'
PUBLIC	??_C@_1CA@INKEKHJP@?$AA?2?$AAV?$AAi?$AAr?$AAt?$AAu?$AAa?$AAl?$AAS?$AAt?$AAo?$AAr?$AAe?$AA?$CF?$AAs?$AA?$AA@ ; `string'
PUBLIC	??_C@_0BE@FGMANJOG@SetThreadUILanguage?$AA@	; `string'
PUBLIC	??_C@_0BK@MCKCJCIG@ChangeWindowMessageFilter?$AA@ ; `string'
PUBLIC	??_C@_06KMMDPPA@user32?$AA@			; `string'
PUBLIC	??_C@_0BD@DGOJMNDA@SwitchToThisWindow?$AA@	; `string'
PUBLIC	??_C@_0L@EFKJKBHF@hhctrl?4ocx?$AA@		; `string'
PUBLIC	??_C@_09FJINEKLL@HtmlHelpW?$AA@			; `string'
PUBLIC	??_C@_0BM@GLFHELBJ@SHGetPropertyStoreForWindow?$AA@ ; `string'
PUBLIC	??_C@_07LOANPHMB@shell32?$AA@			; `string'
PUBLIC	??_C@_06HACJLEKA@?$JA?$JA?$JA?$JA?$JA?$JA?$AA@	; `string'
PUBLIC	??_C@_02MEOGFIDO@?k?$BD?$AA@			; `string'
PUBLIC	??_R4TResHashObj@@6B@				; TResHashObj::`RTTI Complete Object Locator'
PUBLIC	_GUID_98325047_c671_4174_8d81_defcd3f03186
PUBLIC	??_R3?$THashTblT@I@@8				; THashTblT<unsigned int>::`RTTI Class Hierarchy Descriptor'
PUBLIC	_GUID_304ce942_6e39_40d8_943a_b913c40c9cd4
PUBLIC	?defaultStrInstance@@3PEAUHINSTANCE__@@EA	; defaultStrInstance
PUBLIC	_GUID_ec9846b3_2762_4a6b_a214_6acb603462d2
PUBLIC	??_R4?$THashTblT@I@@6B@				; THashTblT<unsigned int>::`RTTI Complete Object Locator'
PUBLIC	??_R1A@?0A@EA@?$THashTblT@I@@8			; THashTblT<unsigned int>::`RTTI Base Class Descriptor at (0,-1,0,64)'
PUBLIC	_GUID_cc19079b_8272_4d73_bb70_cdb533527b61
PUBLIC	??_R4TResHash@@6B@				; TResHash::`RTTI Complete Object Locator'
PUBLIC	??_R3TResHashObj@@8				; TResHashObj::`RTTI Class Hierarchy Descriptor'
PUBLIC	??_R1A@?0A@EA@TResHash@@8			; TResHash::`RTTI Base Class Descriptor at (0,-1,0,64)'
PUBLIC	??_R2?$THashTblT@I@@8				; THashTblT<unsigned int>::`RTTI Base Class Array'
PUBLIC	??_R0?AUTResHashObj@@@8				; TResHashObj `RTTI Type Descriptor'
PUBLIC	_GUID_f7898af5_cac4_4632_a2ec_da06e5111af2
PUBLIC	??_R2TResHash@@8				; TResHash::`RTTI Base Class Array'
PUBLIC	_GUID_b5e64ffa_c2c5_444e_a301_fb5e00018050
PUBLIC	??_7TResHash@@6B@				; TResHash::`vftable'
PUBLIC	??_R0?AVTResHash@@@8				; TResHash `RTTI Type Descriptor'
PUBLIC	_GUID_fb852b2c_6bad_4605_9551_f15f87830935
PUBLIC	??_7TResHashObj@@6B@				; TResHashObj::`vftable'
PUBLIC	??_7?$THashTblT@I@@6B@				; THashTblT<unsigned int>::`vftable'
PUBLIC	??_R3TResHash@@8				; TResHash::`RTTI Class Hierarchy Descriptor'
PUBLIC	_GUID_d133ce13_3537_48ba_93a7_afcd5d2053b4
PUBLIC	??_R2TResHashObj@@8				; TResHashObj::`RTTI Base Class Array'
PUBLIC	_GUID_886d8eeb_8cf2_4446_8d02_cdba1dbdcf99
PUBLIC	??_R0?AV?$THashTblT@I@@@8			; THashTblT<unsigned int> `RTTI Type Descriptor'
PUBLIC	_GUID_e2b3c97f_6ae1_41ac_817a_f6f92166d7dd
PUBLIC	?gEventMap@Condition@@1JC			; Condition::gEventMap
PUBLIC	??_R1A@?0A@EA@TResHashObj@@8			; TResHashObj::`RTTI Base Class Descriptor at (0,-1,0,64)'
PUBLIC	_GUID_39eb36e0_2097_40bd_8af2_63a13b525362
EXTRN	__imp_SetUnhandledExceptionFilter:PROC
EXTRN	??_L@YAXPEAX_K1P6AX0@Z2@Z:PROC			; `eh vector constructor iterator'
EXTRN	__imp_GlobalUnlock:PROC
EXTRN	strrchr:PROC
EXTRN	__imp_ILCreateFromPathW:PROC
EXTRN	__imp_AdjustTokenPrivileges:PROC
EXTRN	__imp_CreateEventA:PROC
EXTRN	__imp_IsBadReadPtr:PROC
EXTRN	__imp_GetDC:PROC
EXTRN	__imp_GetTextExtentExPointW:PROC
EXTRN	strnlen:PROC
EXTRN	__imp_LoadStringA:PROC
EXTRN	__imp_EnumFontFamiliesExW:PROC
EXTRN	__imp_VariantInit:PROC
EXTRN	__imp_DeleteCriticalSection:PROC
EXTRN	IID_IEnumVARIANT:BYTE
EXTRN	PKEY_AppUserModel_ID:BYTE
EXTRN	__imp_GlobalLock:PROC
EXTRN	__imp_VirtualLock:PROC
EXTRN	__imp_CreateDIBitmap:PROC
EXTRN	??_U@YAPEAX_K@Z:PROC				; operator new[]
EXTRN	__imp_LoadStringW:PROC
EXTRN	_Init_thread_abort:PROC
EXTRN	__imp_GetLocalTime:PROC
EXTRN	__imp_SysFreeString:PROC
EXTRN	__imp_LookupPrivilegeValueA:PROC
EXTRN	__imp_IsDBCSLeadByte:PROC
EXTRN	__imp_LoadLibraryW:PROC
EXTRN	__imp_OpenClipboard:PROC
EXTRN	__imp_GlobalFree:PROC
EXTRN	wcsicmp:PROC
EXTRN	__imp_GlobalAlloc:PROC
EXTRN	__imp_GetVersionExA:PROC
EXTRN	__imp_LoadLibraryA:PROC
EXTRN	__imp_CloseClipboard:PROC
EXTRN	__imp_EmptyClipboard:PROC
EXTRN	__imp_SetEvent:PROC
EXTRN	wcsdup:PROC
EXTRN	__imp_OutputDebugStringW:PROC
EXTRN	_Init_thread_header:PROC
EXTRN	__imp_SysAllocString:PROC
EXTRN	_purecall:PROC
EXTRN	__imp_GetVersion:PROC
EXTRN	__imp_MessageBoxA:PROC
EXTRN	__imp_GetModuleHandleA:PROC
EXTRN	__imp_ILFree:PROC
EXTRN	_Init_thread_footer:PROC
EXTRN	__imp_CryptBinaryToStringA:PROC
EXTRN	__imp_SHStrDupW:PROC
EXTRN	__imp_SHOpenFolderAndSelectItems:PROC
EXTRN	__imp_WaitForSingleObject:PROC
EXTRN	__imp_OpenProcessToken:PROC
EXTRN	IID_IShellLinkW:BYTE
EXTRN	__imp_SetFilePointer:PROC
EXTRN	__imp_InitializeCriticalSection:PROC
EXTRN	__imp_LeaveCriticalSection:PROC
EXTRN	__imp_CryptStringToBinaryA:PROC
EXTRN	__imp_SetClipboardData:PROC
EXTRN	__report_gsfailure:PROC
EXTRN	toupper:PROC
EXTRN	__imp_VirtualAlloc:PROC
EXTRN	__imp_OutputDebugStringA:PROC
EXTRN	__imp_DrawTextW:PROC
EXTRN	__imp_ExpandEnvironmentStringsW:PROC
EXTRN	__imp_GetDesktopWindow:PROC
EXTRN	__imp_GetCurrentProcess:PROC
EXTRN	IID_INetFwRule:BYTE
EXTRN	_Init_thread_epoch:DWORD
EXTRN	__imp_VirtualFree:PROC
EXTRN	__imp_EnterCriticalSection:PROC
EXTRN	calloc:PROC
EXTRN	__imp_VirtualProtect:PROC
EXTRN	__imp_GetSystemDefaultLCID:PROC
EXTRN	__imp_PropVariantClear:PROC
EXTRN	__imp_SHChangeNotify:PROC
EXTRN	__imp_SetThreadLocale:PROC
EXTRN	__raise_securityfailure:PROC
EXTRN	__imp_GetObjectA:PROC
EXTRN	__imp_VariantClear:PROC
EXTRN	__imp_ReleaseDC:PROC
EXTRN	wcsnlen:PROC
?defaultStrInstance@@3PEAUHINSTANCE__@@EA DQ 01H DUP (?) ; defaultStrInstance
_BSS	ENDS
;	COMDAT ?ret@?1??TIsWow64@@YAHXZ@4HA
_BSS	SEGMENT
?ret@?1??TIsWow64@@YAHXZ@4HA DD 01H DUP (?)		; `TIsWow64'::`2'::ret
_BSS	ENDS
;	COMDAT ?once@?1??TSwitchToThisWindow@@YAXPEAUHWND__@@H@Z@4HA
_BSS	SEGMENT
?once@?1??TSwitchToThisWindow@@YAXPEAUHWND__@@H@Z@4HA DD 01H DUP (?) ; `TSwitchToThisWindow'::`2'::once
_BSS	ENDS
;	COMDAT ?once@?1??TIsWow64@@YAHXZ@4HA
_BSS	SEGMENT
?once@?1??TIsWow64@@YAHXZ@4HA DD 01H DUP (?)		; `TIsWow64'::`2'::once
?gEventMap@Condition@@1JC DD 01H DUP (?)		; Condition::gEventMap
_BSS	ENDS
;	COMDAT ?once@?1??TSetThreadLocale@@YAHH@Z@4HA
_BSS	SEGMENT
?once@?1??TSetThreadLocale@@YAHH@Z@4HA DD 01H DUP (?)	; `TSetThreadLocale'::`2'::once
_BSS	ENDS
;	COMDAT _GUID_39eb36e0_2097_40bd_8af2_63a13b525362
CONST	SEGMENT
_GUID_39eb36e0_2097_40bd_8af2_63a13b525362 DD 039eb36e0H
	DW	02097H
	DW	040bdH
	DB	08aH
	DB	0f2H
	DB	063H
	DB	0a1H
	DB	03bH
	DB	052H
	DB	053H
	DB	062H
CONST	ENDS
;	COMDAT ??_R1A@?0A@EA@TResHashObj@@8
rdata$r	SEGMENT
??_R1A@?0A@EA@TResHashObj@@8 DD imagerel ??_R0?AUTResHashObj@@@8 ; TResHashObj::`RTTI Base Class Descriptor at (0,-1,0,64)'
	DD	01H
	DD	00H
	DD	0ffffffffH
	DD	00H
	DD	040H
	DD	imagerel ??_R3TResHashObj@@8
rdata$r	ENDS
;	COMDAT _GUID_e2b3c97f_6ae1_41ac_817a_f6f92166d7dd
CONST	SEGMENT
_GUID_e2b3c97f_6ae1_41ac_817a_f6f92166d7dd DD 0e2b3c97fH
	DW	06ae1H
	DW	041acH
	DB	081H
	DB	07aH
	DB	0f6H
	DB	0f9H
	DB	021H
	DB	066H
	DB	0d7H
	DB	0ddH
CONST	ENDS
;	COMDAT ??_R0?AV?$THashTblT@I@@@8
data$r	SEGMENT
??_R0?AV?$THashTblT@I@@@8 DQ FLAT:??_7type_info@@6B@	; THashTblT<unsigned int> `RTTI Type Descriptor'
	DQ	0000000000000000H
	DB	'.?AV?$THashTblT@I@@', 00H
data$r	ENDS
;	COMDAT _GUID_886d8eeb_8cf2_4446_8d02_cdba1dbdcf99
CONST	SEGMENT
_GUID_886d8eeb_8cf2_4446_8d02_cdba1dbdcf99 DD 0886d8eebH
	DW	08cf2H
	DW	04446H
	DB	08dH
	DB	02H
	DB	0cdH
	DB	0baH
	DB	01dH
	DB	0bdH
	DB	0cfH
	DB	099H
CONST	ENDS
;	COMDAT ??_R2TResHashObj@@8
rdata$r	SEGMENT
??_R2TResHashObj@@8 DD imagerel ??_R1A@?0A@EA@TResHashObj@@8 ; TResHashObj::`RTTI Base Class Array'
	DD	imagerel ??_R1A@?0A@EA@?$THashObjT@I@@8
	ORG $+3
rdata$r	ENDS
;	COMDAT _GUID_d133ce13_3537_48ba_93a7_afcd5d2053b4
CONST	SEGMENT
_GUID_d133ce13_3537_48ba_93a7_afcd5d2053b4 DD 0d133ce13H
	DW	03537H
	DW	048baH
	DB	093H
	DB	0a7H
	DB	0afH
	DB	0cdH
	DB	05dH
	DB	020H
	DB	053H
	DB	0b4H
CONST	ENDS
;	COMDAT ??_R3TResHash@@8
rdata$r	SEGMENT
??_R3TResHash@@8 DD 00H					; TResHash::`RTTI Class Hierarchy Descriptor'
	DD	00H
	DD	02H
	DD	imagerel ??_R2TResHash@@8
rdata$r	ENDS
;	COMDAT ??_7?$THashTblT@I@@6B@
CONST	SEGMENT
??_7?$THashTblT@I@@6B@ DQ FLAT:??_R4?$THashTblT@I@@6B@	; THashTblT<unsigned int>::`vftable'
	DQ	FLAT:_purecall
	DQ	FLAT:??_E?$THashTblT@I@@UEAAPEAXI@Z
	DQ	FLAT:?Init@?$THashTblT@I@@UEAAHH@Z
	DQ	FLAT:?UnInit@?$THashTblT@I@@UEAAXXZ
	DQ	FLAT:?Register@?$THashTblT@I@@UEAAXPEAV?$THashObjT@I@@I@Z
	DQ	FLAT:?UnRegister@?$THashTblT@I@@UEAAXPEAV?$THashObjT@I@@@Z
	DQ	FLAT:?Search@?$THashTblT@I@@UEAAPEAV?$THashObjT@I@@PEBXI@Z
	DQ	FLAT:?GetRegisterNum@?$THashTblT@I@@UEAAHXZ
CONST	ENDS
;	COMDAT ??_7TResHashObj@@6B@
CONST	SEGMENT
??_7TResHashObj@@6B@ DQ FLAT:??_R4TResHashObj@@6B@	; TResHashObj::`vftable'
	DQ	FLAT:??_ETResHashObj@@UEAAPEAXI@Z
	DQ	FLAT:?LinkHash@?$THashObjT@I@@UEAAHPEAV1@@Z
	DQ	FLAT:?UnlinkHash@?$THashObjT@I@@UEAAHXZ
CONST	ENDS
;	COMDAT _GUID_fb852b2c_6bad_4605_9551_f15f87830935
CONST	SEGMENT
_GUID_fb852b2c_6bad_4605_9551_f15f87830935 DD 0fb852b2cH
	DW	06badH
	DW	04605H
	DB	095H
	DB	051H
	DB	0f1H
	DB	05fH
	DB	087H
	DB	083H
	DB	09H
	DB	035H
CONST	ENDS
;	COMDAT ??_R0?AVTResHash@@@8
data$r	SEGMENT
??_R0?AVTResHash@@@8 DQ FLAT:??_7type_info@@6B@		; TResHash `RTTI Type Descriptor'
	DQ	0000000000000000H
	DB	'.?AVTResHash@@', 00H
data$r	ENDS
;	COMDAT ??_7TResHash@@6B@
CONST	SEGMENT
??_7TResHash@@6B@ DQ FLAT:??_R4TResHash@@6B@		; TResHash::`vftable'
	DQ	FLAT:?IsSameVal@TResHash@@MEAAHPEAV?$THashObjT@I@@PEBX@Z
	DQ	FLAT:??_ETResHash@@UEAAPEAXI@Z
	DQ	FLAT:?Init@?$THashTblT@I@@UEAAHH@Z
	DQ	FLAT:?UnInit@?$THashTblT@I@@UEAAXXZ
	DQ	FLAT:?Register@?$THashTblT@I@@UEAAXPEAV?$THashObjT@I@@I@Z
	DQ	FLAT:?UnRegister@?$THashTblT@I@@UEAAXPEAV?$THashObjT@I@@@Z
	DQ	FLAT:?Search@?$THashTblT@I@@UEAAPEAV?$THashObjT@I@@PEBXI@Z
	DQ	FLAT:?GetRegisterNum@?$THashTblT@I@@UEAAHXZ
CONST	ENDS
;	COMDAT _GUID_b5e64ffa_c2c5_444e_a301_fb5e00018050
CONST	SEGMENT
_GUID_b5e64ffa_c2c5_444e_a301_fb5e00018050 DD 0b5e64ffaH
	DW	0c2c5H
	DW	0444eH
	DB	0a3H
	DB	01H
	DB	0fbH
	DB	05eH
	DB	00H
	DB	01H
	DB	080H
	DB	050H
CONST	ENDS
;	COMDAT ??_R2TResHash@@8
rdata$r	SEGMENT
??_R2TResHash@@8 DD imagerel ??_R1A@?0A@EA@TResHash@@8	; TResHash::`RTTI Base Class Array'
	DD	imagerel ??_R1A@?0A@EA@?$THashTblT@I@@8
	ORG $+3
rdata$r	ENDS
;	COMDAT _GUID_f7898af5_cac4_4632_a2ec_da06e5111af2
CONST	SEGMENT
_GUID_f7898af5_cac4_4632_a2ec_da06e5111af2 DD 0f7898af5H
	DW	0cac4H
	DW	04632H
	DB	0a2H
	DB	0ecH
	DB	0daH
	DB	06H
	DB	0e5H
	DB	011H
	DB	01aH
	DB	0f2H
CONST	ENDS
;	COMDAT ??_R0?AUTResHashObj@@@8
data$r	SEGMENT
??_R0?AUTResHashObj@@@8 DQ FLAT:??_7type_info@@6B@	; TResHashObj `RTTI Type Descriptor'
	DQ	0000000000000000H
	DB	'.?AUTResHashObj@@', 00H
data$r	ENDS
;	COMDAT ??_R2?$THashTblT@I@@8
rdata$r	SEGMENT
??_R2?$THashTblT@I@@8 DD imagerel ??_R1A@?0A@EA@?$THashTblT@I@@8 ; THashTblT<unsigned int>::`RTTI Base Class Array'
	ORG $+3
rdata$r	ENDS
;	COMDAT ??_R1A@?0A@EA@TResHash@@8
rdata$r	SEGMENT
??_R1A@?0A@EA@TResHash@@8 DD imagerel ??_R0?AVTResHash@@@8 ; TResHash::`RTTI Base Class Descriptor at (0,-1,0,64)'
	DD	01H
	DD	00H
	DD	0ffffffffH
	DD	00H
	DD	040H
	DD	imagerel ??_R3TResHash@@8
rdata$r	ENDS
;	COMDAT ??_R3TResHashObj@@8
rdata$r	SEGMENT
??_R3TResHashObj@@8 DD 00H				; TResHashObj::`RTTI Class Hierarchy Descriptor'
	DD	00H
	DD	02H
	DD	imagerel ??_R2TResHashObj@@8
rdata$r	ENDS
;	COMDAT ??_R4TResHash@@6B@
rdata$r	SEGMENT
??_R4TResHash@@6B@ DD 01H				; TResHash::`RTTI Complete Object Locator'
	DD	00H
	DD	00H
	DD	imagerel ??_R0?AVTResHash@@@8
	DD	imagerel ??_R3TResHash@@8
	DD	imagerel ??_R4TResHash@@6B@
rdata$r	ENDS
;	COMDAT _GUID_cc19079b_8272_4d73_bb70_cdb533527b61
CONST	SEGMENT
_GUID_cc19079b_8272_4d73_bb70_cdb533527b61 DD 0cc19079bH
	DW	08272H
	DW	04d73H
	DB	0bbH
	DB	070H
	DB	0cdH
	DB	0b5H
	DB	033H
	DB	052H
	DB	07bH
	DB	061H
CONST	ENDS
;	COMDAT ??_R1A@?0A@EA@?$THashTblT@I@@8
rdata$r	SEGMENT
??_R1A@?0A@EA@?$THashTblT@I@@8 DD imagerel ??_R0?AV?$THashTblT@I@@@8 ; THashTblT<unsigned int>::`RTTI Base Class Descriptor at (0,-1,0,64)'
	DD	00H
	DD	00H
	DD	0ffffffffH
	DD	00H
	DD	040H
	DD	imagerel ??_R3?$THashTblT@I@@8
rdata$r	ENDS
;	COMDAT ??_R4?$THashTblT@I@@6B@
rdata$r	SEGMENT
??_R4?$THashTblT@I@@6B@ DD 01H				; THashTblT<unsigned int>::`RTTI Complete Object Locator'
	DD	00H
	DD	00H
	DD	imagerel ??_R0?AV?$THashTblT@I@@@8
	DD	imagerel ??_R3?$THashTblT@I@@8
	DD	imagerel ??_R4?$THashTblT@I@@6B@
rdata$r	ENDS
;	COMDAT _GUID_ec9846b3_2762_4a6b_a214_6acb603462d2
CONST	SEGMENT
_GUID_ec9846b3_2762_4a6b_a214_6acb603462d2 DD 0ec9846b3H
	DW	02762H
	DW	04a6bH
	DB	0a2H
	DB	014H
	DB	06aH
	DB	0cbH
	DB	060H
	DB	034H
	DB	062H
	DB	0d2H
CONST	ENDS
;	COMDAT _GUID_304ce942_6e39_40d8_943a_b913c40c9cd4
CONST	SEGMENT
_GUID_304ce942_6e39_40d8_943a_b913c40c9cd4 DD 0304ce942H
	DW	06e39H
	DW	040d8H
	DB	094H
	DB	03aH
	DB	0b9H
	DB	013H
	DB	0c4H
	DB	0cH
	DB	09cH
	DB	0d4H
CONST	ENDS
;	COMDAT ??_R3?$THashTblT@I@@8
rdata$r	SEGMENT
??_R3?$THashTblT@I@@8 DD 00H				; THashTblT<unsigned int>::`RTTI Class Hierarchy Descriptor'
	DD	00H
	DD	01H
	DD	imagerel ??_R2?$THashTblT@I@@8
rdata$r	ENDS
;	COMDAT _GUID_98325047_c671_4174_8d81_defcd3f03186
CONST	SEGMENT
_GUID_98325047_c671_4174_8d81_defcd3f03186 DD 098325047H
	DW	0c671H
	DW	04174H
	DB	08dH
	DB	081H
	DB	0deH
	DB	0fcH
	DB	0d3H
	DB	0f0H
	DB	031H
	DB	086H
CONST	ENDS
;	COMDAT ??_R4TResHashObj@@6B@
rdata$r	SEGMENT
??_R4TResHashObj@@6B@ DD 01H				; TResHashObj::`RTTI Complete Object Locator'
	DD	00H
	DD	00H
	DD	imagerel ??_R0?AUTResHashObj@@@8
	DD	imagerel ??_R3TResHashObj@@8
	DD	imagerel ??_R4TResHashObj@@6B@
rdata$r	ENDS
;	COMDAT ??_C@_02MEOGFIDO@?k?$BD?$AA@
CONST	SEGMENT
??_C@_02MEOGFIDO@?k?$BD?$AA@ DB 0ebH, 013H, 00H		; `string'
CONST	ENDS
;	COMDAT ??_C@_06HACJLEKA@?$JA?$JA?$JA?$JA?$JA?$JA?$AA@
CONST	SEGMENT
??_C@_06HACJLEKA@?$JA?$JA?$JA?$JA?$JA?$JA?$AA@ DB 090H, 090H, 090H, 090H, 090H
	DB	090H, 00H					; `string'
CONST	ENDS
;	COMDAT ??_C@_07LOANPHMB@shell32?$AA@
CONST	SEGMENT
??_C@_07LOANPHMB@shell32?$AA@ DB 'shell32', 00H		; `string'
CONST	ENDS
;	COMDAT ??_C@_0BM@GLFHELBJ@SHGetPropertyStoreForWindow?$AA@
CONST	SEGMENT
??_C@_0BM@GLFHELBJ@SHGetPropertyStoreForWindow?$AA@ DB 'SHGetPropertyStor'
	DB	'eForWindow', 00H				; `string'
CONST	ENDS
;	COMDAT ??_C@_09FJINEKLL@HtmlHelpW?$AA@
CONST	SEGMENT
??_C@_09FJINEKLL@HtmlHelpW?$AA@ DB 'HtmlHelpW', 00H	; `string'
CONST	ENDS
;	COMDAT ??_C@_0L@EFKJKBHF@hhctrl?4ocx?$AA@
CONST	SEGMENT
??_C@_0L@EFKJKBHF@hhctrl?4ocx?$AA@ DB 'hhctrl.ocx', 00H	; `string'
CONST	ENDS
;	COMDAT ??_C@_0BD@DGOJMNDA@SwitchToThisWindow?$AA@
CONST	SEGMENT
??_C@_0BD@DGOJMNDA@SwitchToThisWindow?$AA@ DB 'SwitchToThisWindow', 00H ; `string'
CONST	ENDS
;	COMDAT ??_C@_06KMMDPPA@user32?$AA@
CONST	SEGMENT
??_C@_06KMMDPPA@user32?$AA@ DB 'user32', 00H		; `string'
CONST	ENDS
;	COMDAT ??_C@_0BK@MCKCJCIG@ChangeWindowMessageFilter?$AA@
CONST	SEGMENT
??_C@_0BK@MCKCJCIG@ChangeWindowMessageFilter?$AA@ DB 'ChangeWindowMessage'
	DB	'Filter', 00H				; `string'
CONST	ENDS
;	COMDAT ??_C@_0BE@FGMANJOG@SetThreadUILanguage?$AA@
CONST	SEGMENT
??_C@_0BE@FGMANJOG@SetThreadUILanguage?$AA@ DB 'SetThreadUILanguage', 00H ; `string'
CONST	ENDS
;	COMDAT ??_C@_1CA@INKEKHJP@?$AA?2?$AAV?$AAi?$AAr?$AAt?$AAu?$AAa?$AAl?$AAS?$AAt?$AAo?$AAr?$AAe?$AA?$CF?$AAs?$AA?$AA@
CONST	SEGMENT
??_C@_1CA@INKEKHJP@?$AA?2?$AAV?$AAi?$AAr?$AAt?$AAu?$AAa?$AAl?$AAS?$AAt?$AAo?$AAr?$AAe?$AA?$CF?$AAs?$AA?$AA@ DB '\'
	DB	00H, 'V', 00H, 'i', 00H, 'r', 00H, 't', 00H, 'u', 00H, 'a', 00H
	DB	'l', 00H, 'S', 00H, 't', 00H, 'o', 00H, 'r', 00H, 'e', 00H, '%'
	DB	00H, 's', 00H, 00H, 00H			; `string'
CONST	ENDS
;	COMDAT ??_C@_09IMBMLODE@EnableLUA?$AA@
CONST	SEGMENT
??_C@_09IMBMLODE@EnableLUA?$AA@ DB 'EnableLUA', 00H	; `string'
CONST	ENDS
;	COMDAT ??_C@_0DK@CJDIKJOC@SOFTWARE?2Microsoft?2Windows?2Curre@
CONST	SEGMENT
??_C@_0DK@CJDIKJOC@SOFTWARE?2Microsoft?2Windows?2Curre@ DB 'SOFTWARE\Micr'
	DB	'osoft\Windows\CurrentVersion\Policies\System', 00H ; `string'
CONST	ENDS
;	COMDAT ??_C@_0BO@KOCOEJCM@Wow64RevertWow64FsRedirection?$AA@
CONST	SEGMENT
??_C@_0BO@KOCOEJCM@Wow64RevertWow64FsRedirection?$AA@ DB 'Wow64RevertWow6'
	DB	'4FsRedirection', 00H			; `string'
CONST	ENDS
;	COMDAT ??_C@_0BP@OODKCJPP@Wow64DisableWow64FsRedirection?$AA@
CONST	SEGMENT
??_C@_0BP@OODKCJPP@Wow64DisableWow64FsRedirection?$AA@ DB 'Wow64DisableWo'
	DB	'w64FsRedirection', 00H			; `string'
CONST	ENDS
;	COMDAT ??_C@_0BH@MJKGPAOP@RegEnableReflectionKey?$AA@
CONST	SEGMENT
??_C@_0BH@MJKGPAOP@RegEnableReflectionKey?$AA@ DB 'RegEnableReflectionKey'
	DB	00H						; `string'
CONST	ENDS
;	COMDAT ??_C@_08DOPOLOOH@advapi32?$AA@
CONST	SEGMENT
??_C@_08DOPOLOOH@advapi32?$AA@ DB 'advapi32', 00H	; `string'
CONST	ENDS
;	COMDAT ??_C@_0BI@MCEAONBI@RegDisableReflectionKey?$AA@
CONST	SEGMENT
??_C@_0BI@MCEAONBI@RegDisableReflectionKey?$AA@ DB 'RegDisableReflectionK'
	DB	'ey', 00H					; `string'
CONST	ENDS
;	COMDAT ??_C@_08PNLNEKOB@kernel32?$AA@
CONST	SEGMENT
??_C@_08PNLNEKOB@kernel32?$AA@ DB 'kernel32', 00H	; `string'
CONST	ENDS
;	COMDAT ??_C@_0P@LKABJJMO@IsWow64Process?$AA@
CONST	SEGMENT
??_C@_0P@LKABJJMO@IsWow64Process?$AA@ DB 'IsWow64Process', 00H ; `string'
CONST	ENDS
;	COMDAT ??_C@_0BO@FMEMLCCA@?$CF02x?1?$CF02x?1?$CF02x?1?$CF02x?1?$CF02x?1?$CF02x?$AA@
CONST	SEGMENT
??_C@_0BO@FMEMLCCA@?$CF02x?1?$CF02x?1?$CF02x?1?$CF02x?1?$CF02x?1?$CF02x?$AA@ DB '%'
	DB	'02x/%02x/%02x/%02x/%02x/%02x', 00H		; `string'
CONST	ENDS
;	COMDAT ??_C@_0L@IGBOJMIH@?1select?0?$CFs?$AA@
CONST	SEGMENT
??_C@_0L@IGBOJMIH@?1select?0?$CFs?$AA@ DB '/select,%s', 00H ; `string'
CONST	ENDS
;	COMDAT ??_C@_0P@NJGPEHMM@_exception?4log?$AA@
CONST	SEGMENT
??_C@_0P@NJGPEHMM@_exception?4log?$AA@ DB '_exception.log', 00H ; `string'
CONST	ENDS
;	COMDAT ??_C@_08GKKICAKB@explorer?$AA@
CONST	SEGMENT
??_C@_08GKKICAKB@explorer?$AA@ DB 'explorer', 00H	; `string'
CONST	ENDS
;	COMDAT ??_C@_0BN@ODLBAGLK@?9?9?9?9?9?9?9?9?9?9?9?9?9?9?9?9?9?9?9?9?9?9?9?9?$AN?6?$AN?6?$AA@
CONST	SEGMENT
??_C@_0BN@ODLBAGLK@?9?9?9?9?9?9?9?9?9?9?9?9?9?9?9?9?9?9?9?9?9?9?9?9?$AN?6?$AN?6?$AA@ DB '-'
	DB	'-----------------------', 0dH, 0aH, 0dH, 0aH, 00H ; `string'
CONST	ENDS
;	COMDAT ??_C@_0BL@BMCMDBEN@?9?9?9?9?5trace?5log?5info?5?9?9?9?9?$AN?6?$AA@
CONST	SEGMENT
??_C@_0BL@BMCMDBEN@?9?9?9?9?5trace?5log?5info?5?9?9?9?9?$AN?6?$AA@ DB '--'
	DB	'-- trace log info ----', 0dH, 0aH, 00H	; `string'
CONST	ENDS
;	COMDAT ??_C@_03NHIGGOJD@Rip?$AA@
CONST	SEGMENT
??_C@_03NHIGGOJD@Rip?$AA@ DB 'Rip', 00H			; `string'
CONST	ENDS
;	COMDAT ??_C@_03DICHKKNL@R15?$AA@
CONST	SEGMENT
??_C@_03DICHKKNL@R15?$AA@ DB 'R15', 00H			; `string'
CONST	ENDS
;	COMDAT ??_C@_03CBDMJLJK@R14?$AA@
CONST	SEGMENT
??_C@_03CBDMJLJK@R14?$AA@ DB 'R14', 00H			; `string'
CONST	ENDS
;	COMDAT ??_C@_03GOHNANFN@R13?$AA@
CONST	SEGMENT
??_C@_03GOHNANFN@R13?$AA@ DB 'R13', 00H			; `string'
CONST	ENDS
;	COMDAT ??_C@_03HHGGDMBM@R12?$AA@
CONST	SEGMENT
??_C@_03HHGGDMBM@R12?$AA@ DB 'R12', 00H			; `string'
CONST	ENDS
;	COMDAT ??_C@_03FMELGPNP@R11?$AA@
CONST	SEGMENT
??_C@_03FMELGPNP@R11?$AA@ DB 'R11', 00H			; `string'
CONST	ENDS
;	COMDAT ??_C@_03EFFAFOJO@R10?$AA@
CONST	SEGMENT
??_C@_03EFFAFOJO@R10?$AA@ DB 'R10', 00H			; `string'
CONST	ENDS
;	COMDAT ??_C@_03BIBBNHH@R9?5?$AA@
CONST	SEGMENT
??_C@_03BIBBNHH@R9?5?$AA@ DB 'R9 ', 00H			; `string'
CONST	ENDS
;	COMDAT ??_C@_03EDHHEA@R8?5?$AA@
CONST	SEGMENT
??_C@_03EDHHEA@R8?5?$AA@ DB 'R8 ', 00H			; `string'
CONST	ENDS
;	COMDAT ??_C@_03MGDHEIDF@Rsp?$AA@
CONST	SEGMENT
??_C@_03MGDHEIDF@Rsp?$AA@ DB 'Rsp', 00H			; `string'
CONST	ENDS
;	COMDAT ??_C@_03NLNDIBHC@Rbp?$AA@
CONST	SEGMENT
??_C@_03NLNDIBHC@Rbp?$AA@ DB 'Rbp', 00H			; `string'
CONST	ENDS
;	COMDAT ??_C@_03EEFOFENI@Rdi?$AA@
CONST	SEGMENT
??_C@_03EEFOFENI@Rdi?$AA@ DB 'Rdi', 00H			; `string'
CONST	ENDS
;	COMDAT ??_C@_03FNDHOBCN@Rsi?$AA@
CONST	SEGMENT
??_C@_03FNDHOBCN@Rsi?$AA@ DB 'Rsi', 00H			; `string'
CONST	ENDS
;	COMDAT ??_C@_03BHIHHHMI@Rdx?$AA@
CONST	SEGMENT
??_C@_03BHIHHHMI@Rdx?$AA@ DB 'Rdx', 00H			; `string'
CONST	ENDS
;	COMDAT ??_C@_03BCMIGBEN@Rcx?$AA@
CONST	SEGMENT
??_C@_03BCMIGBEN@Rcx?$AA@ DB 'Rcx', 00H			; `string'
CONST	ENDS
;	COMDAT ??_C@_03BDAKALHK@Rbx?$AA@
CONST	SEGMENT
??_C@_03BDAKALHK@Rbx?$AA@ DB 'Rbx', 00H			; `string'
CONST	ENDS
;	COMDAT ??_C@_03BBEMLFCD@Rax?$AA@
CONST	SEGMENT
??_C@_03BBEMLFCD@Rax?$AA@ DB 'Rax', 00H			; `string'
CONST	ENDS
;	COMDAT ??_C@_0BL@KOEPHMLK@?9?9?9?9?5reg?5point?5info?5?9?9?9?9?$AN?6?$AA@
CONST	SEGMENT
??_C@_0BL@KOEPHMLK@?9?9?9?9?5reg?5point?5info?5?9?9?9?9?$AN?6?$AA@ DB '--'
	DB	'-- reg point info ----', 0dH, 0aH, 00H	; `string'
CONST	ENDS
;	COMDAT ??_C@_0BL@FDCOBIGB@?9?9?9?9?9?9?9?5stack?5info?5?9?9?9?9?9?$AN?6?$AA@
CONST	SEGMENT
??_C@_0BL@FDCOBIGB@?9?9?9?9?9?9?9?5stack?5info?5?9?9?9?9?9?$AN?6?$AA@ DB '-'
	DB	'------ stack info -----', 0dH, 0aH, 00H	; `string'
CONST	ENDS
;	COMDAT ??_C@_04GBFHKGDE@?$CFp?$CFs?$AA@
CONST	SEGMENT
??_C@_04GBFHKGDE@?$CFp?$CFs?$AA@ DB '%p%s', 00H		; `string'
CONST	ENDS
;	COMDAT ??_C@_01CLKCMJKC@?5?$AA@
CONST	SEGMENT
??_C@_01CLKCMJKC@?5?$AA@ DB ' ', 00H			; `string'
CONST	ENDS
;	COMDAT ??_C@_0OG@DMEEOACO@?5Code?1Adr?1DC?5?3?5?$CFX?5?1?5?$CFp?5?1?5?$CFp?$AN?6?5AX@
CONST	SEGMENT
??_C@_0OG@DMEEOACO@?5Code?1Adr?1DC?5?3?5?$CFX?5?1?5?$CFp?5?1?5?$CFp?$AN?6?5AX@ DB ' '
	DB	'Code/Adr/DC : %X / %p / %p', 0dH, 0aH, ' AX/BX/CX/DX : %p / %'
	DB	'p / %p / %p', 0dH, 0aH, ' SI/DI/BP/SP : %p / %p / %p / %p', 0dH
	DB	0aH, ' 08/09/10/11 : %p / %p / %p / %p', 0dH, 0aH, ' 12/13/14/'
	DB	'15 : %p / %p / %p / %p', 0dH, 0aH, ' BT/BF/ET/EF : %p / %p / '
	DB	'%p / %p', 0dH, 0aH, '------- pre stack info -----', 0dH, 0aH, 00H ; `string'
CONST	ENDS
;	COMDAT ??_C@_0IF@BFDDCMMG@?9?9?9?9?9?9?5?$CF?4100s?5?9?9?9?9?9?$AN?6?5Date?5?5?5?5?5?5@
CONST	SEGMENT
??_C@_0IF@BFDDCMMG@?9?9?9?9?9?9?5?$CF?4100s?5?9?9?9?9?9?$AN?6?5Date?5?5?5?5?5?5@ DB '-'
	DB	'----- %.100s -----', 0dH, 0aH, ' Date        : %d/%02d/%02d %'
	DB	'02d:%02d:%02d', 0dH, 0aH, ' Start       : %d/%02d/%02d %02d:%'
	DB	'02d:%02d', 0dH, 0aH, ' OS Infos    : %.100s', 0dH, 0aH, 00H ; `string'
CONST	ENDS
;	COMDAT ??_C@_03NDEAONJP@?5?5?5?$AA@
CONST	SEGMENT
??_C@_03NDEAONJP@?5?5?5?$AA@ DB '   ', 00H		; `string'
CONST	ENDS
;	COMDAT ??_C@_02PCIJFNDE@?$AN?6?$AA@
CONST	SEGMENT
??_C@_02PCIJFNDE@?$AN?6?$AA@ DB 0dH, 0aH, 00H		; `string'
CONST	ENDS
;	COMDAT ??_C@_09FAALLACF@?5?4?4?4?4?4?4?4?4?$AA@
CONST	SEGMENT
??_C@_09FAALLACF@?5?4?4?4?4?4?4?4?4?$AA@ DB ' ........', 00H ; `string'
CONST	ENDS
;	COMDAT ??_C@_0BC@NAGFGCOE@?5?$CF02x?$CF02x?$CF02x?$CF02x?$AA@
CONST	SEGMENT
??_C@_0BC@NAGFGCOE@?5?$CF02x?$CF02x?$CF02x?$CF02x?$AA@ DB ' %02x%02x%02x%'
	DB	'02x', 00H					; `string'
CONST	ENDS
;	COMDAT ??_C@_04EBNJJJJI@?$CF?4?$CKs?$AA@
CONST	SEGMENT
??_C@_04EBNJJJJI@?$CF?4?$CKs?$AA@ DB '%.*s', 00H	; `string'
CONST	ENDS
;	COMDAT ??_C@_03JKKBDOOC@?$DN?$DN?$DN?$AA@
CONST	SEGMENT
??_C@_03JKKBDOOC@?$DN?$DN?$DN?$AA@ DB '===', 00H	; `string'
CONST	ENDS
;	COMDAT ??_C@_1CC@FLKNJKKC@?$AA0?$AA1?$AA2?$AA3?$AA4?$AA5?$AA6?$AA7?$AA8?$AA9?$AAa?$AAb?$AAc?$AAd?$AAe?$AAf?$AA?$AA@
CONST	SEGMENT
??_C@_1CC@FLKNJKKC@?$AA0?$AA1?$AA2?$AA3?$AA4?$AA5?$AA6?$AA7?$AA8?$AA9?$AAa?$AAb?$AAc?$AAd?$AAe?$AAf?$AA?$AA@ DB '0'
	DB	00H, '1', 00H, '2', 00H, '3', 00H, '4', 00H, '5', 00H, '6', 00H
	DB	'7', 00H, '8', 00H, '9', 00H, 'a', 00H, 'b', 00H, 'c', 00H, 'd'
	DB	00H, 'e', 00H, 'f', 00H, 00H, 00H		; `string'
CONST	ENDS
;	COMDAT ??_C@_0BB@JCEFLFJE@0123456789abcdef?$AA@
CONST	SEGMENT
??_C@_0BB@JCEFLFJE@0123456789abcdef?$AA@ DB '0123456789abcdef', 00H ; `string'
CONST	ENDS
;	COMDAT ??_C@_1O@JBBHAGJJ@?$AA?$CF?$AAs?$AA?$CF?$AAs?$AA?$CF?$AAs?$AA?$AA@
CONST	SEGMENT
??_C@_1O@JBBHAGJJ@?$AA?$CF?$AAs?$AA?$CF?$AAs?$AA?$CF?$AAs?$AA?$AA@ DB '%', 00H
	DB	's', 00H, '%', 00H, 's', 00H, '%', 00H, 's', 00H, 00H, 00H ; `string'
CONST	ENDS
;	COMDAT ??_C@_13FPGAJAPJ@?$AA?2?$AA?$AA@
CONST	SEGMENT
??_C@_13FPGAJAPJ@?$AA?2?$AA?$AA@ DB '\', 00H, 00H, 00H	; `string'
CONST	ENDS
;	COMDAT ??_C@_15GANGMFKL@?$AA?$CF?$AAs?$AA?$AA@
CONST	SEGMENT
??_C@_15GANGMFKL@?$AA?$CF?$AAs?$AA?$AA@ DB '%', 00H, 's', 00H, 00H, 00H ; `string'
CONST	ENDS
;	COMDAT ??_C@_06DIJPEION@?$CFs?$CFs?$CFs?$AA@
CONST	SEGMENT
??_C@_06DIJPEION@?$CFs?$CFs?$CFs?$AA@ DB '%s%s%s', 00H	; `string'
CONST	ENDS
;	COMDAT ??_C@_01KICIPPFI@?2?$AA@
CONST	SEGMENT
??_C@_01KICIPPFI@?2?$AA@ DB '\', 00H			; `string'
CONST	ENDS
;	COMDAT ??_C@_0BN@BINKLCDN@Detect?5too?5many?5wait?5threads?$AA@
CONST	SEGMENT
??_C@_0BN@BINKLCDN@Detect?5too?5many?5wait?5threads?$AA@ DB 'Detect too m'
	DB	'any wait threads', 00H			; `string'
CONST	ENDS
;	COMDAT ??_C@_04DFEBHPOG@TLib?$AA@
CONST	SEGMENT
??_C@_04DFEBHPOG@TLib?$AA@ DB 'TLib', 00H		; `string'
CONST	ENDS
;	COMDAT ??_C@_0DK@OLCJDIPE@?$EA?$CI?$CD?$CJCopyright?5?$CIC?$CJ?51996?92016?5H?4Sh@
CONST	SEGMENT
??_C@_0DK@OLCJDIPE@?$EA?$CI?$CD?$CJCopyright?5?$CIC?$CJ?51996?92016?5H?4Sh@ DB '@'
	DB	'(#)Copyright (C) 1996-2016 H.Shirouzu', 09H, 09H, 'tmisc.cpp', 09H
	DB	'Ver0.99', 00H				; `string'
?TrayNotifyId@@3U_GUID@@B DD 025dead04H			; TrayNotifyId
	DW	01eacH
	DW	04911H
	DB	09eH
	DB	03aH
	DB	0adH
	DB	0aH
	DB	04aH
	DB	0b5H
	DB	060H
	DB	0fdH
PUBLIC	??$__vcrt_va_start_verify_argument_type@PEBD@@YAXXZ ; __vcrt_va_start_verify_argument_type<char const * __ptr64>
PUBLIC	??_G?$THashTblT@I@@UEAAPEAXI@Z			; THashTblT<unsigned int>::`scalar deleting destructor'
PUBLIC	??0?$THashObjT@I@@QEAA@XZ			; THashObjT<unsigned int>::THashObjT<unsigned int>
PUBLIC	??0?$THashTblT@I@@QEAA@HH@Z			; THashTblT<unsigned int>::THashTblT<unsigned int>
PUBLIC	??1?$THashTblT@I@@UEAA@XZ			; THashTblT<unsigned int>::~THashTblT<unsigned int>
PUBLIC	?Init@?$THashTblT@I@@UEAAHH@Z			; THashTblT<unsigned int>::Init
PUBLIC	?UnInit@?$THashTblT@I@@UEAAXXZ			; THashTblT<unsigned int>::UnInit
PUBLIC	?Register@?$THashTblT@I@@UEAAXPEAV?$THashObjT@I@@I@Z ; THashTblT<unsigned int>::Register
PUBLIC	?UnRegister@?$THashTblT@I@@UEAAXPEAV?$THashObjT@I@@@Z ; THashTblT<unsigned int>::UnRegister
PUBLIC	?Search@?$THashTblT@I@@UEAAPEAV?$THashObjT@I@@PEBXI@Z ; THashTblT<unsigned int>::Search
PUBLIC	?GetRegisterNum@?$THashTblT@I@@UEAAHXZ		; THashTblT<unsigned int>::GetRegisterNum
PUBLIC	?GetParentDirW@@YAHPEB_WPEA_W@Z			; GetParentDirW
PUBLIC	?TSwitchToThisWindow@@YAXPEAUHWND__@@H@Z	; TSwitchToThisWindow
PUBLIC	?TSetThreadLocale@@YAHH@Z			; TSetThreadLocale
PUBLIC	?TSetDefaultLCID@@YAXK@Z			; TSetDefaultLCID
PUBLIC	?InitInstanceForLoadStr@@YAXPEAUHINSTANCE__@@@Z	; InitInstanceForLoadStr
PUBLIC	?s@Wstr@@QEBAPEB_WXZ				; Wstr::s
PUBLIC	?Init@TRect@@QEAAXJJJJ@Z			; TRect::Init
PUBLIC	??0TRect@@QEAA@JJJJ@Z				; TRect::TRect
PUBLIC	??1TResHash@@UEAA@XZ				; TResHash::~TResHash
PUBLIC	??_GTResHash@@UEAAPEAXI@Z			; TResHash::`scalar deleting destructor'
PUBLIC	?Register@TResHash@@QEAAXPEAUTResHashObj@@@Z	; TResHash::Register
PUBLIC	?Search@TResHash@@QEAAPEAUTResHashObj@@I@Z	; TResHash::Search
PUBLIC	??0TResHash@@QEAA@H@Z				; TResHash::TResHash
PUBLIC	?IsSameVal@TResHash@@MEAAHPEAV?$THashObjT@I@@PEBX@Z ; TResHash::IsSameVal
PUBLIC	??_GTResHashObj@@UEAAPEAXI@Z			; TResHashObj::`scalar deleting destructor'
PUBLIC	??1TResHashObj@@UEAA@XZ				; TResHashObj::~TResHashObj
PUBLIC	??0TResHashObj@@QEAA@IPEAX@Z			; TResHashObj::TResHashObj
PUBLIC	?strrchr@@YAPEADQEADH@Z				; strrchr
PUBLIC	?TMakeVirtualStorePathW@@YAHPEA_W0@Z		; TMakeVirtualStorePathW
PUBLIC	?SymLinkW@@YAHPEA_W00@Z				; SymLinkW
PUBLIC	?MakePathW@@YAHPEA_WPEB_W1@Z			; MakePathW
PUBLIC	?DeleteLinkW@@YAHPEA_W@Z			; DeleteLinkW
PUBLIC	?MakePath@@YAHPEADPEBD1@Z			; MakePath
PUBLIC	?TIsWow64@@YAHXZ				; TIsWow64
PUBLIC	?Debug@@YAXPEBDZZ				; Debug
PUBLIC	?LoadStrA@@YAPEADIPEAUHINSTANCE__@@@Z		; LoadStrA
PUBLIC	?TLoadLibrary@@YAPEAUHINSTANCE__@@PEAD@Z	; TLoadLibrary
PUBLIC	?TIsVirtualizedDirW@@YAHPEA_W@Z			; TIsVirtualizedDirW
PUBLIC	?TWinVersion@@3KA				; TWinVersion
EXTRN	??_E?$THashTblT@I@@UEAAPEAXI@Z:PROC		; THashTblT<unsigned int>::`vector deleting destructor'
EXTRN	??_ETResHashObj@@UEAAPEAXI@Z:PROC		; TResHashObj::`vector deleting destructor'
EXTRN	??_ETResHash@@UEAAPEAXI@Z:PROC			; TResHash::`vector deleting destructor'
;	COMDAT ?hash@?1??LoadStrA@@YAPEADIPEAUHINSTANCE__@@@Z@4PEAVTResHash@@EA
_BSS	SEGMENT
?hash@?1??LoadStrA@@YAPEADIPEAUHINSTANCE__@@@Z@4PEAVTResHash@@EA DQ 01H DUP (?) ; `LoadStrA'::`2'::hash
_BSS	ENDS
;	COMDAT ?pSetThreadUILanguage@?1??TSetThreadLocale@@YAHH@Z@4P6AGG@ZEA
_BSS	SEGMENT
?pSetThreadUILanguage@?1??TSetThreadLocale@@YAHH@Z@4P6AGG@ZEA DQ 01H DUP (?) ; `TSetThreadLocale'::`2'::pSetThreadUILanguage
_BSS	ENDS
;	COMDAT ?pSwitchToThisWindow@?1??TSwitchToThisWindow@@YAXPEAUHWND__@@H@Z@4P6AX0H@ZEA
_BSS	SEGMENT
?pSwitchToThisWindow@?1??TSwitchToThisWindow@@YAXPEAUHWND__@@H@Z@4P6AX0H@ZEA DQ 01H DUP (?) ; `TSwitchToThisWindow'::`2'::pSwitchToThisWindow
?defaultLCID@@3KA DD 01H DUP (?)			; defaultLCID
?TWinVersion@@3KA DD 01H DUP (?)			; TWinVersion
_BSS	ENDS
;	COMDAT pdata
pdata	SEGMENT
$pdata$??_G?$THashTblT@I@@UEAAPEAXI@Z DD imagerel $LN8
	DD	imagerel $LN8+74
	DD	imagerel $unwind$??_G?$THashTblT@I@@UEAAPEAXI@Z
pdata	ENDS
;	COMDAT pdata
pdata	SEGMENT
$pdata$??0?$THashTblT@I@@QEAA@HH@Z DD imagerel $LN5
	DD	imagerel $LN5+52
	DD	imagerel $unwind$??0?$THashTblT@I@@QEAA@HH@Z
pdata	ENDS
;	COMDAT pdata
pdata	SEGMENT
$pdata$??1?$THashTblT@I@@UEAA@XZ DD imagerel $LN3
	DD	imagerel $LN3+34
	DD	imagerel $unwind$??1?$THashTblT@I@@UEAA@XZ
pdata	ENDS
;	COMDAT pdata
pdata	SEGMENT
$pdata$?Init@?$THashTblT@I@@UEAAHH@Z DD imagerel $LN14
	DD	imagerel $LN14+214
	DD	imagerel $unwind$?Init@?$THashTblT@I@@UEAAHH@Z
pdata	ENDS
;	COMDAT pdata
pdata	SEGMENT
$pdata$?dtor$0@?0??Init@?$THashTblT@I@@UEAAHH@Z@4HA DD imagerel ?dtor$0@?0??Init@?$THashTblT@I@@UEAAHH@Z@4HA
	DD	imagerel ?dtor$0@?0??Init@?$THashTblT@I@@UEAAHH@Z@4HA+62
	DD	imagerel $unwind$?dtor$0@?0??Init@?$THashTblT@I@@UEAAHH@Z@4HA
pdata	ENDS
;	COMDAT pdata
pdata	SEGMENT
$pdata$?UnInit@?$THashTblT@I@@UEAAXXZ DD imagerel $LN31
	DD	imagerel $LN31+26
	DD	imagerel $unwind$?UnInit@?$THashTblT@I@@UEAAXXZ
pdata	ENDS
;	COMDAT pdata
pdata	SEGMENT
$pdata$0$?UnInit@?$THashTblT@I@@UEAAXXZ DD imagerel $LN31+26
	DD	imagerel $LN31+38
	DD	imagerel $chain$0$?UnInit@?$THashTblT@I@@UEAAXXZ
pdata	ENDS
;	COMDAT pdata
pdata	SEGMENT
$pdata$3$?UnInit@?$THashTblT@I@@UEAAXXZ DD imagerel $LN31+38
	DD	imagerel $LN31+131
	DD	imagerel $chain$3$?UnInit@?$THashTblT@I@@UEAAXXZ
pdata	ENDS
;	COMDAT pdata
pdata	SEGMENT
$pdata$4$?UnInit@?$THashTblT@I@@UEAAXXZ DD imagerel $LN31+131
	DD	imagerel $LN31+136
	DD	imagerel $chain$4$?UnInit@?$THashTblT@I@@UEAAXXZ
pdata	ENDS
;	COMDAT pdata
pdata	SEGMENT
$pdata$5$?UnInit@?$THashTblT@I@@UEAAXXZ DD imagerel $LN31+136
	DD	imagerel $LN31+194
	DD	imagerel $chain$5$?UnInit@?$THashTblT@I@@UEAAXXZ
pdata	ENDS
;	COMDAT pdata
pdata	SEGMENT
$pdata$?Register@?$THashTblT@I@@UEAAXPEAV?$THashObjT@I@@I@Z DD imagerel $LN5
	DD	imagerel $LN5+55
	DD	imagerel $unwind$?Register@?$THashTblT@I@@UEAAXPEAV?$THashObjT@I@@I@Z
pdata	ENDS
;	COMDAT pdata
pdata	SEGMENT
$pdata$?UnRegister@?$THashTblT@I@@UEAAXPEAV?$THashObjT@I@@@Z DD imagerel $LN5
	DD	imagerel $LN5+31
	DD	imagerel $unwind$?UnRegister@?$THashTblT@I@@UEAAXPEAV?$THashObjT@I@@@Z
pdata	ENDS
;	COMDAT pdata
pdata	SEGMENT
$pdata$?Search@?$THashTblT@I@@UEAAPEAV?$THashObjT@I@@PEBXI@Z DD imagerel $LN14
	DD	imagerel $LN14+130
	DD	imagerel $unwind$?Search@?$THashTblT@I@@UEAAPEAV?$THashObjT@I@@PEBXI@Z
pdata	ENDS
;	COMDAT pdata
pdata	SEGMENT
$pdata$?GetParentDirW@@YAHPEB_WPEA_W@Z DD imagerel $LN17
	DD	imagerel $LN17+231
	DD	imagerel $unwind$?GetParentDirW@@YAHPEB_WPEA_W@Z
pdata	ENDS
;	COMDAT pdata
pdata	SEGMENT
$pdata$?TSwitchToThisWindow@@YAXPEAUHWND__@@H@Z DD imagerel $LN7
	DD	imagerel $LN7+100
	DD	imagerel $unwind$?TSwitchToThisWindow@@YAXPEAUHWND__@@H@Z
pdata	ENDS
;	COMDAT pdata
pdata	SEGMENT
$pdata$?TSetThreadLocale@@YAHH@Z DD imagerel $LN7
	DD	imagerel $LN7+100
	DD	imagerel $unwind$?TSetThreadLocale@@YAHH@Z
pdata	ENDS
;	COMDAT pdata
pdata	SEGMENT
$pdata$?TSetDefaultLCID@@YAXK@Z DD imagerel $LN6
	DD	imagerel $LN6+25
	DD	imagerel $unwind$?TSetDefaultLCID@@YAXK@Z
pdata	ENDS
;	COMDAT pdata
pdata	SEGMENT
$pdata$??__ETWinVersion@@YAXXZ DD imagerel ??__ETWinVersion@@YAXXZ
	DD	imagerel ??__ETWinVersion@@YAXXZ+21
	DD	imagerel $unwind$??__ETWinVersion@@YAXXZ
pdata	ENDS
;	COMDAT pdata
pdata	SEGMENT
$pdata$??1TResHash@@UEAA@XZ DD imagerel $LN6
	DD	imagerel $LN6+34
	DD	imagerel $unwind$??1TResHash@@UEAA@XZ
pdata	ENDS
;	COMDAT pdata
pdata	SEGMENT
$pdata$??_GTResHash@@UEAAPEAXI@Z DD imagerel $LN11
	DD	imagerel $LN11+74
	DD	imagerel $unwind$??_GTResHash@@UEAAPEAXI@Z
pdata	ENDS
;	COMDAT pdata
pdata	SEGMENT
$pdata$?Register@TResHash@@QEAAXPEAUTResHashObj@@@Z DD imagerel $LN7
	DD	imagerel $LN7+56
	DD	imagerel $unwind$?Register@TResHash@@QEAAXPEAUTResHashObj@@@Z
pdata	ENDS
;	COMDAT pdata
pdata	SEGMENT
$pdata$?Search@TResHash@@QEAAPEAUTResHashObj@@I@Z DD imagerel $LN16
	DD	imagerel $LN16+126
	DD	imagerel $unwind$?Search@TResHash@@QEAAPEAUTResHashObj@@I@Z
pdata	ENDS
;	COMDAT pdata
pdata	SEGMENT
$pdata$??0TResHash@@QEAA@H@Z DD imagerel $LN8
	DD	imagerel $LN8+71
	DD	imagerel $unwind$??0TResHash@@QEAA@H@Z
pdata	ENDS
;	COMDAT pdata
pdata	SEGMENT
$pdata$??_GTResHashObj@@UEAAPEAXI@Z DD imagerel $LN16
	DD	imagerel $LN16+121
	DD	imagerel $unwind$??_GTResHashObj@@UEAAPEAXI@Z
pdata	ENDS
;	COMDAT pdata
pdata	SEGMENT
$pdata$??1TResHashObj@@UEAA@XZ DD imagerel $LN11
	DD	imagerel $LN11+88
	DD	imagerel $unwind$??1TResHashObj@@UEAA@XZ
pdata	ENDS
;	COMDAT pdata
pdata	SEGMENT
$pdata$?TMakeVirtualStorePathW@@YAHPEA_W0@Z DD imagerel $LN13
	DD	imagerel $LN13+173
	DD	imagerel $unwind$?TMakeVirtualStorePathW@@YAHPEA_W0@Z
pdata	ENDS
;	COMDAT pdata
pdata	SEGMENT
$pdata$?SymLinkW@@YAHPEA_W00@Z DD imagerel $LN8
	DD	imagerel $LN8+301
	DD	imagerel $unwind$?SymLinkW@@YAHPEA_W00@Z
pdata	ENDS
;	COMDAT pdata
pdata	SEGMENT
$pdata$?MakePathW@@YAHPEA_WPEB_W1@Z DD imagerel $LN6
	DD	imagerel $LN6+96
	DD	imagerel $unwind$?MakePathW@@YAHPEA_WPEB_W1@Z
pdata	ENDS
;	COMDAT pdata
pdata	SEGMENT
$pdata$?DeleteLinkW@@YAHPEA_W@Z DD imagerel $LN5
	DD	imagerel $LN5+105
	DD	imagerel $unwind$?DeleteLinkW@@YAHPEA_W@Z
pdata	ENDS
;	COMDAT pdata
pdata	SEGMENT
$pdata$?MakePath@@YAHPEADPEBD1@Z DD imagerel $LN21
	DD	imagerel $LN21+79
	DD	imagerel $unwind$?MakePath@@YAHPEADPEBD1@Z
pdata	ENDS
;	COMDAT pdata
pdata	SEGMENT
$pdata$0$?MakePath@@YAHPEADPEBD1@Z DD imagerel $LN21+79
	DD	imagerel $LN21+113
	DD	imagerel $chain$0$?MakePath@@YAHPEADPEBD1@Z
pdata	ENDS
;	COMDAT pdata
pdata	SEGMENT
$pdata$1$?MakePath@@YAHPEADPEBD1@Z DD imagerel $LN21+113
	DD	imagerel $LN21+173
	DD	imagerel $chain$1$?MakePath@@YAHPEADPEBD1@Z
pdata	ENDS
;	COMDAT pdata
pdata	SEGMENT
$pdata$2$?MakePath@@YAHPEADPEBD1@Z DD imagerel $LN21+173
	DD	imagerel $LN21+178
	DD	imagerel $chain$2$?MakePath@@YAHPEADPEBD1@Z
pdata	ENDS
;	COMDAT pdata
pdata	SEGMENT
$pdata$3$?MakePath@@YAHPEADPEBD1@Z DD imagerel $LN21+178
	DD	imagerel $LN21+236
	DD	imagerel $chain$3$?MakePath@@YAHPEADPEBD1@Z
pdata	ENDS
;	COMDAT pdata
pdata	SEGMENT
$pdata$?TIsWow64@@YAHXZ DD imagerel $LN7
	DD	imagerel $LN7+20
	DD	imagerel $unwind$?TIsWow64@@YAHXZ
pdata	ENDS
;	COMDAT pdata
pdata	SEGMENT
$pdata$0$?TIsWow64@@YAHXZ DD imagerel $LN7+20
	DD	imagerel $LN7+88
	DD	imagerel $chain$0$?TIsWow64@@YAHXZ
pdata	ENDS
;	COMDAT pdata
pdata	SEGMENT
$pdata$1$?TIsWow64@@YAHXZ DD imagerel $LN7+88
	DD	imagerel $LN7+99
	DD	imagerel $chain$1$?TIsWow64@@YAHXZ
pdata	ENDS
;	COMDAT pdata
pdata	SEGMENT
$pdata$?Debug@@YAXPEBDZZ DD imagerel $LN8
	DD	imagerel $LN8+146
	DD	imagerel $unwind$?Debug@@YAXPEBDZZ
pdata	ENDS
;	COMDAT pdata
pdata	SEGMENT
$pdata$?LoadStrA@@YAPEADIPEAUHINSTANCE__@@@Z DD imagerel $LN30
	DD	imagerel $LN30+318
	DD	imagerel $unwind$?LoadStrA@@YAPEADIPEAUHINSTANCE__@@@Z
pdata	ENDS
;	COMDAT pdata
pdata	SEGMENT
$pdata$?dtor$0@?0??LoadStrA@@YAPEADIPEAUHINSTANCE__@@@Z@4HA DD imagerel ?dtor$0@?0??LoadStrA@@YAPEADIPEAUHINSTANCE__@@@Z@4HA
	DD	imagerel ?dtor$0@?0??LoadStrA@@YAPEADIPEAUHINSTANCE__@@@Z@4HA+29
	DD	imagerel $unwind$?dtor$0@?0??LoadStrA@@YAPEADIPEAUHINSTANCE__@@@Z@4HA
pdata	ENDS
;	COMDAT pdata
pdata	SEGMENT
$pdata$?TLoadLibrary@@YAPEAUHINSTANCE__@@PEAD@Z DD imagerel $LN6
	DD	imagerel $LN6+38
	DD	imagerel $unwind$?TLoadLibrary@@YAPEAUHINSTANCE__@@PEAD@Z
pdata	ENDS
;	COMDAT pdata
pdata	SEGMENT
$pdata$?TIsVirtualizedDirW@@YAHPEA_W@Z DD imagerel $LN21
	DD	imagerel $LN21+57
	DD	imagerel $unwind$?TIsVirtualizedDirW@@YAHPEA_W@Z
pdata	ENDS
;	COMDAT pdata
pdata	SEGMENT
$pdata$1$?TIsVirtualizedDirW@@YAHPEA_W@Z DD imagerel $LN21+57
	DD	imagerel $LN21+225
	DD	imagerel $chain$1$?TIsVirtualizedDirW@@YAHPEA_W@Z
pdata	ENDS
;	COMDAT pdata
pdata	SEGMENT
$pdata$2$?TIsVirtualizedDirW@@YAHPEA_W@Z DD imagerel $LN21+225
	DD	imagerel $LN21+250
	DD	imagerel $chain$2$?TIsVirtualizedDirW@@YAHPEA_W@Z
pdata	ENDS
;	COMDAT pdata
pdata	SEGMENT
$pdata$3$?TIsVirtualizedDirW@@YAHPEA_W@Z DD imagerel $LN21+250
	DD	imagerel $LN21+257
	DD	imagerel $chain$3$?TIsVirtualizedDirW@@YAHPEA_W@Z
pdata	ENDS
;	COMDAT pdata
pdata	SEGMENT
$pdata$4$?TIsVirtualizedDirW@@YAHPEA_W@Z DD imagerel $LN21+257
	DD	imagerel $LN21+261
	DD	imagerel $chain$4$?TIsVirtualizedDirW@@YAHPEA_W@Z
;	COMDAT xdata
xdata	SEGMENT
$chain$4$?TIsVirtualizedDirW@@YAHPEA_W@Z DD 021H
	DD	imagerel $LN21
	DD	imagerel $LN21+57
	DD	imagerel $unwind$?TIsVirtualizedDirW@@YAHPEA_W@Z
xdata	ENDS
;	COMDAT xdata
xdata	SEGMENT
$chain$3$?TIsVirtualizedDirW@@YAHPEA_W@Z DD 040021H
	DD	0507400H
	DD	04f3400H
	DD	imagerel $LN21
	DD	imagerel $LN21+57
	DD	imagerel $unwind$?TIsVirtualizedDirW@@YAHPEA_W@Z
xdata	ENDS
;	COMDAT xdata
xdata	SEGMENT
$chain$2$?TIsVirtualizedDirW@@YAHPEA_W@Z DD 021H
	DD	imagerel $LN21
	DD	imagerel $LN21+57
	DD	imagerel $unwind$?TIsVirtualizedDirW@@YAHPEA_W@Z
xdata	ENDS
;	COMDAT xdata
xdata	SEGMENT
$chain$1$?TIsVirtualizedDirW@@YAHPEA_W@Z DD 040d21H
	DD	050740dH
	DD	04f3404H
	DD	imagerel $LN21
	DD	imagerel $LN21+57
	DD	imagerel $unwind$?TIsVirtualizedDirW@@YAHPEA_W@Z
xdata	ENDS
;	COMDAT xdata
xdata	SEGMENT
$unwind$?TIsVirtualizedDirW@@YAHPEA_W@Z DD 031d19H
	DD	04c010bH
	DD	06004H
	DD	imagerel __GSHandlerCheck
	DD	0250H
xdata	ENDS
;	COMDAT xdata
xdata	SEGMENT
$unwind$?TLoadLibrary@@YAPEAUHINSTANCE__@@PEAD@Z DD 020601H
	DD	030023206H
xdata	ENDS
;	COMDAT xdata
xdata	SEGMENT
$unwind$?dtor$0@?0??LoadStrA@@YAPEADIPEAUHINSTANCE__@@@Z@4HA DD 020601H
	DD	050023206H
xdata	ENDS
;	COMDAT xdata
xdata	SEGMENT
$ip2state$?LoadStrA@@YAPEADIPEAUHINSTANCE__@@@Z DD imagerel ?LoadStrA@@YAPEADIPEAUHINSTANCE__@@@Z
	DD	0ffffffffH
	DD	imagerel ?LoadStrA@@YAPEADIPEAUHINSTANCE__@@@Z+75
	DD	00H
	DD	imagerel ?LoadStrA@@YAPEADIPEAUHINSTANCE__@@@Z+129
	DD	0ffffffffH
xdata	ENDS
;	COMDAT xdata
xdata	SEGMENT
$stateUnwindMap$?LoadStrA@@YAPEADIPEAUHINSTANCE__@@@Z DD 0ffffffffH
	DD	imagerel ?dtor$0@?0??LoadStrA@@YAPEADIPEAUHINSTANCE__@@@Z@4HA
xdata	ENDS
;	COMDAT CONST
CONST	SEGMENT
$cppxdata$?LoadStrA@@YAPEADIPEAUHINSTANCE__@@@Z DD 019930522H
	DD	01H
	DD	imagerel $stateUnwindMap$?LoadStrA@@YAPEADIPEAUHINSTANCE__@@@Z
	DD	00H
	DD	00H
	DD	03H
	DD	imagerel $ip2state$?LoadStrA@@YAPEADIPEAUHINSTANCE__@@@Z
	DD	028H
	DD	00H
	DD	01H
CONST	ENDS
;	COMDAT xdata
xdata	SEGMENT
$unwind$?LoadStrA@@YAPEADIPEAUHINSTANCE__@@@Z DD 072e19H
	DD	08c641cH
	DD	08b3418H
	DD	088010bH
	DD	07004H
	DD	imagerel __GSHandlerCheck_EH
	DD	imagerel $cppxdata$?LoadStrA@@YAPEADIPEAUHINSTANCE__@@@Z
	DD	0432H
xdata	ENDS
;	COMDAT xdata
xdata	SEGMENT
$unwind$?Debug@@YAXPEBDZZ DD 043519H
	DD	04090123H
	DD	030157016H
	DD	imagerel __GSHandlerCheck
	DD	02030H
xdata	ENDS
;	COMDAT xdata
xdata	SEGMENT
$chain$1$?TIsWow64@@YAHXZ DD 021H
	DD	imagerel $LN7
	DD	imagerel $LN7+20
	DD	imagerel $unwind$?TIsWow64@@YAHXZ
xdata	ENDS
;	COMDAT xdata
xdata	SEGMENT
$chain$0$?TIsWow64@@YAHXZ DD 020521H
	DD	043405H
	DD	imagerel $LN7
	DD	imagerel $LN7+20
	DD	imagerel $unwind$?TIsWow64@@YAHXZ
xdata	ENDS
;	COMDAT xdata
xdata	SEGMENT
$unwind$?TIsWow64@@YAHXZ DD 010401H
	DD	04204H
xdata	ENDS
;	COMDAT xdata
xdata	SEGMENT
$chain$3$?MakePath@@YAHPEADPEBD1@Z DD 021H
	DD	imagerel $LN21
	DD	imagerel $LN21+79
	DD	imagerel $unwind$?MakePath@@YAHPEADPEBD1@Z
xdata	ENDS
;	COMDAT xdata
xdata	SEGMENT
$chain$2$?MakePath@@YAHPEADPEBD1@Z DD 021H
	DD	imagerel $LN21+79
	DD	imagerel $LN21+113
	DD	imagerel $chain$0$?MakePath@@YAHPEADPEBD1@Z
xdata	ENDS
;	COMDAT xdata
xdata	SEGMENT
$chain$1$?MakePath@@YAHPEADPEBD1@Z DD 020521H
	DD	0a3405H
	DD	imagerel $LN21+79
	DD	imagerel $LN21+113
	DD	imagerel $chain$0$?MakePath@@YAHPEADPEBD1@Z
xdata	ENDS
;	COMDAT xdata
xdata	SEGMENT
$chain$0$?MakePath@@YAHPEADPEBD1@Z DD 020521H
	DD	0b6405H
	DD	imagerel $LN21
	DD	imagerel $LN21+79
	DD	imagerel $unwind$?MakePath@@YAHPEADPEBD1@Z
xdata	ENDS
;	COMDAT xdata
xdata	SEGMENT
$unwind$?MakePath@@YAHPEADPEBD1@Z DD 060e01H
	DD	0c540eH
	DD	0f00a520eH
	DD	07006e008H
xdata	ENDS
;	COMDAT xdata
xdata	SEGMENT
$unwind$?DeleteLinkW@@YAHPEA_W@Z DD 031b19H
	DD	0480109H
	DD	03002H
	DD	imagerel __GSHandlerCheck
	DD	0230H
xdata	ENDS
;	COMDAT xdata
xdata	SEGMENT
$unwind$?MakePathW@@YAHPEA_WPEB_W1@Z DD 010401H
	DD	06204H
xdata	ENDS
;	COMDAT xdata
xdata	SEGMENT
$unwind$?SymLinkW@@YAHPEA_W00@Z DD 072419H
	DD	0516412H
	DD	0503412H
	DD	04c0112H
	DD	0700bH
	DD	imagerel __GSHandlerCheck
	DD	0250H
xdata	ENDS
;	COMDAT xdata
xdata	SEGMENT
$unwind$?TMakeVirtualStorePathW@@YAHPEA_W0@Z DD 040a01H
	DD	06340aH
	DD	07006320aH
xdata	ENDS
;	COMDAT xdata
xdata	SEGMENT
$unwind$??1TResHashObj@@UEAA@XZ DD 020601H
	DD	030023206H
xdata	ENDS
;	COMDAT xdata
xdata	SEGMENT
$unwind$??_GTResHashObj@@UEAAPEAXI@Z DD 040a01H
	DD	06340aH
	DD	07006320aH
xdata	ENDS
;	COMDAT xdata
xdata	SEGMENT
$unwind$??0TResHash@@QEAA@H@Z DD 020601H
	DD	030023206H
xdata	ENDS
;	COMDAT xdata
xdata	SEGMENT
$unwind$?Search@TResHash@@QEAAPEAUTResHashObj@@I@Z DD 081801H
	DD	096418H
	DD	085418H
	DD	063418H
	DD	070143218H
xdata	ENDS
;	COMDAT xdata
xdata	SEGMENT
$unwind$?Register@TResHash@@QEAAXPEAUTResHashObj@@@Z DD 020601H
	DD	030023206H
xdata	ENDS
;	COMDAT xdata
xdata	SEGMENT
$ip2state$??_GTResHash@@UEAAPEAXI@Z DD imagerel ??_GTResHash@@UEAAPEAXI@Z
	DD	0ffffffffH
	DD	imagerel ??_GTResHash@@UEAAPEAXI@Z+25
	DD	00H
	DD	imagerel ??_GTResHash@@UEAAPEAXI@Z+41
	DD	0ffffffffH
xdata	ENDS
;	COMDAT xdata
xdata	SEGMENT
$stateUnwindMap$??_GTResHash@@UEAAPEAXI@Z DD 0ffffffffH
	DD	imagerel __std_terminate
xdata	ENDS
;	COMDAT CONST
CONST	SEGMENT
$cppxdata$??_GTResHash@@UEAAPEAXI@Z DD 019930522H
	DD	01H
	DD	imagerel $stateUnwindMap$??_GTResHash@@UEAAPEAXI@Z
	DD	00H
	DD	00H
	DD	03H
	DD	imagerel $ip2state$??_GTResHash@@UEAAPEAXI@Z
	DD	020H
	DD	00H
	DD	05H
CONST	ENDS
;	COMDAT xdata
xdata	SEGMENT
$unwind$??_GTResHash@@UEAAPEAXI@Z DD 041419H
	DD	083414H
	DD	070025206H
	DD	imagerel __CxxFrameHandler3
	DD	imagerel $cppxdata$??_GTResHash@@UEAAPEAXI@Z
xdata	ENDS
;	COMDAT xdata
xdata	SEGMENT
$ip2state$??1TResHash@@UEAA@XZ DD imagerel ??1TResHash@@UEAA@XZ
	DD	0ffffffffH
	DD	imagerel ??1TResHash@@UEAA@XZ+13
	DD	00H
	DD	imagerel ??1TResHash@@UEAA@XZ+29
	DD	0ffffffffH
xdata	ENDS
;	COMDAT xdata
xdata	SEGMENT
$stateUnwindMap$??1TResHash@@UEAA@XZ DD 0ffffffffH
	DD	imagerel __std_terminate
xdata	ENDS
;	COMDAT CONST
CONST	SEGMENT
$cppxdata$??1TResHash@@UEAA@XZ DD 019930522H
	DD	01H
	DD	imagerel $stateUnwindMap$??1TResHash@@UEAA@XZ
	DD	00H
	DD	00H
	DD	03H
	DD	imagerel $ip2state$??1TResHash@@UEAA@XZ
	DD	020H
	DD	00H
	DD	05H
CONST	ENDS
;	COMDAT xdata
xdata	SEGMENT
$unwind$??1TResHash@@UEAA@XZ DD 010d19H
	DD	06204H
	DD	imagerel __CxxFrameHandler3
	DD	imagerel $cppxdata$??1TResHash@@UEAA@XZ
xdata	ENDS
;	COMDAT xdata
xdata	SEGMENT
$unwind$??__ETWinVersion@@YAXXZ DD 010401H
	DD	04204H
xdata	ENDS
;	COMDAT xdata
xdata	SEGMENT
$unwind$?TSetDefaultLCID@@YAXK@Z DD 010401H
	DD	04204H
xdata	ENDS
;	COMDAT xdata
xdata	SEGMENT
$unwind$?TSetThreadLocale@@YAHH@Z DD 020601H
	DD	030023206H
xdata	ENDS
;	COMDAT xdata
xdata	SEGMENT
$unwind$?TSwitchToThisWindow@@YAXPEAUHWND__@@H@Z DD 020601H
	DD	030023206H
xdata	ENDS
;	COMDAT xdata
xdata	SEGMENT
$unwind$?GetParentDirW@@YAHPEB_WPEA_W@Z DD 072419H
	DD	04f6412H
	DD	04e3412H
	DD	04a0112H
	DD	0700bH
	DD	imagerel __GSHandlerCheck
	DD	0240H
xdata	ENDS
;	COMDAT xdata
xdata	SEGMENT
$unwind$?Search@?$THashTblT@I@@UEAAPEAV?$THashObjT@I@@PEBXI@Z DD 0a1a01H
	DD	09741aH
	DD	08641aH
	DD	07541aH
	DD	06341aH
	DD	0e016321aH
xdata	ENDS
;	COMDAT xdata
xdata	SEGMENT
$unwind$?UnRegister@?$THashTblT@I@@UEAAXPEAV?$THashObjT@I@@@Z DD 020601H
	DD	030023206H
xdata	ENDS
;	COMDAT xdata
xdata	SEGMENT
$unwind$?Register@?$THashTblT@I@@UEAAXPEAV?$THashObjT@I@@I@Z DD 020601H
	DD	030023206H
xdata	ENDS
;	COMDAT xdata
xdata	SEGMENT
$chain$5$?UnInit@?$THashTblT@I@@UEAAXXZ DD 021H
	DD	imagerel $LN31
	DD	imagerel $LN31+26
	DD	imagerel $unwind$?UnInit@?$THashTblT@I@@UEAAXXZ
xdata	ENDS
;	COMDAT xdata
xdata	SEGMENT
$chain$4$?UnInit@?$THashTblT@I@@UEAAXXZ DD 021H
	DD	imagerel $LN31+26
	DD	imagerel $LN31+38
	DD	imagerel $chain$0$?UnInit@?$THashTblT@I@@UEAAXXZ
xdata	ENDS
;	COMDAT xdata
xdata	SEGMENT
$chain$3$?UnInit@?$THashTblT@I@@UEAAXXZ DD 060f21H
	DD	09e40fH
	DD	08740aH
	DD	076405H
	DD	imagerel $LN31+26
	DD	imagerel $LN31+38
	DD	imagerel $chain$0$?UnInit@?$THashTblT@I@@UEAAXXZ
xdata	ENDS
;	COMDAT xdata
xdata	SEGMENT
$chain$0$?UnInit@?$THashTblT@I@@UEAAXXZ DD 020521H
	DD	065405H
	DD	imagerel $LN31
	DD	imagerel $LN31+26
	DD	imagerel $unwind$?UnInit@?$THashTblT@I@@UEAAXXZ
xdata	ENDS
;	COMDAT xdata
xdata	SEGMENT
$unwind$?UnInit@?$THashTblT@I@@UEAAXXZ DD 020601H
	DD	030023206H
xdata	ENDS
;	COMDAT xdata
xdata	SEGMENT
$unwind$?dtor$0@?0??Init@?$THashTblT@I@@UEAAHH@Z@4HA DD 020601H
	DD	050023206H
xdata	ENDS
;	COMDAT xdata
xdata	SEGMENT
$ip2state$?Init@?$THashTblT@I@@UEAAHH@Z DD imagerel ?Init@?$THashTblT@I@@UEAAHH@Z
	DD	0ffffffffH
	DD	imagerel ?Init@?$THashTblT@I@@UEAAHH@Z+79
	DD	00H
	DD	imagerel ?Init@?$THashTblT@I@@UEAAHH@Z+130
	DD	0ffffffffH
xdata	ENDS
;	COMDAT xdata
xdata	SEGMENT
$stateUnwindMap$?Init@?$THashTblT@I@@UEAAHH@Z DD 0ffffffffH
	DD	imagerel ?dtor$0@?0??Init@?$THashTblT@I@@UEAAHH@Z@4HA
xdata	ENDS
;	COMDAT CONST
CONST	SEGMENT
$cppxdata$?Init@?$THashTblT@I@@UEAAHH@Z DD 019930522H
	DD	01H
	DD	imagerel $stateUnwindMap$?Init@?$THashTblT@I@@UEAAHH@Z
	DD	00H
	DD	00H
	DD	03H
	DD	imagerel $ip2state$?Init@?$THashTblT@I@@UEAAHH@Z
	DD	030H
	DD	00H
	DD	01H
CONST	ENDS
;	COMDAT xdata
xdata	SEGMENT
$unwind$?Init@?$THashTblT@I@@UEAAHH@Z DD 061911H
	DD	0d6419H
	DD	0b3414H
	DD	070027206H
	DD	imagerel __CxxFrameHandler3
	DD	imagerel $cppxdata$?Init@?$THashTblT@I@@UEAAHH@Z
xdata	ENDS
;	COMDAT xdata
xdata	SEGMENT
$ip2state$??1?$THashTblT@I@@UEAA@XZ DD imagerel ??1?$THashTblT@I@@UEAA@XZ
	DD	0ffffffffH
xdata	ENDS
;	COMDAT CONST
CONST	SEGMENT
$cppxdata$??1?$THashTblT@I@@UEAA@XZ DD 019930522H
	DD	00H
	DD	00H
	DD	00H
	DD	00H
	DD	01H
	DD	imagerel $ip2state$??1?$THashTblT@I@@UEAA@XZ
	DD	020H
	DD	00H
	DD	05H
CONST	ENDS
;	COMDAT xdata
xdata	SEGMENT
$unwind$??1?$THashTblT@I@@UEAA@XZ DD 010d19H
	DD	06204H
	DD	imagerel __CxxFrameHandler3
	DD	imagerel $cppxdata$??1?$THashTblT@I@@UEAA@XZ
xdata	ENDS
;	COMDAT xdata
xdata	SEGMENT
$unwind$??0?$THashTblT@I@@QEAA@HH@Z DD 020601H
	DD	030023206H
xdata	ENDS
;	COMDAT xdata
xdata	SEGMENT
$ip2state$??_G?$THashTblT@I@@UEAAPEAXI@Z DD imagerel ??_G?$THashTblT@I@@UEAAPEAXI@Z
	DD	0ffffffffH
	DD	imagerel ??_G?$THashTblT@I@@UEAAPEAXI@Z+25
	DD	00H
	DD	imagerel ??_G?$THashTblT@I@@UEAAPEAXI@Z+41
	DD	0ffffffffH
xdata	ENDS
;	COMDAT xdata
xdata	SEGMENT
$stateUnwindMap$??_G?$THashTblT@I@@UEAAPEAXI@Z DD 0ffffffffH
	DD	imagerel __std_terminate
xdata	ENDS
;	COMDAT CONST
CONST	SEGMENT
$cppxdata$??_G?$THashTblT@I@@UEAAPEAXI@Z DD 019930522H
	DD	01H
	DD	imagerel $stateUnwindMap$??_G?$THashTblT@I@@UEAAPEAXI@Z
	DD	00H
	DD	00H
	DD	03H
	DD	imagerel $ip2state$??_G?$THashTblT@I@@UEAAPEAXI@Z
	DD	020H
	DD	00H
	DD	05H
CONST	ENDS
;	COMDAT xdata
xdata	SEGMENT
$unwind$??_G?$THashTblT@I@@UEAAPEAXI@Z DD 041419H
	DD	083414H
	DD	070025206H
	DD	imagerel __CxxFrameHandler3
	DD	imagerel $cppxdata$??_G?$THashTblT@I@@UEAAPEAXI@Z
?TWinVersion$initializer$@@3P6AXXZEA DQ FLAT:??__ETWinVersion@@YAXXZ ; TWinVersion$initializer$
; Function compile flags: /Ogtpy
; File f:\software1\\fastcopy\fastcopy325src\src\tlib\tmisc.cpp
;	COMDAT ?TIsVirtualizedDirW@@YAHPEA_W@Z
_TEXT	SEGMENT
csidl$ = 32
buf$ = 64
__$ArrayPad$ = 592
path$ = 624
?TIsVirtualizedDirW@@YAHPEA_W@Z PROC			; TIsVirtualizedDirW, COMDAT

; 1222 : {

$LN21:
  00000	4c 8b dc	 mov	 r11, rsp
  00003	56		 push	 rsi
  00004	48 81 ec 60 02
	00 00		 sub	 rsp, 608		; 00000260H
  0000b	48 8b 05 00 00
	00 00		 mov	 rax, QWORD PTR __security_cookie
  00012	48 33 c4	 xor	 rax, rsp
  00015	48 89 84 24 50
	02 00 00	 mov	 QWORD PTR __$ArrayPad$[rsp], rax

; 1223 : 	if (!IsWinVista()) return FALSE;

  0001d	8b 05 00 00 00
	00		 mov	 eax, DWORD PTR ?TWinVersion@@3KA ; TWinVersion
  00023	48 8b f1	 mov	 rsi, rcx
  00026	3c 06		 cmp	 al, 6
  00028	0f 82 d3 00 00
	00		 jb	 $LN6@TIsVirtual
  0002e	3d 00 00 00 80	 cmp	 eax, -2147483648	; 80000000H
  00033	0f 83 c8 00 00
	00		 jae	 $LN6@TIsVirtual

; 1224 : 
; 1225 : 	WCHAR	buf[MAX_PATH];
; 1226 : 	DWORD	csidl[] = { CSIDL_WINDOWS, CSIDL_PROGRAM_FILES, CSIDL_PROGRAM_FILESX86,

  00039	49 89 5b 10	 mov	 QWORD PTR [r11+16], rbx
  0003d	b8 24 00 00 00	 mov	 eax, 36			; 00000024H
  00042	49 89 7b 18	 mov	 QWORD PTR [r11+24], rdi

; 1227 : 						CSIDL_COMMON_APPDATA, 0xffffffff };
; 1228 : 
; 1229 : 	for (int i=0; csidl[i] != 0xffffffff; i++) {

  00046	33 ff		 xor	 edi, edi
  00048	89 44 24 20	 mov	 DWORD PTR csidl$[rsp], eax
  0004c	c7 44 24 24 26
	00 00 00	 mov	 DWORD PTR csidl$[rsp+4], 38 ; 00000026H
  00054	c7 44 24 28 2a
	00 00 00	 mov	 DWORD PTR csidl$[rsp+8], 42 ; 0000002aH
  0005c	c7 44 24 2c 23
	00 00 00	 mov	 DWORD PTR csidl$[rsp+12], 35 ; 00000023H
  00064	c7 44 24 30 ff
	ff ff ff	 mov	 DWORD PTR csidl$[rsp+16], -1 ; ffffffffH
  0006c	0f 1f 40 00	 npad	 4
$LL4@TIsVirtual:

; 1230 : 		if (SHGetSpecialFolderPathW(NULL, buf, csidl[i], FALSE)) {

  00070	45 33 c9	 xor	 r9d, r9d
  00073	48 8d 54 24 40	 lea	 rdx, QWORD PTR buf$[rsp]
  00078	44 8b c0	 mov	 r8d, eax
  0007b	33 c9		 xor	 ecx, ecx
  0007d	ff 15 00 00 00
	00		 call	 QWORD PTR __imp_SHGetSpecialFolderPathW
  00083	85 c0		 test	 eax, eax
  00085	74 3c		 je	 SHORT $LN2@TIsVirtual

; 1231 : 			ssize_t	len = wcslen(buf);

  00087	48 8d 44 24 40	 lea	 rax, QWORD PTR buf$[rsp]
  0008c	48 83 cb ff	 or	 rbx, -1
$LL17@TIsVirtual:
  00090	48 ff c3	 inc	 rbx
  00093	66 83 3c 58 00	 cmp	 WORD PTR [rax+rbx*2], 0
  00098	75 f6		 jne	 SHORT $LL17@TIsVirtual

; 1232 : 			if (wcsnicmp(buf, path, len) == 0) {

  0009a	4c 8b c3	 mov	 r8, rbx
  0009d	48 8d 4c 24 40	 lea	 rcx, QWORD PTR buf$[rsp]
  000a2	48 8b d6	 mov	 rdx, rsi
  000a5	e8 00 00 00 00	 call	 wcsnicmp
  000aa	85 c0		 test	 eax, eax
  000ac	75 15		 jne	 SHORT $LN2@TIsVirtual

; 1233 : 				WCHAR	ch = path[len];

  000ae	0f b7 04 5e	 movzx	 eax, WORD PTR [rsi+rbx*2]

; 1234 : 				if (ch == 0 || ch == '\\' || ch == '/') {

  000b2	66 85 c0	 test	 ax, ax
  000b5	74 43		 je	 SHORT $LN10@TIsVirtual
  000b7	66 83 f8 5c	 cmp	 ax, 92			; 0000005cH
  000bb	74 3d		 je	 SHORT $LN10@TIsVirtual
  000bd	66 83 f8 2f	 cmp	 ax, 47			; 0000002fH
  000c1	74 37		 je	 SHORT $LN10@TIsVirtual
$LN2@TIsVirtual:

; 1227 : 						CSIDL_COMMON_APPDATA, 0xffffffff };
; 1228 : 
; 1229 : 	for (int i=0; csidl[i] != 0xffffffff; i++) {

  000c3	8b 44 bc 24	 mov	 eax, DWORD PTR csidl$[rsp+rdi*4+4]
  000c7	48 ff c7	 inc	 rdi
  000ca	83 f8 ff	 cmp	 eax, -1			; ffffffffH
  000cd	75 a1		 jne	 SHORT $LL4@TIsVirtual

; 1236 : 				}
; 1237 : 			}
; 1238 : 		}
; 1239 : 	}
; 1240 : 
; 1241 : 	return	FALSE;

  000cf	33 c0		 xor	 eax, eax
$LN19@TIsVirtual:
  000d1	48 8b 9c 24 78
	02 00 00	 mov	 rbx, QWORD PTR [rsp+632]
  000d9	48 8b bc 24 80
	02 00 00	 mov	 rdi, QWORD PTR [rsp+640]
$LN1@TIsVirtual:

; 1242 : }

  000e1	48 8b 8c 24 50
	02 00 00	 mov	 rcx, QWORD PTR __$ArrayPad$[rsp]
  000e9	48 33 cc	 xor	 rcx, rsp
  000ec	e8 00 00 00 00	 call	 __security_check_cookie
  000f1	48 81 c4 60 02
	00 00		 add	 rsp, 608		; 00000260H
  000f8	5e		 pop	 rsi
  000f9	c3		 ret	 0
$LN10@TIsVirtual:

; 1235 : 					return	TRUE;

  000fa	b8 01 00 00 00	 mov	 eax, 1
  000ff	eb d0		 jmp	 SHORT $LN19@TIsVirtual
$LN6@TIsVirtual:

; 1223 : 	if (!IsWinVista()) return FALSE;

  00101	33 c0		 xor	 eax, eax
  00103	eb dc		 jmp	 SHORT $LN1@TIsVirtual
?TIsVirtualizedDirW@@YAHPEA_W@Z ENDP			; TIsVirtualizedDirW
_TEXT	ENDS
; Function compile flags: /Ogtpy
; File f:\software1\\fastcopy\fastcopy325src\src\tlib\tmisc.cpp
;	COMDAT ?TLoadLibrary@@YAPEAUHINSTANCE__@@PEAD@Z
_TEXT	SEGMENT
dllname$ = 48
?TLoadLibrary@@YAPEAUHINSTANCE__@@PEAD@Z PROC		; TLoadLibrary, COMDAT

; 338  : {

$LN6:
  00000	40 53		 push	 rbx
  00002	48 83 ec 20	 sub	 rsp, 32			; 00000020H

; 339  : 	HMODULE	hModule = ::LoadLibrary(dllname);

  00006	ff 15 00 00 00
	00		 call	 QWORD PTR __imp_LoadLibraryA

; 340  : 
; 341  : 	if (defaultLCID) {

  0000c	83 3d 00 00 00
	00 00		 cmp	 DWORD PTR ?defaultLCID@@3KA, 0
  00013	48 8b d8	 mov	 rbx, rax
  00016	74 08		 je	 SHORT $LN2@TLoadLibra

; 342  : 		TSetThreadLocale(defaultLCID);

  00018	e8 00 00 00 00	 call	 ?TSetThreadLocale@@YAHH@Z ; TSetThreadLocale

; 343  : 	}
; 344  : 
; 345  : 	return	hModule;

  0001d	48 8b c3	 mov	 rax, rbx
$LN2@TLoadLibra:

; 346  : }

  00020	48 83 c4 20	 add	 rsp, 32			; 00000020H
  00024	5b		 pop	 rbx
  00025	c3		 ret	 0
?TLoadLibrary@@YAPEAUHINSTANCE__@@PEAD@Z ENDP		; TLoadLibrary
_TEXT	ENDS
; Function compile flags: /Ogtpy
; File f:\software1\\fastcopy\fastcopy325src\src\tlib\tmisc.cpp
; File f:\software1\\fastcopy\fastcopy325src\src\tlib\tmisc.h
; File f:\software1\\fastcopy\fastcopy325src\src\tlib\tmisc.cpp
; File f:\software1\\fastcopy\fastcopy325src\src\tlib\tmisc.h
; File f:\software1\\fastcopy\fastcopy325src\src\tlib\tmisc.cpp
; File f:\software1\\fastcopy\fastcopy325src\src\tlib\tmisc.h
; File f:\software1\\fastcopy\fastcopy325src\src\tlib\tmisc.cpp
;	COMDAT ?LoadStrA@@YAPEADIPEAUHINSTANCE__@@@Z
_TEXT	SEGMENT
$T1 = 32
$T2 = 32
$T3 = 40
buf$ = 48
__$ArrayPad$ = 1072
resId$ = 1104
hI$dead$ = 1112
?LoadStrA@@YAPEADIPEAUHINSTANCE__@@@Z PROC		; LoadStrA, COMDAT

; 288  : {

$LN30:
  00000	48 8b c4	 mov	 rax, rsp
  00003	57		 push	 rdi
  00004	48 81 ec 40 04
	00 00		 sub	 rsp, 1088		; 00000440H
  0000b	48 c7 44 24 28
	fe ff ff ff	 mov	 QWORD PTR $T3[rsp], -2
  00014	48 89 58 10	 mov	 QWORD PTR [rax+16], rbx
  00018	48 89 70 18	 mov	 QWORD PTR [rax+24], rsi
  0001c	48 8b 05 00 00
	00 00		 mov	 rax, QWORD PTR __security_cookie
  00023	48 33 c4	 xor	 rax, rsp
  00026	48 89 84 24 30
	04 00 00	 mov	 QWORD PTR __$ArrayPad$[rsp], rax
  0002e	8b f9		 mov	 edi, ecx

; 289  : 	static TResHash	*hash;
; 290  : 
; 291  : 	if (hash == NULL) {

  00030	33 f6		 xor	 esi, esi
  00032	48 39 35 00 00
	00 00		 cmp	 QWORD PTR ?hash@?1??LoadStrA@@YAPEADIPEAUHINSTANCE__@@@Z@4PEAVTResHash@@EA, rsi
  00039	75 4d		 jne	 SHORT $LN2@LoadStrA

; 292  : 		hash = new TResHash(1000);

  0003b	8d 4e 20	 lea	 ecx, QWORD PTR [rsi+32]
  0003e	e8 00 00 00 00	 call	 ??2@YAPEAX_K@Z		; operator new
  00043	48 8b d8	 mov	 rbx, rax
  00046	48 89 44 24 20	 mov	 QWORD PTR $T2[rsp], rax
; File f:\software1\\fastcopy\fastcopy325src\src\tlib\tmisc.h

; 71   : 	THashTblT(int _hashNum=0, BOOL _isDeleteObj=TRUE) {

  0004b	48 8d 05 00 00
	00 00		 lea	 rax, OFFSET FLAT:??_7?$THashTblT@I@@6B@
  00052	48 89 03	 mov	 QWORD PTR [rbx], rax

; 72   : 		hashTbl = NULL;

  00055	48 89 73 08	 mov	 QWORD PTR [rbx+8], rsi

; 73   : 		registerNum = 0;

  00059	89 73 14	 mov	 DWORD PTR [rbx+20], esi

; 74   : 		isDeleteObj = _isDeleteObj;

  0005c	c7 43 18 01 00
	00 00		 mov	 DWORD PTR [rbx+24], 1

; 75   : 		if ((hashNum = _hashNum) > 0) {

  00063	c7 43 10 e8 03
	00 00		 mov	 DWORD PTR [rbx+16], 1000 ; 000003e8H

; 76   : 			Init(hashNum);

  0006a	ba e8 03 00 00	 mov	 edx, 1000		; 000003e8H
  0006f	48 8b cb	 mov	 rcx, rbx
  00072	e8 00 00 00 00	 call	 ?Init@?$THashTblT@I@@UEAAHH@Z ; THashTblT<unsigned int>::Init

; 164  : 	TResHash(int _hashNum) : THashTbl(_hashNum) {}

  00077	48 8d 05 00 00
	00 00		 lea	 rax, OFFSET FLAT:??_7TResHash@@6B@
  0007e	48 89 03	 mov	 QWORD PTR [rbx], rax
; File f:\software1\\fastcopy\fastcopy325src\src\tlib\tmisc.cpp

; 292  : 		hash = new TResHash(1000);

  00081	48 89 1d 00 00
	00 00		 mov	 QWORD PTR ?hash@?1??LoadStrA@@YAPEADIPEAUHINSTANCE__@@@Z@4PEAVTResHash@@EA, rbx
$LN2@LoadStrA:

; 293  : 	}
; 294  : 
; 295  : 	char		buf[1024];
; 296  : 	TResHashObj	*obj;
; 297  : 
; 298  : 	if ((obj = hash->Search(resId)) == NULL) {

  00088	8b d7		 mov	 edx, edi
  0008a	e8 00 00 00 00	 call	 ?Search@TResHash@@QEAAPEAUTResHashObj@@I@Z ; TResHash::Search
  0008f	48 8b d8	 mov	 rbx, rax
  00092	48 85 c0	 test	 rax, rax
  00095	75 7e		 jne	 SHORT $LN27@LoadStrA

; 299  : 		if (::LoadStringA(hI ? hI : defaultStrInstance, resId, buf, sizeof(buf)) >= 0) {

  00097	41 b9 00 04 00
	00		 mov	 r9d, 1024		; 00000400H
  0009d	4c 8d 44 24 30	 lea	 r8, QWORD PTR buf$[rsp]
  000a2	8b d7		 mov	 edx, edi
  000a4	48 8b 0d 00 00
	00 00		 mov	 rcx, QWORD PTR ?defaultStrInstance@@3PEAUHINSTANCE__@@EA ; defaultStrInstance
  000ab	ff 15 00 00 00
	00		 call	 QWORD PTR __imp_LoadStringA
  000b1	85 c0		 test	 eax, eax
  000b3	78 5b		 js	 SHORT $LN10@LoadStrA

; 300  : 			obj = new TResHashObj(resId, strdup(buf));

  000b5	8d 4b 28	 lea	 ecx, QWORD PTR [rbx+40]
  000b8	e8 00 00 00 00	 call	 ??2@YAPEAX_K@Z		; operator new
  000bd	48 8b d8	 mov	 rbx, rax
  000c0	48 89 44 24 20	 mov	 QWORD PTR $T1[rsp], rax
  000c5	48 8d 4c 24 30	 lea	 rcx, QWORD PTR buf$[rsp]
  000ca	e8 00 00 00 00	 call	 strdup
; File f:\software1\\fastcopy\fastcopy325src\src\tlib\tmisc.h

; 31   : 		prevHash = nextHash = NULL;

  000cf	48 89 73 10	 mov	 QWORD PTR [rbx+16], rsi
  000d3	48 89 73 08	 mov	 QWORD PTR [rbx+8], rsi

; 146  : 	TResHashObj(UINT _resId, void *_val) {

  000d7	48 8d 0d 00 00
	00 00		 lea	 rcx, OFFSET FLAT:??_7TResHashObj@@6B@
  000de	48 89 0b	 mov	 QWORD PTR [rbx], rcx

; 147  : 		hashId = _resId;
; 148  : 		val = _val;

  000e1	48 89 43 20	 mov	 QWORD PTR [rbx+32], rax
; File f:\software1\\fastcopy\fastcopy325src\src\tlib\tmisc.cpp

; 301  : 			hash->Register(obj);

  000e5	48 8b 35 00 00
	00 00		 mov	 rsi, QWORD PTR ?hash@?1??LoadStrA@@YAPEADIPEAUHINSTANCE__@@@Z@4PEAVTResHash@@EA
; File f:\software1\\fastcopy\fastcopy325src\src\tlib\tmisc.h

; 112  : 		obj->hashId = hash_id;

  000ec	89 7b 18	 mov	 DWORD PTR [rbx+24], edi

; 113  : 		if (obj->LinkHash(hashTbl + (hash_id % hashNum))) {

  000ef	33 d2		 xor	 edx, edx
  000f1	8b c7		 mov	 eax, edi
  000f3	f7 76 10	 div	 DWORD PTR [rsi+16]
  000f6	48 c1 e2 05	 shl	 rdx, 5
  000fa	48 03 56 08	 add	 rdx, QWORD PTR [rsi+8]
  000fe	48 8b cb	 mov	 rcx, rbx
  00101	ff 15 08 00 00
	00		 call	 QWORD PTR ??_7TResHashObj@@6B@+8
  00107	85 c0		 test	 eax, eax
  00109	74 0a		 je	 SHORT $LN27@LoadStrA

; 114  : 			registerNum++;

  0010b	ff 46 14	 inc	 DWORD PTR [rsi+20]
  0010e	eb 05		 jmp	 SHORT $LN27@LoadStrA
$LN10@LoadStrA:
; File f:\software1\\fastcopy\fastcopy325src\src\tlib\tmisc.cpp

; 304  : 	return	obj ? (char *)obj->val : NULL;

  00110	48 8b c6	 mov	 rax, rsi
  00113	eb 04		 jmp	 SHORT $LN11@LoadStrA
$LN27@LoadStrA:
  00115	48 8b 43 20	 mov	 rax, QWORD PTR [rbx+32]
$LN11@LoadStrA:

; 305  : }

  00119	48 8b 8c 24 30
	04 00 00	 mov	 rcx, QWORD PTR __$ArrayPad$[rsp]
  00121	48 33 cc	 xor	 rcx, rsp
  00124	e8 00 00 00 00	 call	 __security_check_cookie
  00129	4c 8d 9c 24 40
	04 00 00	 lea	 r11, QWORD PTR [rsp+1088]
  00131	49 8b 5b 18	 mov	 rbx, QWORD PTR [r11+24]
  00135	49 8b 73 20	 mov	 rsi, QWORD PTR [r11+32]
  00139	49 8b e3	 mov	 rsp, r11
  0013c	5f		 pop	 rdi
  0013d	c3		 ret	 0
?LoadStrA@@YAPEADIPEAUHINSTANCE__@@@Z ENDP		; LoadStrA
_TEXT	ENDS
;	COMDAT text$x
text$x	SEGMENT
$T1 = 32
$T2 = 32
$T3 = 40
buf$ = 48
__$ArrayPad$ = 1072
resId$ = 1104
hI$dead$ = 1112
?dtor$0@?0??LoadStrA@@YAPEADIPEAUHINSTANCE__@@@Z@4HA PROC ; `LoadStrA'::`1'::dtor$0
  00000	40 55		 push	 rbp
  00002	48 83 ec 20	 sub	 rsp, 32			; 00000020H
  00006	48 8b ea	 mov	 rbp, rdx
  00009	ba 20 00 00 00	 mov	 edx, 32			; 00000020H
  0000e	48 8b 4d 20	 mov	 rcx, QWORD PTR $T2[rbp]
  00012	e8 00 00 00 00	 call	 ??3@YAXPEAX_K@Z		; operator delete
  00017	48 83 c4 20	 add	 rsp, 32			; 00000020H
  0001b	5d		 pop	 rbp
  0001c	c3		 ret	 0
?dtor$0@?0??LoadStrA@@YAPEADIPEAUHINSTANCE__@@@Z@4HA ENDP ; `LoadStrA'::`1'::dtor$0
text$x	ENDS
; Function compile flags: /Ogtpy
;	COMDAT text$x
text$x	SEGMENT
$T1 = 32
$T2 = 32
$T3 = 40
buf$ = 48
__$ArrayPad$ = 1072
resId$ = 1104
hI$dead$ = 1112
?dtor$0@?0??LoadStrA@@YAPEADIPEAUHINSTANCE__@@@Z@4HA PROC ; `LoadStrA'::`1'::dtor$0
  00000	40 55		 push	 rbp
  00002	48 83 ec 20	 sub	 rsp, 32			; 00000020H
  00006	48 8b ea	 mov	 rbp, rdx
  00009	ba 20 00 00 00	 mov	 edx, 32			; 00000020H
  0000e	48 8b 4d 20	 mov	 rcx, QWORD PTR $T2[rbp]
  00012	e8 00 00 00 00	 call	 ??3@YAXPEAX_K@Z		; operator delete
  00017	48 83 c4 20	 add	 rsp, 32			; 00000020H
  0001b	5d		 pop	 rbp
  0001c	c3		 ret	 0
?dtor$0@?0??LoadStrA@@YAPEADIPEAUHINSTANCE__@@@Z@4HA ENDP ; `LoadStrA'::`1'::dtor$0
text$x	ENDS
; Function compile flags: /Ogtpy
; File f:\software1\\fastcopy\fastcopy325src\src\tlib\tmisc.cpp
; File c:\program files (x86)\windows kits\10\include\10.0.10240.0\ucrt\stdio.h
; File f:\software1\\fastcopy\fastcopy325src\src\tlib\tmisc.cpp
;	COMDAT ?Debug@@YAXPEBDZZ
_TEXT	SEGMENT
buf$ = 48
__$ArrayPad$ = 8240
fmt$ = 8288
?Debug@@YAXPEBDZZ PROC					; Debug, COMDAT

; 672  : {

$LN8:
  00000	48 89 4c 24 08	 mov	 QWORD PTR [rsp+8], rcx
  00005	48 89 54 24 10	 mov	 QWORD PTR [rsp+16], rdx
  0000a	4c 89 44 24 18	 mov	 QWORD PTR [rsp+24], r8
  0000f	4c 89 4c 24 20	 mov	 QWORD PTR [rsp+32], r9
  00014	53		 push	 rbx
  00015	57		 push	 rdi
  00016	b8 48 20 00 00	 mov	 eax, 8264		; 00002048H
  0001b	e8 00 00 00 00	 call	 __chkstk
  00020	48 2b e0	 sub	 rsp, rax
  00023	48 8b 05 00 00
	00 00		 mov	 rax, QWORD PTR __security_cookie
  0002a	48 33 c4	 xor	 rax, rsp
  0002d	48 89 84 24 30
	20 00 00	 mov	 QWORD PTR __$ArrayPad$[rsp], rax
  00035	48 8b d9	 mov	 rbx, rcx

; 673  : 	char buf[8192];
; 674  : 
; 675  : 	va_list	ap;
; 676  : 	va_start(ap, fmt);

  00038	48 8d bc 24 68
	20 00 00	 lea	 rdi, QWORD PTR fmt$[rsp+8]
; File c:\program files (x86)\windows kits\10\include\10.0.10240.0\ucrt\stdio.h

; 1386 :     int const _Result = __stdio_common_vsprintf(

  00040	e8 00 00 00 00	 call	 __local_stdio_printf_options
  00045	48 89 7c 24 28	 mov	 QWORD PTR [rsp+40], rdi
  0004a	48 8d 54 24 30	 lea	 rdx, QWORD PTR buf$[rsp]
  0004f	4c 8b cb	 mov	 r9, rbx
  00052	48 c7 44 24 20
	00 00 00 00	 mov	 QWORD PTR [rsp+32], 0
  0005b	41 b8 00 20 00
	00		 mov	 r8d, 8192		; 00002000H
  00061	48 8b 08	 mov	 rcx, QWORD PTR [rax]
  00064	48 83 c9 01	 or	 rcx, 1
  00068	e8 00 00 00 00	 call	 __stdio_common_vsprintf
; File f:\software1\\fastcopy\fastcopy325src\src\tlib\tmisc.cpp

; 679  : 	::OutputDebugString(buf);

  0006d	48 8d 4c 24 30	 lea	 rcx, QWORD PTR buf$[rsp]
  00072	ff 15 00 00 00
	00		 call	 QWORD PTR __imp_OutputDebugStringA

; 680  : }

  00078	48 8b 8c 24 30
	20 00 00	 mov	 rcx, QWORD PTR __$ArrayPad$[rsp]
  00080	48 33 cc	 xor	 rcx, rsp
  00083	e8 00 00 00 00	 call	 __security_check_cookie
  00088	48 81 c4 48 20
	00 00		 add	 rsp, 8264		; 00002048H
  0008f	5f		 pop	 rdi
  00090	5b		 pop	 rbx
  00091	c3		 ret	 0
?Debug@@YAXPEBDZZ ENDP					; Debug
_TEXT	ENDS
; Function compile flags: /Ogtpy
; File f:\software1\\fastcopy\fastcopy325src\src\tlib\tmisc.cpp
;	COMDAT ?TIsWow64@@YAHXZ
_TEXT	SEGMENT
?TIsWow64@@YAHXZ PROC					; TIsWow64, COMDAT

; 1129 : {

$LN7:
  00000	48 83 ec 28	 sub	 rsp, 40			; 00000028H

; 1130 : 	static BOOL	once = FALSE;
; 1131 : 	static BOOL	ret = FALSE;
; 1132 : 
; 1133 : 	if (!once) {

  00004	83 3d 00 00 00
	00 00		 cmp	 DWORD PTR ?once@?1??TIsWow64@@YAHXZ@4HA, 0
  0000b	75 4b		 jne	 SHORT $LN5@TIsWow64

; 1134 : 		BOOL (WINAPI *pIsWow64Process)(HANDLE, BOOL *) = (BOOL (WINAPI *)(HANDLE, BOOL *))
; 1135 : 				GetProcAddress(::GetModuleHandle("kernel32"), "IsWow64Process");

  0000d	48 8d 0d 00 00
	00 00		 lea	 rcx, OFFSET FLAT:??_C@_08PNLNEKOB@kernel32?$AA@
  00014	48 89 5c 24 20	 mov	 QWORD PTR [rsp+32], rbx
  00019	ff 15 00 00 00
	00		 call	 QWORD PTR __imp_GetModuleHandleA
  0001f	48 8b c8	 mov	 rcx, rax
  00022	48 8d 15 00 00
	00 00		 lea	 rdx, OFFSET FLAT:??_C@_0P@LKABJJMO@IsWow64Process?$AA@
  00029	ff 15 00 00 00
	00		 call	 QWORD PTR __imp_GetProcAddress
  0002f	48 8b d8	 mov	 rbx, rax

; 1136 : 		if (pIsWow64Process) {

  00032	48 85 c0	 test	 rax, rax
  00035	74 12		 je	 SHORT $LN3@TIsWow64

; 1137 : 			pIsWow64Process(::GetCurrentProcess(), &ret);

  00037	ff 15 00 00 00
	00		 call	 QWORD PTR __imp_GetCurrentProcess
  0003d	48 8b c8	 mov	 rcx, rax
  00040	48 8d 15 00 00
	00 00		 lea	 rdx, OFFSET FLAT:?ret@?1??TIsWow64@@YAHXZ@4HA
  00047	ff d3		 call	 rbx
$LN3@TIsWow64:

; 1138 : 		}
; 1139 : 		once = TRUE;

  00049	48 8b 5c 24 20	 mov	 rbx, QWORD PTR [rsp+32]
  0004e	c7 05 00 00 00
	00 01 00 00 00	 mov	 DWORD PTR ?once@?1??TIsWow64@@YAHXZ@4HA, 1
$LN5@TIsWow64:

; 1140 : 	}
; 1141 :     return ret;

  00058	8b 05 00 00 00
	00		 mov	 eax, DWORD PTR ?ret@?1??TIsWow64@@YAHXZ@4HA

; 1142 : }

  0005e	48 83 c4 28	 add	 rsp, 40			; 00000028H
  00062	c3		 ret	 0
?TIsWow64@@YAHXZ ENDP					; TIsWow64
_TEXT	ENDS
; Function compile flags: /Ogtpy
; File f:\software1\\fastcopy\fastcopy325src\src\tlib\tmisc.cpp
;	COMDAT ?MakePath@@YAHPEADPEBD1@Z
_TEXT	SEGMENT
dest$ = 80
dir$ = 88
file$ = 96
?MakePath@@YAHPEADPEBD1@Z PROC				; MakePath, COMDAT

; 363  : {

$LN21:
  00000	48 89 6c 24 18	 mov	 QWORD PTR [rsp+24], rbp
  00005	57		 push	 rdi
  00006	41 56		 push	 r14
  00008	41 57		 push	 r15
  0000a	48 83 ec 30	 sub	 rsp, 48			; 00000030H
  0000e	4d 8b f0	 mov	 r14, r8
  00011	48 8b fa	 mov	 rdi, rdx
  00014	4c 8b f9	 mov	 r15, rcx

; 364  : 	BOOL	separetor = TRUE;

  00017	bd 01 00 00 00	 mov	 ebp, 1

; 365  : 	ssize_t	len;
; 366  : 
; 367  : 	if ((len = strlen(dir)) == 0)

  0001c	48 83 c8 ff	 or	 rax, -1
$LL17@MakePath:
  00020	48 ff c0	 inc	 rax
  00023	80 3c 02 00	 cmp	 BYTE PTR [rdx+rax], 0
  00027	75 f7		 jne	 SHORT $LL17@MakePath
  00029	48 85 c0	 test	 rax, rax
  0002c	75 1a		 jne	 SHORT $LN5@MakePath

; 368  : 		return	sprintf(dest, "%s", file);

  0002e	48 8d 15 00 00
	00 00		 lea	 rdx, OFFSET FLAT:??_C@_02DKCKIIND@?$CFs?$AA@

; 383  : }

  00035	48 8b 6c 24 60	 mov	 rbp, QWORD PTR [rsp+96]
  0003a	48 83 c4 30	 add	 rsp, 48			; 00000030H
  0003e	41 5f		 pop	 r15
  00040	41 5e		 pop	 r14
  00042	5f		 pop	 rdi

; 368  : 		return	sprintf(dest, "%s", file);

  00043	e9 00 00 00 00	 jmp	 sprintf
$LN5@MakePath:

; 369  : 
; 370  : 	if (dir[len -1] == '\\')	// 2byte'\\'

  00048	80 7c 10 ff 5c	 cmp	 BYTE PTR [rax+rdx-1], 92 ; 0000005cH
  0004d	75 63		 jne	 SHORT $LN9@MakePath

; 371  : 	{
; 372  : 		if (len >= 2 && !IsDBCSLeadByte(dir[len -2]))

  0004f	48 89 74 24 58	 mov	 QWORD PTR [rsp+88], rsi
  00054	48 83 f8 02	 cmp	 rax, 2
  00058	7c 15		 jl	 SHORT $LN7@MakePath
  0005a	0f b6 4c 10 fe	 movzx	 ecx, BYTE PTR [rax+rdx-2]
  0005f	ff 15 00 00 00
	00		 call	 QWORD PTR __imp_IsDBCSLeadByte
  00065	85 c0		 test	 eax, eax
  00067	75 06		 jne	 SHORT $LN7@MakePath

; 373  : 			separetor = FALSE;

  00069	33 f6		 xor	 esi, esi
  0006b	8b ee		 mov	 ebp, esi

; 374  : 		else {

  0006d	eb 3e		 jmp	 SHORT $LN19@MakePath
$LN7@MakePath:

; 375  : 			u_char *p=(u_char *)dir;
; 376  : 			for (; *p && p[1]; IsDBCSLeadByte(*p) ? p+=2 : p++)

  0006f	33 f6		 xor	 esi, esi
  00071	48 89 5c 24 50	 mov	 QWORD PTR [rsp+80], rbx
  00076	48 8b df	 mov	 rbx, rdi
  00079	40 38 37	 cmp	 BYTE PTR [rdi], sil
  0007c	74 24		 je	 SHORT $LN18@MakePath
  0007e	66 90		 npad	 2
$LL12@MakePath:
  00080	40 38 73 01	 cmp	 BYTE PTR [rbx+1], sil
  00084	74 1c		 je	 SHORT $LN18@MakePath
  00086	0f b6 0b	 movzx	 ecx, BYTE PTR [rbx]
  00089	ff 15 00 00 00
	00		 call	 QWORD PTR __imp_IsDBCSLeadByte
  0008f	85 c0		 test	 eax, eax
  00091	48 8b ce	 mov	 rcx, rsi
  00094	0f 95 c1	 setne	 cl
  00097	48 ff c1	 inc	 rcx
  0009a	48 03 d9	 add	 rbx, rcx
  0009d	40 38 33	 cmp	 BYTE PTR [rbx], sil
  000a0	75 de		 jne	 SHORT $LL12@MakePath
$LN18@MakePath:

; 377  : 				;
; 378  : 			if (*p == '\\')

  000a2	80 3b 5c	 cmp	 BYTE PTR [rbx], 92	; 0000005cH
  000a5	48 8b 5c 24 50	 mov	 rbx, QWORD PTR [rsp+80]
  000aa	0f 44 ee	 cmove	 ebp, esi
$LN19@MakePath:
  000ad	48 8b 74 24 58	 mov	 rsi, QWORD PTR [rsp+88]
$LN9@MakePath:
  000b2	85 ed		 test	 ebp, ebp

; 379  : 				separetor = FALSE;
; 380  : 		}
; 381  : 	}
; 382  : 	return	sprintf(dest, "%s%s%s", dir, separetor ? "\\" : "", file);

  000b4	4c 89 74 24 20	 mov	 QWORD PTR [rsp+32], r14
  000b9	48 8d 05 00 00
	00 00		 lea	 rax, OFFSET FLAT:??_C@_01KICIPPFI@?2?$AA@
  000c0	4c 8b c7	 mov	 r8, rdi
  000c3	4c 8d 0d 00 00
	00 00		 lea	 r9, OFFSET FLAT:??_C@_00CNPNBAHC@?$AA@
  000ca	49 8b cf	 mov	 rcx, r15
  000cd	4c 0f 45 c8	 cmovne	 r9, rax
  000d1	48 8d 15 00 00
	00 00		 lea	 rdx, OFFSET FLAT:??_C@_06DIJPEION@?$CFs?$CFs?$CFs?$AA@
  000d8	e8 00 00 00 00	 call	 sprintf

; 383  : }

  000dd	48 8b 6c 24 60	 mov	 rbp, QWORD PTR [rsp+96]
  000e2	48 83 c4 30	 add	 rsp, 48			; 00000030H
  000e6	41 5f		 pop	 r15
  000e8	41 5e		 pop	 r14
  000ea	5f		 pop	 rdi
  000eb	c3		 ret	 0
?MakePath@@YAHPEADPEBD1@Z ENDP				; MakePath
_TEXT	ENDS
; Function compile flags: /Ogtpy
; File f:\software1\\fastcopy\fastcopy325src\src\tlib\tmisc.cpp
;	COMDAT ?DeleteLinkW@@YAHPEA_W@Z
_TEXT	SEGMENT
dir$ = 32
__$ArrayPad$ = 560
path$ = 592
?DeleteLinkW@@YAHPEA_W@Z PROC				; DeleteLinkW, COMDAT

; 1481 : {

$LN5:
  00000	40 53		 push	 rbx
  00002	48 81 ec 40 02
	00 00		 sub	 rsp, 576		; 00000240H
  00009	48 8b 05 00 00
	00 00		 mov	 rax, QWORD PTR __security_cookie
  00010	48 33 c4	 xor	 rax, rsp
  00013	48 89 84 24 30
	02 00 00	 mov	 QWORD PTR __$ArrayPad$[rsp], rax
  0001b	48 8b d9	 mov	 rbx, rcx

; 1482 : 	WCHAR	dir[MAX_PATH];
; 1483 : 
; 1484 : 	if (!DeleteFileW(path))

  0001e	ff 15 00 00 00
	00		 call	 QWORD PTR __imp_DeleteFileW
  00024	85 c0		 test	 eax, eax
  00026	74 28		 je	 SHORT $LN1@DeleteLink
$LN2@DeleteLink:

; 1485 : 		return	FALSE;
; 1486 : 
; 1487 : 	GetParentDirW(path, dir);

  00028	48 8d 54 24 20	 lea	 rdx, QWORD PTR dir$[rsp]
  0002d	48 8b cb	 mov	 rcx, rbx
  00030	e8 00 00 00 00	 call	 ?GetParentDirW@@YAHPEB_WPEA_W@Z ; GetParentDirW

; 1488 : 	::SHChangeNotify(SHCNE_UPDATEDIR, SHCNF_PATHW|SHCNF_FLUSH, dir, NULL);

  00035	ba 05 10 00 00	 mov	 edx, 4101		; 00001005H
  0003a	4c 8d 44 24 20	 lea	 r8, QWORD PTR dir$[rsp]
  0003f	45 33 c9	 xor	 r9d, r9d
  00042	8d 4a fb	 lea	 ecx, QWORD PTR [rdx-5]
  00045	ff 15 00 00 00
	00		 call	 QWORD PTR __imp_SHChangeNotify

; 1489 : 
; 1490 : 	return	TRUE;

  0004b	b8 01 00 00 00	 mov	 eax, 1
$LN1@DeleteLink:

; 1491 : }

  00050	48 8b 8c 24 30
	02 00 00	 mov	 rcx, QWORD PTR __$ArrayPad$[rsp]
  00058	48 33 cc	 xor	 rcx, rsp
  0005b	e8 00 00 00 00	 call	 __security_check_cookie
  00060	48 81 c4 40 02
	00 00		 add	 rsp, 576		; 00000240H
  00067	5b		 pop	 rbx
  00068	c3		 ret	 0
?DeleteLinkW@@YAHPEA_W@Z ENDP				; DeleteLinkW
_TEXT	ENDS
; Function compile flags: /Ogtpy
; File f:\software1\\fastcopy\fastcopy325src\src\tlib\tmisc.cpp
;	COMDAT ?MakePathW@@YAHPEA_WPEB_W1@Z
_TEXT	SEGMENT
dest$ = 64
dir$ = 72
file$ = 80
?MakePathW@@YAHPEA_WPEB_W1@Z PROC			; MakePathW, COMDAT

; 402  : {

$LN6:
  00000	48 83 ec 38	 sub	 rsp, 56			; 00000038H

; 403  : 	ssize_t	len;
; 404  : 
; 405  : 	if ((len = wcslen(dir)) == 0)

  00004	48 83 c8 ff	 or	 rax, -1
  00008	0f 1f 84 00 00
	00 00 00	 npad	 8
$LL4@MakePathW:
  00010	48 ff c0	 inc	 rax
  00013	66 83 3c 42 00	 cmp	 WORD PTR [rdx+rax*2], 0
  00018	75 f6		 jne	 SHORT $LL4@MakePathW
  0001a	48 85 c0	 test	 rax, rax
  0001d	75 10		 jne	 SHORT $LN2@MakePathW

; 406  : 		return	swprintf(dest, L"%s", file);

  0001f	48 8d 15 00 00
	00 00		 lea	 rdx, OFFSET FLAT:??_C@_15GANGMFKL@?$AA?$CF?$AAs?$AA?$AA@

; 409  : }

  00026	48 83 c4 38	 add	 rsp, 56			; 00000038H

; 406  : 		return	swprintf(dest, L"%s", file);

  0002a	e9 00 00 00 00	 jmp	 ?swprintf@@YAHQEA_WQEB_WZZ ; swprintf
$LN2@MakePathW:

; 407  : 
; 408  : 	return	swprintf(dest, L"%s%s%s", dir, dir[len -1] == '\\' ? L"" : L"\\" , file);

  0002f	66 83 7c 42 fe
	5c		 cmp	 WORD PTR [rdx+rax*2-2], 92 ; 0000005cH
  00035	4c 8d 15 00 00
	00 00		 lea	 r10, OFFSET FLAT:??_C@_11LOCGONAA@?$AA?$AA@
  0003c	4c 89 44 24 20	 mov	 QWORD PTR [rsp+32], r8
  00041	4c 8d 0d 00 00
	00 00		 lea	 r9, OFFSET FLAT:??_C@_13FPGAJAPJ@?$AA?2?$AA?$AA@
  00048	4c 8b c2	 mov	 r8, rdx
  0004b	4d 0f 44 ca	 cmove	 r9, r10
  0004f	48 8d 15 00 00
	00 00		 lea	 rdx, OFFSET FLAT:??_C@_1O@JBBHAGJJ@?$AA?$CF?$AAs?$AA?$CF?$AAs?$AA?$CF?$AAs?$AA?$AA@
  00056	e8 00 00 00 00	 call	 ?swprintf@@YAHQEA_WQEB_WZZ ; swprintf

; 409  : }

  0005b	48 83 c4 38	 add	 rsp, 56			; 00000038H
  0005f	c3		 ret	 0
?MakePathW@@YAHPEA_WPEB_W1@Z ENDP			; MakePathW
_TEXT	ENDS
; Function compile flags: /Ogtpy
; File f:\software1\\fastcopy\fastcopy325src\src\tlib\tmisc.cpp
;	COMDAT ?SymLinkW@@YAHPEA_W00@Z
_TEXT	SEGMENT
shellLink$ = 48
persistFile$ = 56
buf$ = 64
__$ArrayPad$ = 592
src$ = 624
dest$ = 632
arg$dead$ = 640
?SymLinkW@@YAHPEA_W00@Z PROC				; SymLinkW, COMDAT

; 1427 : {

$LN8:
  00000	48 89 5c 24 18	 mov	 QWORD PTR [rsp+24], rbx
  00005	48 89 74 24 20	 mov	 QWORD PTR [rsp+32], rsi
  0000a	57		 push	 rdi
  0000b	48 81 ec 60 02
	00 00		 sub	 rsp, 608		; 00000260H
  00012	48 8b 05 00 00
	00 00		 mov	 rax, QWORD PTR __security_cookie
  00019	48 33 c4	 xor	 rax, rsp
  0001c	48 89 84 24 50
	02 00 00	 mov	 QWORD PTR __$ArrayPad$[rsp], rax
  00024	48 8b fa	 mov	 rdi, rdx

; 1428 : 	IShellLinkW		*shellLink;
; 1429 : 	IPersistFile	*persistFile;
; 1430 : 	WCHAR			*ps_dest = dest;
; 1431 : 	BOOL			ret = FALSE;
; 1432 : 	WCHAR			buf[MAX_PATH];
; 1433 : 
; 1434 : 	if (SUCCEEDED(CoCreateInstance(CLSID_ShellLink, NULL, CLSCTX_INPROC_SERVER, IID_IShellLinkW,

  00027	48 8d 44 24 30	 lea	 rax, QWORD PTR shellLink$[rsp]
  0002c	48 8b f1	 mov	 rsi, rcx
  0002f	48 89 44 24 20	 mov	 QWORD PTR [rsp+32], rax
  00034	33 db		 xor	 ebx, ebx
  00036	4c 8d 0d 00 00
	00 00		 lea	 r9, OFFSET FLAT:IID_IShellLinkW
  0003d	33 d2		 xor	 edx, edx
  0003f	48 8d 0d 00 00
	00 00		 lea	 rcx, OFFSET FLAT:CLSID_ShellLink
  00046	44 8d 43 01	 lea	 r8d, QWORD PTR [rbx+1]
  0004a	ff 15 00 00 00
	00		 call	 QWORD PTR __imp_CoCreateInstance
  00050	85 c0		 test	 eax, eax
  00052	0f 88 ae 00 00
	00		 js	 $LN6@SymLinkW

; 1435 : 			(void **)&shellLink))) {
; 1436 : 		shellLink->SetPath(src);

  00058	48 8b 4c 24 30	 mov	 rcx, QWORD PTR shellLink$[rsp]
  0005d	48 8b d6	 mov	 rdx, rsi
  00060	48 8b 01	 mov	 rax, QWORD PTR [rcx]
  00063	ff 90 a0 00 00
	00		 call	 QWORD PTR [rax+160]

; 1437 : 		shellLink->SetArguments(arg);

  00069	48 8b 4c 24 30	 mov	 rcx, QWORD PTR shellLink$[rsp]
  0006e	48 8d 15 00 00
	00 00		 lea	 rdx, OFFSET FLAT:??_C@_11LOCGONAA@?$AA?$AA@
  00075	48 8b 01	 mov	 rax, QWORD PTR [rcx]
  00078	ff 50 58	 call	 QWORD PTR [rax+88]

; 1438 : 		GetParentDirW(src, buf);

  0007b	48 8d 54 24 40	 lea	 rdx, QWORD PTR buf$[rsp]
  00080	48 8b ce	 mov	 rcx, rsi
  00083	e8 00 00 00 00	 call	 ?GetParentDirW@@YAHPEB_WPEA_W@Z ; GetParentDirW

; 1439 : 		shellLink->SetWorkingDirectory(buf);

  00088	48 8b 4c 24 30	 mov	 rcx, QWORD PTR shellLink$[rsp]
  0008d	48 8d 54 24 40	 lea	 rdx, QWORD PTR buf$[rsp]
  00092	48 8b 01	 mov	 rax, QWORD PTR [rcx]
  00095	ff 50 48	 call	 QWORD PTR [rax+72]

; 1440 : 		if (SUCCEEDED(shellLink->QueryInterface(IID_IPersistFile, (void **)&persistFile))) {

  00098	48 8b 4c 24 30	 mov	 rcx, QWORD PTR shellLink$[rsp]
  0009d	4c 8d 44 24 38	 lea	 r8, QWORD PTR persistFile$[rsp]
  000a2	48 8d 15 00 00
	00 00		 lea	 rdx, OFFSET FLAT:IID_IPersistFile
  000a9	48 8b 01	 mov	 rax, QWORD PTR [rcx]
  000ac	ff 10		 call	 QWORD PTR [rax]
  000ae	85 c0		 test	 eax, eax
  000b0	78 49		 js	 SHORT $LN3@SymLinkW

; 1441 : 			if (SUCCEEDED(persistFile->Save(ps_dest, TRUE))) {

  000b2	48 8b 4c 24 38	 mov	 rcx, QWORD PTR persistFile$[rsp]
  000b7	44 8d 43 01	 lea	 r8d, QWORD PTR [rbx+1]
  000bb	48 8b d7	 mov	 rdx, rdi
  000be	48 8b 01	 mov	 rax, QWORD PTR [rcx]
  000c1	ff 50 30	 call	 QWORD PTR [rax+48]
  000c4	85 c0		 test	 eax, eax
  000c6	78 28		 js	 SHORT $LN4@SymLinkW

; 1442 : 				ret = TRUE;
; 1443 : 				GetParentDirW(dest, buf);

  000c8	48 8d 54 24 40	 lea	 rdx, QWORD PTR buf$[rsp]
  000cd	48 8b cf	 mov	 rcx, rdi
  000d0	bb 01 00 00 00	 mov	 ebx, 1
  000d5	e8 00 00 00 00	 call	 ?GetParentDirW@@YAHPEB_WPEA_W@Z ; GetParentDirW

; 1444 : 				::SHChangeNotify(SHCNE_UPDATEDIR, SHCNF_PATHW|SHCNF_FLUSH, buf, NULL);

  000da	ba 05 10 00 00	 mov	 edx, 4101		; 00001005H
  000df	4c 8d 44 24 40	 lea	 r8, QWORD PTR buf$[rsp]
  000e4	45 33 c9	 xor	 r9d, r9d
  000e7	8d 4a fb	 lea	 ecx, QWORD PTR [rdx-5]
  000ea	ff 15 00 00 00
	00		 call	 QWORD PTR __imp_SHChangeNotify
$LN4@SymLinkW:

; 1445 : 			}
; 1446 : 			persistFile->Release();

  000f0	48 8b 4c 24 38	 mov	 rcx, QWORD PTR persistFile$[rsp]
  000f5	48 8b 11	 mov	 rdx, QWORD PTR [rcx]
  000f8	ff 52 10	 call	 QWORD PTR [rdx+16]
$LN3@SymLinkW:

; 1447 : 		}
; 1448 : 		shellLink->Release();

  000fb	48 8b 4c 24 30	 mov	 rcx, QWORD PTR shellLink$[rsp]
  00100	48 8b 11	 mov	 rdx, QWORD PTR [rcx]
  00103	ff 52 10	 call	 QWORD PTR [rdx+16]
$LN6@SymLinkW:

; 1449 : 	}
; 1450 : 	return	ret;

  00106	8b c3		 mov	 eax, ebx

; 1451 : }

  00108	48 8b 8c 24 50
	02 00 00	 mov	 rcx, QWORD PTR __$ArrayPad$[rsp]
  00110	48 33 cc	 xor	 rcx, rsp
  00113	e8 00 00 00 00	 call	 __security_check_cookie
  00118	4c 8d 9c 24 60
	02 00 00	 lea	 r11, QWORD PTR [rsp+608]
  00120	49 8b 5b 20	 mov	 rbx, QWORD PTR [r11+32]
  00124	49 8b 73 28	 mov	 rsi, QWORD PTR [r11+40]
  00128	49 8b e3	 mov	 rsp, r11
  0012b	5f		 pop	 rdi
  0012c	c3		 ret	 0
?SymLinkW@@YAHPEA_W00@Z ENDP				; SymLinkW
_TEXT	ENDS
; Function compile flags: /Ogtpy
; File f:\software1\\fastcopy\fastcopy325src\src\tlib\tmisc.cpp
;	COMDAT ?TMakeVirtualStorePathW@@YAHPEA_W0@Z
_TEXT	SEGMENT
org_path$ = 48
buf$ = 56
?TMakeVirtualStorePathW@@YAHPEA_W0@Z PROC		; TMakeVirtualStorePathW, COMDAT

; 1245 : {

$LN13:
  00000	48 89 5c 24 08	 mov	 QWORD PTR [rsp+8], rbx
  00005	57		 push	 rdi
  00006	48 83 ec 20	 sub	 rsp, 32			; 00000020H

; 1246 : 	if (!IsWinVista()) return FALSE;

  0000a	8b 05 00 00 00
	00		 mov	 eax, DWORD PTR ?TWinVersion@@3KA ; TWinVersion
  00010	48 8b fa	 mov	 rdi, rdx
  00013	48 8b d9	 mov	 rbx, rcx
  00016	3c 06		 cmp	 al, 6
  00018	0f 82 82 00 00
	00		 jb	 $LN3@TMakeVirtu
  0001e	3d 00 00 00 80	 cmp	 eax, -2147483648	; 80000000H
  00023	73 7b		 jae	 SHORT $LN3@TMakeVirtu

; 1247 : 
; 1248 : 	if (!TIsVirtualizedDirW(org_path)
; 1249 : 	|| !SHGetSpecialFolderPathW(NULL, buf, CSIDL_LOCAL_APPDATA, FALSE)
; 1250 : 	||	org_path[1] != ':' || org_path[2] != '\\') {

  00025	e8 00 00 00 00	 call	 ?TIsVirtualizedDirW@@YAHPEA_W@Z ; TIsVirtualizedDirW
  0002a	85 c0		 test	 eax, eax
  0002c	74 5e		 je	 SHORT $LN5@TMakeVirtu
  0002e	45 33 c9	 xor	 r9d, r9d
  00031	48 8b d7	 mov	 rdx, rdi
  00034	33 c9		 xor	 ecx, ecx
  00036	45 8d 41 1c	 lea	 r8d, QWORD PTR [r9+28]
  0003a	ff 15 00 00 00
	00		 call	 QWORD PTR __imp_SHGetSpecialFolderPathW
  00040	85 c0		 test	 eax, eax
  00042	74 48		 je	 SHORT $LN5@TMakeVirtu
  00044	66 83 7b 02 3a	 cmp	 WORD PTR [rbx+2], 58	; 0000003aH
  00049	75 41		 jne	 SHORT $LN5@TMakeVirtu
  0004b	66 83 7b 04 5c	 cmp	 WORD PTR [rbx+4], 92	; 0000005cH
  00050	4c 8d 43 04	 lea	 r8, QWORD PTR [rbx+4]
  00054	75 36		 jne	 SHORT $LN5@TMakeVirtu

; 1252 : 		return	FALSE;
; 1253 : 	}
; 1254 : 
; 1255 : 	swprintf(buf + wcslen(buf), L"\\VirtualStore%s", org_path + 2);

  00056	48 83 c8 ff	 or	 rax, -1
  0005a	66 0f 1f 44 00
	00		 npad	 6
$LL11@TMakeVirtu:
  00060	66 83 7c 47 02
	00		 cmp	 WORD PTR [rdi+rax*2+2], 0
  00066	48 8d 40 01	 lea	 rax, QWORD PTR [rax+1]
  0006a	75 f4		 jne	 SHORT $LL11@TMakeVirtu
  0006c	48 8d 0c 47	 lea	 rcx, QWORD PTR [rdi+rax*2]
  00070	48 8d 15 00 00
	00 00		 lea	 rdx, OFFSET FLAT:??_C@_1CA@INKEKHJP@?$AA?2?$AAV?$AAi?$AAr?$AAt?$AAu?$AAa?$AAl?$AAS?$AAt?$AAo?$AAr?$AAe?$AA?$CF?$AAs?$AA?$AA@
  00077	e8 00 00 00 00	 call	 ?swprintf@@YAHQEA_WQEB_WZZ ; swprintf

; 1256 : 	return	TRUE;

  0007c	b8 01 00 00 00	 mov	 eax, 1

; 1257 : }

  00081	48 8b 5c 24 30	 mov	 rbx, QWORD PTR [rsp+48]
  00086	48 83 c4 20	 add	 rsp, 32			; 00000020H
  0008a	5f		 pop	 rdi
  0008b	c3		 ret	 0
$LN5@TMakeVirtu:

; 1251 : 		wcscpy(buf, org_path);

  0008c	48 2b fb	 sub	 rdi, rbx
  0008f	90		 npad	 1
$LL7@TMakeVirtu:
  00090	0f b7 03	 movzx	 eax, WORD PTR [rbx]
  00093	66 89 04 1f	 mov	 WORD PTR [rdi+rbx], ax
  00097	48 8d 5b 02	 lea	 rbx, QWORD PTR [rbx+2]
  0009b	66 85 c0	 test	 ax, ax
  0009e	75 f0		 jne	 SHORT $LL7@TMakeVirtu
$LN3@TMakeVirtu:

; 1246 : 	if (!IsWinVista()) return FALSE;

  000a0	33 c0		 xor	 eax, eax

; 1257 : }

  000a2	48 8b 5c 24 30	 mov	 rbx, QWORD PTR [rsp+48]
  000a7	48 83 c4 20	 add	 rsp, 32			; 00000020H
  000ab	5f		 pop	 rdi
  000ac	c3		 ret	 0
?TMakeVirtualStorePathW@@YAHPEA_W0@Z ENDP		; TMakeVirtualStorePathW
_TEXT	ENDS
; Function compile flags: /Ogtpy
; File c:\program files (x86)\windows kits\10\include\10.0.10240.0\ucrt\string.h
;	COMDAT ?strrchr@@YAPEADQEADH@Z
_TEXT	SEGMENT
_String$ = 8
_Ch$ = 16
?strrchr@@YAPEADQEADH@Z PROC				; strrchr, COMDAT

; 531  :         return const_cast<char*>(strrchr(static_cast<char const*>(_String), _Ch));

  00000	e9 00 00 00 00	 jmp	 strrchr
?strrchr@@YAPEADQEADH@Z ENDP				; strrchr
_TEXT	ENDS
; Function compile flags: /Ogtpy
; File f:\software1\\fastcopy\fastcopy325src\src\tlib\tmisc.h
;	COMDAT ??0TResHashObj@@QEAA@IPEAX@Z
_TEXT	SEGMENT
this$ = 8
_resId$ = 16
_val$ = 24
??0TResHashObj@@QEAA@IPEAX@Z PROC			; TResHashObj::TResHashObj, COMDAT

; 31   : 		prevHash = nextHash = NULL;

  00000	33 c0		 xor	 eax, eax

; 147  : 		hashId = _resId;

  00002	89 51 18	 mov	 DWORD PTR [rcx+24], edx

; 31   : 		prevHash = nextHash = NULL;

  00005	48 89 41 10	 mov	 QWORD PTR [rcx+16], rax
  00009	48 89 41 08	 mov	 QWORD PTR [rcx+8], rax

; 146  : 	TResHashObj(UINT _resId, void *_val) {

  0000d	48 8d 05 00 00
	00 00		 lea	 rax, OFFSET FLAT:??_7TResHashObj@@6B@
  00014	48 89 01	 mov	 QWORD PTR [rcx], rax

; 148  : 		val = _val;
; 149  : 	}

  00017	48 8b c1	 mov	 rax, rcx
  0001a	4c 89 41 20	 mov	 QWORD PTR [rcx+32], r8
  0001e	c3		 ret	 0
??0TResHashObj@@QEAA@IPEAX@Z ENDP			; TResHashObj::TResHashObj
_TEXT	ENDS
; Function compile flags: /Ogtpy
; File f:\software1\\fastcopy\fastcopy325src\src\tlib\tmisc.h
;	COMDAT ??1TResHashObj@@UEAA@XZ
_TEXT	SEGMENT
this$ = 48
??1TResHashObj@@UEAA@XZ PROC				; TResHashObj::~TResHashObj, COMDAT

; 151  : 	~TResHashObj() {

$LN11:
  00000	40 53		 push	 rbx
  00002	48 83 ec 20	 sub	 rsp, 32			; 00000020H
  00006	48 8d 05 00 00
	00 00		 lea	 rax, OFFSET FLAT:??_7TResHashObj@@6B@
  0000d	48 8b d9	 mov	 rbx, rcx
  00010	48 89 01	 mov	 QWORD PTR [rcx], rax

; 152  : 		free(val);

  00013	48 8b 49 20	 mov	 rcx, QWORD PTR [rcx+32]
  00017	e8 00 00 00 00	 call	 free

; 35   : 		if (prevHash && prevHash != this) {

  0001c	48 8b 4b 08	 mov	 rcx, QWORD PTR [rbx+8]
  00020	48 8d 05 00 00
	00 00		 lea	 rax, OFFSET FLAT:??_7?$THashObjT@I@@6B@
  00027	48 89 03	 mov	 QWORD PTR [rbx], rax
  0002a	48 85 c9	 test	 rcx, rcx
  0002d	74 23		 je	 SHORT $LN7@TResHashOb
  0002f	48 3b cb	 cmp	 rcx, rbx
  00032	74 1e		 je	 SHORT $LN7@TResHashOb

; 53   : 		prevHash->nextHash = nextHash;

  00034	48 8b 43 10	 mov	 rax, QWORD PTR [rbx+16]
  00038	48 89 41 10	 mov	 QWORD PTR [rcx+16], rax

; 54   : 		nextHash->prevHash = prevHash;

  0003c	48 8b 43 08	 mov	 rax, QWORD PTR [rbx+8]
  00040	48 8b 4b 10	 mov	 rcx, QWORD PTR [rbx+16]
  00044	48 89 41 08	 mov	 QWORD PTR [rcx+8], rax

; 55   : 		prevHash = nextHash = NULL;

  00048	33 c0		 xor	 eax, eax
  0004a	48 89 43 10	 mov	 QWORD PTR [rbx+16], rax
  0004e	48 89 43 08	 mov	 QWORD PTR [rbx+8], rax
$LN7@TResHashOb:

; 153  : 	}

  00052	48 83 c4 20	 add	 rsp, 32			; 00000020H
  00056	5b		 pop	 rbx
  00057	c3		 ret	 0
??1TResHashObj@@UEAA@XZ ENDP				; TResHashObj::~TResHashObj
_TEXT	ENDS
; Function compile flags: /Ogtpy
; File f:\software1\\fastcopy\fastcopy325src\src\tlib\tmisc.h
;	COMDAT ??_GTResHashObj@@UEAAPEAXI@Z
_TEXT	SEGMENT
this$ = 48
__flags$ = 56
??_GTResHashObj@@UEAAPEAXI@Z PROC			; TResHashObj::`scalar deleting destructor', COMDAT
$LN16:
  00000	48 89 5c 24 08	 mov	 QWORD PTR [rsp+8], rbx
  00005	57		 push	 rdi
  00006	48 83 ec 20	 sub	 rsp, 32			; 00000020H

; 151  : 	~TResHashObj() {

  0000a	48 8d 05 00 00
	00 00		 lea	 rax, OFFSET FLAT:??_7TResHashObj@@6B@
  00011	48 8b d9	 mov	 rbx, rcx
  00014	48 89 01	 mov	 QWORD PTR [rcx], rax
  00017	8b fa		 mov	 edi, edx

; 152  : 		free(val);

  00019	48 8b 49 20	 mov	 rcx, QWORD PTR [rcx+32]
  0001d	e8 00 00 00 00	 call	 free

; 35   : 		if (prevHash && prevHash != this) {

  00022	48 8b 4b 08	 mov	 rcx, QWORD PTR [rbx+8]
  00026	48 8d 05 00 00
	00 00		 lea	 rax, OFFSET FLAT:??_7?$THashObjT@I@@6B@
  0002d	48 89 03	 mov	 QWORD PTR [rbx], rax
  00030	48 85 c9	 test	 rcx, rcx
  00033	74 23		 je	 SHORT $LN11@scalar
  00035	48 3b cb	 cmp	 rcx, rbx
  00038	74 1e		 je	 SHORT $LN11@scalar

; 53   : 		prevHash->nextHash = nextHash;

  0003a	48 8b 43 10	 mov	 rax, QWORD PTR [rbx+16]
  0003e	48 89 41 10	 mov	 QWORD PTR [rcx+16], rax

; 54   : 		nextHash->prevHash = prevHash;

  00042	48 8b 43 08	 mov	 rax, QWORD PTR [rbx+8]
  00046	48 8b 4b 10	 mov	 rcx, QWORD PTR [rbx+16]
  0004a	48 89 41 08	 mov	 QWORD PTR [rcx+8], rax

; 55   : 		prevHash = nextHash = NULL;

  0004e	33 c0		 xor	 eax, eax
  00050	48 89 43 10	 mov	 QWORD PTR [rbx+16], rax
  00054	48 89 43 08	 mov	 QWORD PTR [rbx+8], rax
$LN11@scalar:
  00058	40 f6 c7 01	 test	 dil, 1
  0005c	74 0d		 je	 SHORT $LN14@scalar
  0005e	ba 28 00 00 00	 mov	 edx, 40			; 00000028H
  00063	48 8b cb	 mov	 rcx, rbx
  00066	e8 00 00 00 00	 call	 ??3@YAXPEAX_K@Z		; operator delete
$LN14@scalar:
  0006b	48 8b c3	 mov	 rax, rbx
  0006e	48 8b 5c 24 30	 mov	 rbx, QWORD PTR [rsp+48]
  00073	48 83 c4 20	 add	 rsp, 32			; 00000020H
  00077	5f		 pop	 rdi
  00078	c3		 ret	 0
??_GTResHashObj@@UEAAPEAXI@Z ENDP			; TResHashObj::`scalar deleting destructor'
_TEXT	ENDS
; Function compile flags: /Ogtpy
; File f:\software1\\fastcopy\fastcopy325src\src\tlib\tmisc.h
;	COMDAT ?IsSameVal@TResHash@@MEAAHPEAV?$THashObjT@I@@PEBX@Z
_TEXT	SEGMENT
this$ = 8
obj$ = 16
val$ = 24
?IsSameVal@TResHash@@MEAAHPEAV?$THashObjT@I@@PEBX@Z PROC ; TResHash::IsSameVal, COMDAT

; 160  : 		return obj->hashId == *(u_int *)val;

  00000	41 8b 08	 mov	 ecx, DWORD PTR [r8]
  00003	33 c0		 xor	 eax, eax
  00005	39 4a 18	 cmp	 DWORD PTR [rdx+24], ecx
  00008	0f 94 c0	 sete	 al

; 161  : 	}

  0000b	c3		 ret	 0
?IsSameVal@TResHash@@MEAAHPEAV?$THashObjT@I@@PEBX@Z ENDP ; TResHash::IsSameVal
_TEXT	ENDS
; Function compile flags: /Ogtpy
; File f:\software1\\fastcopy\fastcopy325src\src\tlib\tmisc.h
;	COMDAT ??0TResHash@@QEAA@H@Z
_TEXT	SEGMENT
this$ = 48
_hashNum$dead$ = 56
??0TResHash@@QEAA@H@Z PROC				; TResHash::TResHash, COMDAT

; 164  : 	TResHash(int _hashNum) : THashTbl(_hashNum) {}

$LN8:
  00000	40 53		 push	 rbx
  00002	48 83 ec 20	 sub	 rsp, 32			; 00000020H

; 71   : 	THashTblT(int _hashNum=0, BOOL _isDeleteObj=TRUE) {

  00006	48 8d 05 00 00
	00 00		 lea	 rax, OFFSET FLAT:??_7?$THashTblT@I@@6B@

; 74   : 		isDeleteObj = _isDeleteObj;

  0000d	c7 41 18 01 00
	00 00		 mov	 DWORD PTR [rcx+24], 1
  00014	48 89 01	 mov	 QWORD PTR [rcx], rax

; 75   : 		if ((hashNum = _hashNum) > 0) {
; 76   : 			Init(hashNum);

  00017	ba e8 03 00 00	 mov	 edx, 1000		; 000003e8H
  0001c	33 c0		 xor	 eax, eax
  0001e	c7 41 10 e8 03
	00 00		 mov	 DWORD PTR [rcx+16], 1000 ; 000003e8H
  00025	48 89 41 08	 mov	 QWORD PTR [rcx+8], rax

; 164  : 	TResHash(int _hashNum) : THashTbl(_hashNum) {}

  00029	48 8b d9	 mov	 rbx, rcx

; 73   : 		registerNum = 0;

  0002c	89 41 14	 mov	 DWORD PTR [rcx+20], eax

; 75   : 		if ((hashNum = _hashNum) > 0) {
; 76   : 			Init(hashNum);

  0002f	e8 00 00 00 00	 call	 ?Init@?$THashTblT@I@@UEAAHH@Z ; THashTblT<unsigned int>::Init

; 164  : 	TResHash(int _hashNum) : THashTbl(_hashNum) {}

  00034	48 8d 05 00 00
	00 00		 lea	 rax, OFFSET FLAT:??_7TResHash@@6B@
  0003b	48 89 03	 mov	 QWORD PTR [rbx], rax
  0003e	48 8b c3	 mov	 rax, rbx
  00041	48 83 c4 20	 add	 rsp, 32			; 00000020H
  00045	5b		 pop	 rbx
  00046	c3		 ret	 0
??0TResHash@@QEAA@H@Z ENDP				; TResHash::TResHash
_TEXT	ENDS
; Function compile flags: /Ogtpy
; File f:\software1\\fastcopy\fastcopy325src\src\tlib\tmisc.h
;	COMDAT ?Search@TResHash@@QEAAPEAUTResHashObj@@I@Z
_TEXT	SEGMENT
this$dead$ = 48
resId$ = 56
?Search@TResHash@@QEAAPEAUTResHashObj@@I@Z PROC		; TResHash::Search, COMDAT

; 165  : 	TResHashObj	*Search(UINT resId) {

$LN16:
  00000	48 89 5c 24 08	 mov	 QWORD PTR [rsp+8], rbx
  00005	48 89 6c 24 18	 mov	 QWORD PTR [rsp+24], rbp
  0000a	48 89 74 24 20	 mov	 QWORD PTR [rsp+32], rsi
  0000f	89 54 24 10	 mov	 DWORD PTR [rsp+16], edx
  00013	57		 push	 rdi
  00014	48 83 ec 20	 sub	 rsp, 32			; 00000020H
  00018	48 8b 35 00 00
	00 00		 mov	 rsi, QWORD PTR ?hash@?1??LoadStrA@@YAPEADIPEAUHINSTANCE__@@@Z@4PEAVTResHash@@EA
  0001f	8b ea		 mov	 ebp, edx

; 123  : 		THashObjT<T> *top = hashTbl + (hash_id % hashNum);

  00021	33 d2		 xor	 edx, edx
  00023	8b c5		 mov	 eax, ebp
  00025	f7 76 10	 div	 DWORD PTR [rsi+16]
  00028	8b fa		 mov	 edi, edx
  0002a	48 c1 e7 05	 shl	 rdi, 5
  0002e	48 03 7e 08	 add	 rdi, QWORD PTR [rsi+8]

; 124  : 		for (THashObjT<T> *obj=top->nextHash; obj != top; obj=obj->nextHash) {

  00032	48 8b 5f 10	 mov	 rbx, QWORD PTR [rdi+16]
  00036	48 3b df	 cmp	 rbx, rdi
  00039	74 27		 je	 SHORT $LN14@Search
  0003b	0f 1f 44 00 00	 npad	 5
$LL6@Search:

; 125  : 			if (obj->hashId == hash_id && IsSameVal(obj, data)) {

  00040	39 6b 18	 cmp	 DWORD PTR [rbx+24], ebp
  00043	75 14		 jne	 SHORT $LN4@Search
  00045	48 8b 06	 mov	 rax, QWORD PTR [rsi]
  00048	4c 8d 44 24 38	 lea	 r8, QWORD PTR resId$[rsp]
  0004d	48 8b d3	 mov	 rdx, rbx
  00050	48 8b ce	 mov	 rcx, rsi
  00053	ff 10		 call	 QWORD PTR [rax]
  00055	85 c0		 test	 eax, eax
  00057	75 20		 jne	 SHORT $LN10@Search
$LN4@Search:

; 124  : 		for (THashObjT<T> *obj=top->nextHash; obj != top; obj=obj->nextHash) {

  00059	48 8b 5b 10	 mov	 rbx, QWORD PTR [rbx+16]
  0005d	48 3b df	 cmp	 rbx, rdi
  00060	75 de		 jne	 SHORT $LL6@Search
$LN14@Search:

; 166  : 		return (TResHashObj *)THashTbl::Search(&resId, resId);

  00062	33 c0		 xor	 eax, eax
$LN3@Search:

; 167  : 	}

  00064	48 8b 5c 24 30	 mov	 rbx, QWORD PTR [rsp+48]
  00069	48 8b 6c 24 40	 mov	 rbp, QWORD PTR [rsp+64]
  0006e	48 8b 74 24 48	 mov	 rsi, QWORD PTR [rsp+72]
  00073	48 83 c4 20	 add	 rsp, 32			; 00000020H
  00077	5f		 pop	 rdi
  00078	c3		 ret	 0
$LN10@Search:

; 166  : 		return (TResHashObj *)THashTbl::Search(&resId, resId);

  00079	48 8b c3	 mov	 rax, rbx

; 126  : 				return obj;

  0007c	eb e6		 jmp	 SHORT $LN3@Search
?Search@TResHash@@QEAAPEAUTResHashObj@@I@Z ENDP		; TResHash::Search
_TEXT	ENDS
; Function compile flags: /Ogtpy
; File f:\software1\\fastcopy\fastcopy325src\src\tlib\tmisc.h
;	COMDAT ?Register@TResHash@@QEAAXPEAUTResHashObj@@@Z
_TEXT	SEGMENT
this$dead$ = 48
obj$ = 56
?Register@TResHash@@QEAAXPEAUTResHashObj@@@Z PROC	; TResHash::Register, COMDAT

; 168  : 	void	Register(TResHashObj *obj) {

$LN7:
  00000	40 53		 push	 rbx
  00002	48 83 ec 20	 sub	 rsp, 32			; 00000020H

; 113  : 		if (obj->LinkHash(hashTbl + (hash_id % hashNum))) {

  00006	4c 8b 02	 mov	 r8, QWORD PTR [rdx]

; 168  : 	void	Register(TResHashObj *obj) {

  00009	4c 8b ca	 mov	 r9, rdx
  0000c	48 8b 1d 00 00
	00 00		 mov	 rbx, QWORD PTR ?hash@?1??LoadStrA@@YAPEADIPEAUHINSTANCE__@@@Z@4PEAVTResHash@@EA

; 113  : 		if (obj->LinkHash(hashTbl + (hash_id % hashNum))) {

  00013	33 d2		 xor	 edx, edx
  00015	49 8b c9	 mov	 rcx, r9
  00018	41 8b 41 18	 mov	 eax, DWORD PTR [r9+24]
  0001c	f7 73 10	 div	 DWORD PTR [rbx+16]
  0001f	48 c1 e2 05	 shl	 rdx, 5
  00023	48 03 53 08	 add	 rdx, QWORD PTR [rbx+8]
  00027	41 ff 50 08	 call	 QWORD PTR [r8+8]
  0002b	85 c0		 test	 eax, eax
  0002d	74 03		 je	 SHORT $LN4@Register

; 114  : 			registerNum++;

  0002f	ff 43 14	 inc	 DWORD PTR [rbx+20]
$LN4@Register:

; 169  : 		THashTbl::Register(obj, obj->hashId);
; 170  : 	}

  00032	48 83 c4 20	 add	 rsp, 32			; 00000020H
  00036	5b		 pop	 rbx
  00037	c3		 ret	 0
?Register@TResHash@@QEAAXPEAUTResHashObj@@@Z ENDP	; TResHash::Register
_TEXT	ENDS
; Function compile flags: /Ogtpy
; File f:\software1\\fastcopy\fastcopy325src\src\tlib\tmisc.h
;	COMDAT ??_GTResHash@@UEAAPEAXI@Z
_TEXT	SEGMENT
$T1 = 32
this$ = 64
__flags$ = 72
??_GTResHash@@UEAAPEAXI@Z PROC				; TResHash::`scalar deleting destructor', COMDAT
$LN11:
  00000	40 57		 push	 rdi
  00002	48 83 ec 30	 sub	 rsp, 48			; 00000030H
  00006	48 c7 44 24 20
	fe ff ff ff	 mov	 QWORD PTR $T1[rsp], -2
  0000f	48 89 5c 24 40	 mov	 QWORD PTR [rsp+64], rbx
  00014	8b da		 mov	 ebx, edx
  00016	48 8b f9	 mov	 rdi, rcx

; 79   : 	virtual ~THashTblT() { UnInit(); }

  00019	48 8d 05 00 00
	00 00		 lea	 rax, OFFSET FLAT:??_7?$THashTblT@I@@6B@
  00020	48 89 01	 mov	 QWORD PTR [rcx], rax
  00023	e8 00 00 00 00	 call	 ?UnInit@?$THashTblT@I@@UEAAXXZ ; THashTblT<unsigned int>::UnInit
  00028	90		 npad	 1
  00029	f6 c3 01	 test	 bl, 1
  0002c	74 0e		 je	 SHORT $LN10@scalar
  0002e	ba 20 00 00 00	 mov	 edx, 32			; 00000020H
  00033	48 8b cf	 mov	 rcx, rdi
  00036	e8 00 00 00 00	 call	 ??3@YAXPEAX_K@Z		; operator delete
  0003b	90		 npad	 1
$LN10@scalar:
  0003c	48 8b c7	 mov	 rax, rdi
  0003f	48 8b 5c 24 40	 mov	 rbx, QWORD PTR [rsp+64]
  00044	48 83 c4 30	 add	 rsp, 48			; 00000030H
  00048	5f		 pop	 rdi
  00049	c3		 ret	 0
??_GTResHash@@UEAAPEAXI@Z ENDP				; TResHash::`scalar deleting destructor'
_TEXT	ENDS
; Function compile flags: /Ogtpy
; File f:\software1\\fastcopy\fastcopy325src\src\tlib\tmisc.h
;	COMDAT ??1TResHash@@UEAA@XZ
_TEXT	SEGMENT
$T1 = 32
this$ = 64
??1TResHash@@UEAA@XZ PROC				; TResHash::~TResHash, COMDAT
$LN6:
  00000	48 83 ec 38	 sub	 rsp, 56			; 00000038H
  00004	48 c7 44 24 20
	fe ff ff ff	 mov	 QWORD PTR $T1[rsp], -2

; 79   : 	virtual ~THashTblT() { UnInit(); }

  0000d	48 8d 05 00 00
	00 00		 lea	 rax, OFFSET FLAT:??_7?$THashTblT@I@@6B@
  00014	48 89 01	 mov	 QWORD PTR [rcx], rax
  00017	e8 00 00 00 00	 call	 ?UnInit@?$THashTblT@I@@UEAAXXZ ; THashTblT<unsigned int>::UnInit
  0001c	90		 npad	 1
  0001d	48 83 c4 38	 add	 rsp, 56			; 00000038H
  00021	c3		 ret	 0
??1TResHash@@UEAA@XZ ENDP				; TResHash::~TResHash
_TEXT	ENDS
; Function compile flags: /Ogtpy
; File f:\software1\\fastcopy\fastcopy325src\src\tlib\tlib.h
;	COMDAT ??0TRect@@QEAA@JJJJ@Z
_TEXT	SEGMENT
this$ = 8
x$dead$ = 16
y$dead$ = 24
cx$dead$ = 32
cy$dead$ = 40
??0TRect@@QEAA@JJJJ@Z PROC				; TRect::TRect, COMDAT

; 274  : 		left   = x;

  00000	33 c0		 xor	 eax, eax
  00002	48 89 01	 mov	 QWORD PTR [rcx], rax

; 275  : 		top    = y;
; 276  : 		right  = x + cx;

  00005	48 89 41 08	 mov	 QWORD PTR [rcx+8], rax

; 243  : 		Init(x, y, cx, cy);
; 244  : 	}

  00009	48 8b c1	 mov	 rax, rcx
  0000c	c3		 ret	 0
??0TRect@@QEAA@JJJJ@Z ENDP				; TRect::TRect
_TEXT	ENDS
; Function compile flags: /Ogtpy
; File f:\software1\\fastcopy\fastcopy325src\src\tlib\tlib.h
;	COMDAT ?Init@TRect@@QEAAXJJJJ@Z
_TEXT	SEGMENT
this$ = 8
x$dead$ = 16
y$dead$ = 24
cx$dead$ = 32
cy$dead$ = 40
?Init@TRect@@QEAAXJJJJ@Z PROC				; TRect::Init, COMDAT

; 274  : 		left   = x;

  00000	33 c0		 xor	 eax, eax
  00002	48 89 01	 mov	 QWORD PTR [rcx], rax

; 275  : 		top    = y;
; 276  : 		right  = x + cx;

  00005	48 89 41 08	 mov	 QWORD PTR [rcx+8], rax

; 277  : 		bottom = y + cy;
; 278  : 	}

  00009	c3		 ret	 0
?Init@TRect@@QEAAXJJJJ@Z ENDP				; TRect::Init
_TEXT	ENDS
; Function compile flags: /Ogtpy
; File f:\software1\\fastcopy\fastcopy325src\src\tlib\tapi32u8.h
;	COMDAT ?s@Wstr@@QEBAPEB_WXZ
_TEXT	SEGMENT
this$ = 8
?s@Wstr@@QEBAPEB_WXZ PROC				; Wstr::s, COMDAT

; 172  : 		return str ? str : L"";

  00000	48 8b 11	 mov	 rdx, QWORD PTR [rcx]
  00003	48 8d 05 00 00
	00 00		 lea	 rax, OFFSET FLAT:??_C@_11LOCGONAA@?$AA?$AA@
  0000a	48 85 d2	 test	 rdx, rdx
  0000d	48 0f 45 c2	 cmovne	 rax, rdx

; 173  : 	}

  00011	c3		 ret	 0
?s@Wstr@@QEBAPEB_WXZ ENDP				; Wstr::s
_TEXT	ENDS
; Function compile flags: /Ogtpy
; File f:\software1\\fastcopy\fastcopy325src\src\tlib\tmisc.cpp
;	COMDAT ??__ETWinVersion@@YAXXZ
text$di	SEGMENT
??__ETWinVersion@@YAXXZ PROC				; `dynamic initializer for 'TWinVersion'', COMDAT

; 20   : DWORD TWinVersion = ::GetVersion();

  00000	48 83 ec 28	 sub	 rsp, 40			; 00000028H
  00004	ff 15 00 00 00
	00		 call	 QWORD PTR __imp_GetVersion
  0000a	89 05 00 00 00
	00		 mov	 DWORD PTR ?TWinVersion@@3KA, eax ; TWinVersion
  00010	48 83 c4 28	 add	 rsp, 40			; 00000028H
  00014	c3		 ret	 0
??__ETWinVersion@@YAXXZ ENDP				; `dynamic initializer for 'TWinVersion''
text$di	ENDS
; Function compile flags: /Ogtpy
; File f:\software1\\fastcopy\fastcopy325src\src\tlib\tmisc.cpp
;	COMDAT ?InitInstanceForLoadStr@@YAXPEAUHINSTANCE__@@@Z
_TEXT	SEGMENT
hI$ = 8
?InitInstanceForLoadStr@@YAXPEAUHINSTANCE__@@@Z PROC	; InitInstanceForLoadStr, COMDAT

; 284  : 	defaultStrInstance = hI;

  00000	48 89 0d 00 00
	00 00		 mov	 QWORD PTR ?defaultStrInstance@@3PEAUHINSTANCE__@@EA, rcx ; defaultStrInstance

; 285  : }

  00007	c3		 ret	 0
?InitInstanceForLoadStr@@YAXPEAUHINSTANCE__@@@Z ENDP	; InitInstanceForLoadStr
_TEXT	ENDS
; Function compile flags: /Ogtpy
; File f:\software1\\fastcopy\fastcopy325src\src\tlib\tmisc.cpp
;	COMDAT ?TSetDefaultLCID@@YAXK@Z
_TEXT	SEGMENT
lcid$dead$ = 48
?TSetDefaultLCID@@YAXK@Z PROC				; TSetDefaultLCID, COMDAT

; 331  : {

$LN6:
  00000	48 83 ec 28	 sub	 rsp, 40			; 00000028H

; 332  : 	defaultLCID = lcid ? lcid : ::GetSystemDefaultLCID();

  00004	ff 15 00 00 00
	00		 call	 QWORD PTR __imp_GetSystemDefaultLCID
  0000a	89 05 00 00 00
	00		 mov	 DWORD PTR ?defaultLCID@@3KA, eax

; 335  : }

  00010	48 83 c4 28	 add	 rsp, 40			; 00000028H

; 333  : 
; 334  : 	TSetThreadLocale(defaultLCID);

  00014	e9 00 00 00 00	 jmp	 ?TSetThreadLocale@@YAHH@Z ; TSetThreadLocale
?TSetDefaultLCID@@YAXK@Z ENDP				; TSetDefaultLCID
_TEXT	ENDS
; Function compile flags: /Ogtpy
; File f:\software1\\fastcopy\fastcopy325src\src\tlib\tmisc.cpp
;	COMDAT ?TSetThreadLocale@@YAHH@Z
_TEXT	SEGMENT
lcid$dead$ = 48
?TSetThreadLocale@@YAHH@Z PROC				; TSetThreadLocale, COMDAT

; 1281 : {

$LN7:
  00000	40 53		 push	 rbx
  00002	48 83 ec 20	 sub	 rsp, 32			; 00000020H

; 1282 : 	static BOOL	once = FALSE;
; 1283 : 	static LANGID (WINAPI *pSetThreadUILanguage)(LANGID LangId);
; 1284 : 
; 1285 : 	if (!once) {

  00006	83 3d 00 00 00
	00 00		 cmp	 DWORD PTR ?once@?1??TSetThreadLocale@@YAHH@Z@4HA, 0
  0000d	8b 1d 00 00 00
	00		 mov	 ebx, DWORD PTR ?defaultLCID@@3KA
  00013	75 30		 jne	 SHORT $LN5@TSetThread

; 1286 : //		if (IsWinVista()) {	// ignore if XP
; 1287 : 			pSetThreadUILanguage = (LANGID (WINAPI *)(LANGID LangId))

  00015	48 8d 0d 00 00
	00 00		 lea	 rcx, OFFSET FLAT:??_C@_08PNLNEKOB@kernel32?$AA@
  0001c	ff 15 00 00 00
	00		 call	 QWORD PTR __imp_GetModuleHandleA
  00022	48 8b c8	 mov	 rcx, rax
  00025	48 8d 15 00 00
	00 00		 lea	 rdx, OFFSET FLAT:??_C@_0BE@FGMANJOG@SetThreadUILanguage?$AA@
  0002c	ff 15 00 00 00
	00		 call	 QWORD PTR __imp_GetProcAddress
  00032	48 89 05 00 00
	00 00		 mov	 QWORD PTR ?pSetThreadUILanguage@?1??TSetThreadLocale@@YAHH@Z@4P6AGG@ZEA, rax

; 1288 : 				GetProcAddress(::GetModuleHandle("kernel32"), "SetThreadUILanguage");
; 1289 : //		}
; 1290 : 		once = TRUE;

  00039	c7 05 00 00 00
	00 01 00 00 00	 mov	 DWORD PTR ?once@?1??TSetThreadLocale@@YAHH@Z@4HA, 1
  00043	eb 07		 jmp	 SHORT $LN2@TSetThread
$LN5@TSetThread:
  00045	48 8b 05 00 00
	00 00		 mov	 rax, QWORD PTR ?pSetThreadUILanguage@?1??TSetThreadLocale@@YAHH@Z@4P6AGG@ZEA
$LN2@TSetThread:

; 1291 : 	}
; 1292 : 
; 1293 : 	if (pSetThreadUILanguage) {

  0004c	48 85 c0	 test	 rax, rax
  0004f	74 05		 je	 SHORT $LN3@TSetThread

; 1294 : 		pSetThreadUILanguage(LANGIDFROMLCID(lcid));

  00051	0f b7 cb	 movzx	 ecx, bx
  00054	ff d0		 call	 rax
$LN3@TSetThread:

; 1295 : 	}
; 1296 : 	return ::SetThreadLocale(lcid);

  00056	8b cb		 mov	 ecx, ebx

; 1297 : }

  00058	48 83 c4 20	 add	 rsp, 32			; 00000020H
  0005c	5b		 pop	 rbx

; 1295 : 	}
; 1296 : 	return ::SetThreadLocale(lcid);

  0005d	48 ff 25 00 00
	00 00		 rex_jmp QWORD PTR __imp_SetThreadLocale
?TSetThreadLocale@@YAHH@Z ENDP				; TSetThreadLocale
_TEXT	ENDS
; Function compile flags: /Ogtpy
; File f:\software1\\fastcopy\fastcopy325src\src\tlib\tmisc.cpp
;	COMDAT ?TSwitchToThisWindow@@YAXPEAUHWND__@@H@Z
_TEXT	SEGMENT
hWnd$ = 48
flg$dead$ = 56
?TSwitchToThisWindow@@YAXPEAUHWND__@@H@Z PROC		; TSwitchToThisWindow, COMDAT

; 1394 : {

$LN7:
  00000	40 53		 push	 rbx
  00002	48 83 ec 20	 sub	 rsp, 32			; 00000020H

; 1395 : 	static BOOL	once = FALSE;
; 1396 : 	static void	(WINAPI *pSwitchToThisWindow)(HWND, BOOL);
; 1397 : 
; 1398 : 	if (!once) {

  00006	83 3d 00 00 00
	00 00		 cmp	 DWORD PTR ?once@?1??TSwitchToThisWindow@@YAXPEAUHWND__@@H@Z@4HA, 0
  0000d	48 8b d9	 mov	 rbx, rcx
  00010	75 30		 jne	 SHORT $LN5@TSwitchToT

; 1399 : 		pSwitchToThisWindow = (void (WINAPI *)(HWND, BOOL))

  00012	48 8d 0d 00 00
	00 00		 lea	 rcx, OFFSET FLAT:??_C@_06KMMDPPA@user32?$AA@
  00019	ff 15 00 00 00
	00		 call	 QWORD PTR __imp_GetModuleHandleA
  0001f	48 8b c8	 mov	 rcx, rax
  00022	48 8d 15 00 00
	00 00		 lea	 rdx, OFFSET FLAT:??_C@_0BD@DGOJMNDA@SwitchToThisWindow?$AA@
  00029	ff 15 00 00 00
	00		 call	 QWORD PTR __imp_GetProcAddress
  0002f	48 89 05 00 00
	00 00		 mov	 QWORD PTR ?pSwitchToThisWindow@?1??TSwitchToThisWindow@@YAXPEAUHWND__@@H@Z@4P6AX0H@ZEA, rax

; 1400 : 			GetProcAddress(::GetModuleHandle("user32"), "SwitchToThisWindow");
; 1401 : 		once = TRUE;

  00036	c7 05 00 00 00
	00 01 00 00 00	 mov	 DWORD PTR ?once@?1??TSwitchToThisWindow@@YAXPEAUHWND__@@H@Z@4HA, 1
  00040	eb 07		 jmp	 SHORT $LN2@TSwitchToT
$LN5@TSwitchToT:
  00042	48 8b 05 00 00
	00 00		 mov	 rax, QWORD PTR ?pSwitchToThisWindow@?1??TSwitchToThisWindow@@YAXPEAUHWND__@@H@Z@4P6AX0H@ZEA
$LN2@TSwitchToT:

; 1402 : 	}
; 1403 : 
; 1404 : 	if (pSwitchToThisWindow) {

  00049	48 85 c0	 test	 rax, rax
  0004c	74 10		 je	 SHORT $LN3@TSwitchToT

; 1405 : 		pSwitchToThisWindow(hWnd, flg);

  0004e	ba 01 00 00 00	 mov	 edx, 1
  00053	48 8b cb	 mov	 rcx, rbx

; 1406 : 	}
; 1407 : }

  00056	48 83 c4 20	 add	 rsp, 32			; 00000020H
  0005a	5b		 pop	 rbx

; 1405 : 		pSwitchToThisWindow(hWnd, flg);

  0005b	48 ff e0	 rex_jmp rax
$LN3@TSwitchToT:

; 1406 : 	}
; 1407 : }

  0005e	48 83 c4 20	 add	 rsp, 32			; 00000020H
  00062	5b		 pop	 rbx
  00063	c3		 ret	 0
?TSwitchToThisWindow@@YAXPEAUHWND__@@H@Z ENDP		; TSwitchToThisWindow
_TEXT	ENDS
; Function compile flags: /Ogtpy
; File f:\software1\\fastcopy\fastcopy325src\src\tlib\tmisc.cpp
;	COMDAT ?GetParentDirW@@YAHPEB_WPEA_W@Z
_TEXT	SEGMENT
fname$ = 32
path$ = 48
__$ArrayPad$ = 576
srcfile$ = 608
dir$ = 616
?GetParentDirW@@YAHPEB_WPEA_W@Z PROC			; GetParentDirW, COMDAT

; 1497 : {

$LN17:
  00000	48 89 5c 24 18	 mov	 QWORD PTR [rsp+24], rbx
  00005	48 89 74 24 20	 mov	 QWORD PTR [rsp+32], rsi
  0000a	57		 push	 rdi
  0000b	48 81 ec 50 02
	00 00		 sub	 rsp, 592		; 00000250H
  00012	48 8b 05 00 00
	00 00		 mov	 rax, QWORD PTR __security_cookie
  00019	48 33 c4	 xor	 rax, rsp
  0001c	48 89 84 24 40
	02 00 00	 mov	 QWORD PTR __$ArrayPad$[rsp], rax
  00024	48 8b fa	 mov	 rdi, rdx

; 1498 : 	WCHAR	path[MAX_PATH], *fname=NULL;
; 1499 : 
; 1500 : 	if (GetFullPathNameW(srcfile, MAX_PATH, path, &fname) == 0 || fname == NULL)

  00027	4c 8d 4c 24 20	 lea	 r9, QWORD PTR fname$[rsp]
  0002c	33 f6		 xor	 esi, esi
  0002e	4c 8d 44 24 30	 lea	 r8, QWORD PTR path$[rsp]
  00033	ba 04 01 00 00	 mov	 edx, 260		; 00000104H
  00038	48 89 74 24 20	 mov	 QWORD PTR fname$[rsp], rsi
  0003d	48 8b d9	 mov	 rbx, rcx
  00040	ff 15 00 00 00
	00		 call	 QWORD PTR __imp_GetFullPathNameW
  00046	85 c0		 test	 eax, eax
  00048	74 5d		 je	 SHORT $LN3@GetParentD
  0004a	48 8b 4c 24 20	 mov	 rcx, QWORD PTR fname$[rsp]
  0004f	48 85 c9	 test	 rcx, rcx
  00052	74 53		 je	 SHORT $LN3@GetParentD

; 1502 : 
; 1503 : 	if ((fname - path) > 3 || path[1] != ':')

  00054	48 8d 54 24 30	 lea	 rdx, QWORD PTR path$[rsp]
  00059	48 8b c1	 mov	 rax, rcx
  0005c	48 2b c2	 sub	 rax, rdx
  0005f	48 83 e0 fe	 and	 rax, -2
  00063	48 83 f8 06	 cmp	 rax, 6
  00067	7f 0d		 jg	 SHORT $LN6@GetParentD
  00069	66 83 7c 24 32
	3a		 cmp	 WORD PTR path$[rsp+2], 58 ; 0000003aH
  0006f	75 05		 jne	 SHORT $LN6@GetParentD

; 1505 : 	else
; 1506 : 		fname[0] = 0;		// C:\ 

  00071	66 89 31	 mov	 WORD PTR [rcx], si
  00074	eb 04		 jmp	 SHORT $LN5@GetParentD
$LN6@GetParentD:

; 1504 : 		fname[-1] = 0;

  00076	66 89 71 fe	 mov	 WORD PTR [rcx-2], si
$LN5@GetParentD:

; 1507 : 
; 1508 : 	wcscpy(dir, path);

  0007a	48 8d 44 24 30	 lea	 rax, QWORD PTR path$[rsp]
  0007f	48 2b f8	 sub	 rdi, rax
  00082	48 8d 4c 24 30	 lea	 rcx, QWORD PTR path$[rsp]
  00087	66 0f 1f 84 00
	00 00 00 00	 npad	 9
$LL9@GetParentD:
  00090	0f b7 01	 movzx	 eax, WORD PTR [rcx]
  00093	66 89 04 0f	 mov	 WORD PTR [rdi+rcx], ax
  00097	48 8d 49 02	 lea	 rcx, QWORD PTR [rcx+2]
  0009b	66 85 c0	 test	 ax, ax
  0009e	75 f0		 jne	 SHORT $LL9@GetParentD

; 1509 : 	return	TRUE;

  000a0	b8 01 00 00 00	 mov	 eax, 1
  000a5	eb 1b		 jmp	 SHORT $LN1@GetParentD
$LN3@GetParentD:

; 1501 : 		return	wcscpy(dir, srcfile), FALSE;

  000a7	48 2b fb	 sub	 rdi, rbx
  000aa	66 0f 1f 44 00
	00		 npad	 6
$LL8@GetParentD:
  000b0	0f b7 03	 movzx	 eax, WORD PTR [rbx]
  000b3	66 89 04 1f	 mov	 WORD PTR [rdi+rbx], ax
  000b7	48 8d 5b 02	 lea	 rbx, QWORD PTR [rbx+2]
  000bb	66 85 c0	 test	 ax, ax
  000be	75 f0		 jne	 SHORT $LL8@GetParentD
  000c0	33 c0		 xor	 eax, eax
$LN1@GetParentD:

; 1510 : }

  000c2	48 8b 8c 24 40
	02 00 00	 mov	 rcx, QWORD PTR __$ArrayPad$[rsp]
  000ca	48 33 cc	 xor	 rcx, rsp
  000cd	e8 00 00 00 00	 call	 __security_check_cookie
  000d2	4c 8d 9c 24 50
	02 00 00	 lea	 r11, QWORD PTR [rsp+592]
  000da	49 8b 5b 20	 mov	 rbx, QWORD PTR [r11+32]
  000de	49 8b 73 28	 mov	 rsi, QWORD PTR [r11+40]
  000e2	49 8b e3	 mov	 rsp, r11
  000e5	5f		 pop	 rdi
  000e6	c3		 ret	 0
?GetParentDirW@@YAHPEB_WPEA_W@Z ENDP			; GetParentDirW
_TEXT	ENDS
; Function compile flags: /Ogtpy
; File f:\software1\\fastcopy\fastcopy325src\src\tlib\tmisc.cpp
;	COMDAT ?font_enum_proc@@YAHPEAUtagENUMLOGFONTEXW@@PEAUtagNEWTEXTMETRICEXA@@K_J@Z
_TEXT	SEGMENT
elf$ = 8
ntm$ = 16
fontType$ = 24
found_p$ = 32
?font_enum_proc@@YAHPEAUtagENUMLOGFONTEXW@@PEAUtagNEWTEXTMETRICEXA@@K_J@Z PROC ; font_enum_proc, COMDAT

; 1890 : 	BOOL	&found = *(BOOL *)found_p;
; 1891 : 
; 1892 : 	found = TRUE;

  00000	41 c7 01 01 00
	00 00		 mov	 DWORD PTR [r9], 1

; 1893 : 
; 1894 : 	return	0;

  00007	33 c0		 xor	 eax, eax

; 1895 : }

  00009	c3		 ret	 0
?font_enum_proc@@YAHPEAUtagENUMLOGFONTEXW@@PEAUtagNEWTEXTMETRICEXA@@K_J@Z ENDP ; font_enum_proc
_TEXT	ENDS
; Function compile flags: /Ogtpy
; File f:\software1\\fastcopy\fastcopy325src\src\tlib\tmisc.h
;	COMDAT ?GetRegisterNum@?$THashTblT@I@@UEAAHXZ
_TEXT	SEGMENT
this$ = 8
?GetRegisterNum@?$THashTblT@I@@UEAAHXZ PROC		; THashTblT<unsigned int>::GetRegisterNum, COMDAT

; 132  : 		return registerNum;

  00000	8b 41 14	 mov	 eax, DWORD PTR [rcx+20]

; 133  : 	}

  00003	c3		 ret	 0
?GetRegisterNum@?$THashTblT@I@@UEAAHXZ ENDP		; THashTblT<unsigned int>::GetRegisterNum
_TEXT	ENDS
; Function compile flags: /Ogtpy
; File f:\software1\\fastcopy\fastcopy325src\src\tlib\tmisc.h
;	COMDAT ?Search@?$THashTblT@I@@UEAAPEAV?$THashObjT@I@@PEBXI@Z
_TEXT	SEGMENT
this$ = 48
data$ = 56
hash_id$ = 64
?Search@?$THashTblT@I@@UEAAPEAV?$THashObjT@I@@PEBXI@Z PROC ; THashTblT<unsigned int>::Search, COMDAT

; 122  : 	virtual THashObjT<T> *Search(const void *data, T hash_id) {

$LN14:
  00000	48 89 5c 24 08	 mov	 QWORD PTR [rsp+8], rbx
  00005	48 89 6c 24 10	 mov	 QWORD PTR [rsp+16], rbp
  0000a	48 89 74 24 18	 mov	 QWORD PTR [rsp+24], rsi
  0000f	48 89 7c 24 20	 mov	 QWORD PTR [rsp+32], rdi
  00014	41 56		 push	 r14
  00016	48 83 ec 20	 sub	 rsp, 32			; 00000020H
  0001a	4c 8b f2	 mov	 r14, rdx

; 123  : 		THashObjT<T> *top = hashTbl + (hash_id % hashNum);

  0001d	41 8b c0	 mov	 eax, r8d
  00020	33 d2		 xor	 edx, edx
  00022	41 8b e8	 mov	 ebp, r8d
  00025	f7 71 10	 div	 DWORD PTR [rcx+16]
  00028	48 8b f1	 mov	 rsi, rcx
  0002b	8b fa		 mov	 edi, edx
  0002d	48 c1 e7 05	 shl	 rdi, 5
  00031	48 03 79 08	 add	 rdi, QWORD PTR [rcx+8]

; 124  : 		for (THashObjT<T> *obj=top->nextHash; obj != top; obj=obj->nextHash) {

  00035	48 8b 5f 10	 mov	 rbx, QWORD PTR [rdi+16]
  00039	48 3b df	 cmp	 rbx, rdi
  0003c	74 22		 je	 SHORT $LN12@Search
  0003e	66 90		 npad	 2
$LL4@Search:

; 125  : 			if (obj->hashId == hash_id && IsSameVal(obj, data)) {

  00040	39 6b 18	 cmp	 DWORD PTR [rbx+24], ebp
  00043	75 12		 jne	 SHORT $LN2@Search
  00045	48 8b 06	 mov	 rax, QWORD PTR [rsi]
  00048	4d 8b c6	 mov	 r8, r14
  0004b	48 8b d3	 mov	 rdx, rbx
  0004e	48 8b ce	 mov	 rcx, rsi
  00051	ff 10		 call	 QWORD PTR [rax]
  00053	85 c0		 test	 eax, eax
  00055	75 26		 jne	 SHORT $LN8@Search
$LN2@Search:

; 124  : 		for (THashObjT<T> *obj=top->nextHash; obj != top; obj=obj->nextHash) {

  00057	48 8b 5b 10	 mov	 rbx, QWORD PTR [rbx+16]
  0005b	48 3b df	 cmp	 rbx, rdi
  0005e	75 e0		 jne	 SHORT $LL4@Search
$LN12@Search:

; 127  : 			}
; 128  : 		}
; 129  : 		return	NULL;

  00060	33 c0		 xor	 eax, eax
$LN1@Search:

; 130  : 	}

  00062	48 8b 5c 24 30	 mov	 rbx, QWORD PTR [rsp+48]
  00067	48 8b 6c 24 38	 mov	 rbp, QWORD PTR [rsp+56]
  0006c	48 8b 74 24 40	 mov	 rsi, QWORD PTR [rsp+64]
  00071	48 8b 7c 24 48	 mov	 rdi, QWORD PTR [rsp+72]
  00076	48 83 c4 20	 add	 rsp, 32			; 00000020H
  0007a	41 5e		 pop	 r14
  0007c	c3		 ret	 0
$LN8@Search:

; 126  : 				return obj;

  0007d	48 8b c3	 mov	 rax, rbx
  00080	eb e0		 jmp	 SHORT $LN1@Search
?Search@?$THashTblT@I@@UEAAPEAV?$THashObjT@I@@PEBXI@Z ENDP ; THashTblT<unsigned int>::Search
_TEXT	ENDS
; Function compile flags: /Ogtpy
; File f:\software1\\fastcopy\fastcopy325src\src\tlib\tmisc.h
;	COMDAT ?UnRegister@?$THashTblT@I@@UEAAXPEAV?$THashObjT@I@@@Z
_TEXT	SEGMENT
this$ = 48
obj$ = 56
?UnRegister@?$THashTblT@I@@UEAAXPEAV?$THashObjT@I@@@Z PROC ; THashTblT<unsigned int>::UnRegister, COMDAT

; 117  : 	virtual void UnRegister(THashObjT<T> *obj) {

$LN5:
  00000	40 53		 push	 rbx
  00002	48 83 ec 20	 sub	 rsp, 32			; 00000020H

; 118  : 		if (obj->UnlinkHash()) {

  00006	48 8b 02	 mov	 rax, QWORD PTR [rdx]
  00009	48 8b d9	 mov	 rbx, rcx
  0000c	48 8b ca	 mov	 rcx, rdx
  0000f	ff 50 10	 call	 QWORD PTR [rax+16]
  00012	85 c0		 test	 eax, eax
  00014	74 03		 je	 SHORT $LN2@UnRegister

; 119  : 			registerNum--;

  00016	ff 4b 14	 dec	 DWORD PTR [rbx+20]
$LN2@UnRegister:

; 120  : 		}
; 121  : 	}

  00019	48 83 c4 20	 add	 rsp, 32			; 00000020H
  0001d	5b		 pop	 rbx
  0001e	c3		 ret	 0
?UnRegister@?$THashTblT@I@@UEAAXPEAV?$THashObjT@I@@@Z ENDP ; THashTblT<unsigned int>::UnRegister
_TEXT	ENDS
; Function compile flags: /Ogtpy
; File f:\software1\\fastcopy\fastcopy325src\src\tlib\tmisc.h
;	COMDAT ?Register@?$THashTblT@I@@UEAAXPEAV?$THashObjT@I@@I@Z
_TEXT	SEGMENT
this$ = 48
obj$ = 56
hash_id$ = 64
?Register@?$THashTblT@I@@UEAAXPEAV?$THashObjT@I@@I@Z PROC ; THashTblT<unsigned int>::Register, COMDAT

; 111  : 	virtual void Register(THashObjT<T> *obj, T hash_id) {

$LN5:
  00000	40 53		 push	 rbx
  00002	48 83 ec 20	 sub	 rsp, 32			; 00000020H

; 112  : 		obj->hashId = hash_id;
; 113  : 		if (obj->LinkHash(hashTbl + (hash_id % hashNum))) {

  00006	4c 8b 0a	 mov	 r9, QWORD PTR [rdx]
  00009	4c 8b d2	 mov	 r10, rdx
  0000c	44 89 42 18	 mov	 DWORD PTR [rdx+24], r8d
  00010	41 8b c0	 mov	 eax, r8d
  00013	33 d2		 xor	 edx, edx
  00015	48 8b d9	 mov	 rbx, rcx
  00018	f7 71 10	 div	 DWORD PTR [rcx+16]
  0001b	48 c1 e2 05	 shl	 rdx, 5
  0001f	48 03 51 08	 add	 rdx, QWORD PTR [rcx+8]
  00023	49 8b ca	 mov	 rcx, r10
  00026	41 ff 51 08	 call	 QWORD PTR [r9+8]
  0002a	85 c0		 test	 eax, eax
  0002c	74 03		 je	 SHORT $LN2@Register

; 114  : 			registerNum++;

  0002e	ff 43 14	 inc	 DWORD PTR [rbx+20]
$LN2@Register:

; 115  : 		}
; 116  : 	}

  00031	48 83 c4 20	 add	 rsp, 32			; 00000020H
  00035	5b		 pop	 rbx
  00036	c3		 ret	 0
?Register@?$THashTblT@I@@UEAAXPEAV?$THashObjT@I@@I@Z ENDP ; THashTblT<unsigned int>::Register
_TEXT	ENDS
; Function compile flags: /Ogtpy
; File f:\software1\\fastcopy\fastcopy325src\src\tlib\tmisc.h
;	COMDAT ?UnInit@?$THashTblT@I@@UEAAXXZ
_TEXT	SEGMENT
this$ = 48
?UnInit@?$THashTblT@I@@UEAAXXZ PROC			; THashTblT<unsigned int>::UnInit, COMDAT

; 92   : 	virtual void UnInit() {

$LN31:
  00000	40 53		 push	 rbx
  00002	48 83 ec 20	 sub	 rsp, 32			; 00000020H

; 93   : 		if (!hashTbl) {

  00006	48 83 79 08 00	 cmp	 QWORD PTR [rcx+8], 0
  0000b	48 8b d9	 mov	 rbx, rcx
  0000e	0f 84 a8 00 00
	00		 je	 $LN1@UnInit

; 94   : 			return;
; 95   : 		}
; 96   : 		if (isDeleteObj) {

  00014	83 79 18 00	 cmp	 DWORD PTR [rcx+24], 0
  00018	74 6e		 je	 SHORT $LN25@UnInit

; 97   : 			for (int i=0; i < hashNum && registerNum > 0; i++) {

  0001a	48 89 6c 24 30	 mov	 QWORD PTR [rsp+48], rbp
  0001f	33 ed		 xor	 ebp, ebp
  00021	39 69 10	 cmp	 DWORD PTR [rcx+16], ebp
  00024	7e 5d		 jle	 SHORT $LN26@UnInit
  00026	48 89 74 24 38	 mov	 QWORD PTR [rsp+56], rsi
  0002b	48 89 7c 24 40	 mov	 QWORD PTR [rsp+64], rdi
  00030	4c 89 74 24 48	 mov	 QWORD PTR [rsp+72], r14
  00035	45 33 f6	 xor	 r14d, r14d
$LL4@UnInit:
  00038	83 7b 14 00	 cmp	 DWORD PTR [rbx+20], 0
  0003c	7e 36		 jle	 SHORT $LN29@UnInit

; 98   : 				THashObjT<T>	*start = hashTbl + i;

  0003e	48 8b 73 08	 mov	 rsi, QWORD PTR [rbx+8]
  00042	49 03 f6	 add	 rsi, r14

; 99   : 				for (THashObjT<T> *obj=start->nextHash; obj != start; ) {

  00045	48 8b 4e 10	 mov	 rcx, QWORD PTR [rsi+16]
  00049	48 3b ce	 cmp	 rcx, rsi
  0004c	74 1b		 je	 SHORT $LN2@UnInit
  0004e	66 90		 npad	 2
$LL5@UnInit:

; 100  : 					THashObjT<T> *next = obj->nextHash;
; 101  : 					delete obj;

  00050	48 8b 01	 mov	 rax, QWORD PTR [rcx]
  00053	ba 01 00 00 00	 mov	 edx, 1
  00058	48 8b 79 10	 mov	 rdi, QWORD PTR [rcx+16]
  0005c	ff 10		 call	 QWORD PTR [rax]

; 102  : 					obj = next;
; 103  : 					registerNum--;

  0005e	ff 4b 14	 dec	 DWORD PTR [rbx+20]
  00061	48 8b cf	 mov	 rcx, rdi
  00064	48 3b fe	 cmp	 rdi, rsi
  00067	75 e7		 jne	 SHORT $LL5@UnInit
$LN2@UnInit:

; 97   : 			for (int i=0; i < hashNum && registerNum > 0; i++) {

  00069	ff c5		 inc	 ebp
  0006b	49 83 c6 20	 add	 r14, 32			; 00000020H
  0006f	3b 6b 10	 cmp	 ebp, DWORD PTR [rbx+16]
  00072	7c c4		 jl	 SHORT $LL4@UnInit
$LN29@UnInit:
  00074	48 8b 7c 24 40	 mov	 rdi, QWORD PTR [rsp+64]
  00079	48 8b 74 24 38	 mov	 rsi, QWORD PTR [rsp+56]
  0007e	4c 8b 74 24 48	 mov	 r14, QWORD PTR [rsp+72]
$LN26@UnInit:
  00083	48 8b 6c 24 30	 mov	 rbp, QWORD PTR [rsp+48]
$LN25@UnInit:

; 104  : 				}
; 105  : 			}
; 106  : 		}
; 107  : 		delete [] hashTbl;

  00088	48 8b 4b 08	 mov	 rcx, QWORD PTR [rbx+8]
  0008c	48 85 c9	 test	 rcx, rcx
  0008f	74 1c		 je	 SHORT $LN14@UnInit
  00091	48 83 79 f8 00	 cmp	 QWORD PTR [rcx-8], 0
  00096	74 0c		 je	 SHORT $LN13@UnInit
  00098	48 8b 01	 mov	 rax, QWORD PTR [rcx]
  0009b	ba 03 00 00 00	 mov	 edx, 3
  000a0	ff 10		 call	 QWORD PTR [rax]
  000a2	eb 09		 jmp	 SHORT $LN14@UnInit
$LN13@UnInit:
  000a4	48 83 c1 f8	 add	 rcx, -8
  000a8	e8 00 00 00 00	 call	 ??_V@YAXPEAX@Z		; operator delete[]
$LN14@UnInit:

; 108  : 		hashTbl = NULL;

  000ad	48 c7 43 08 00
	00 00 00	 mov	 QWORD PTR [rbx+8], 0

; 109  : 		registerNum = 0;

  000b5	c7 43 14 00 00
	00 00		 mov	 DWORD PTR [rbx+20], 0
$LN1@UnInit:

; 110  : 	}

  000bc	48 83 c4 20	 add	 rsp, 32			; 00000020H
  000c0	5b		 pop	 rbx
  000c1	c3		 ret	 0
?UnInit@?$THashTblT@I@@UEAAXXZ ENDP			; THashTblT<unsigned int>::UnInit
_TEXT	ENDS
; Function compile flags: /Ogtpy
; File f:\software1\\fastcopy\fastcopy325src\src\tlib\tmisc.h
;	COMDAT ?Init@?$THashTblT@I@@UEAAHH@Z
_TEXT	SEGMENT
$T1 = 48
$T2 = 80
this$ = 80
_hashNum$ = 88
$T3 = 96
?Init@?$THashTblT@I@@UEAAHH@Z PROC			; THashTblT<unsigned int>::Init, COMDAT

; 80   : 	virtual BOOL Init(int _hashNum) {

$LN14:
  00000	40 57		 push	 rdi
  00002	48 83 ec 40	 sub	 rsp, 64			; 00000040H
  00006	48 c7 44 24 30
	fe ff ff ff	 mov	 QWORD PTR $T1[rsp], -2
  0000f	48 89 5c 24 58	 mov	 QWORD PTR [rsp+88], rbx
  00014	48 89 74 24 68	 mov	 QWORD PTR [rsp+104], rsi
  00019	48 8b d9	 mov	 rbx, rcx

; 81   : 		hashTbl = new THashObjT<T> [hashNum = _hashNum];

  0001c	89 51 10	 mov	 DWORD PTR [rcx+16], edx
  0001f	48 63 f2	 movsxd	 rsi, edx
  00022	48 89 74 24 50	 mov	 QWORD PTR $T2[rsp], rsi
  00027	b8 20 00 00 00	 mov	 eax, 32			; 00000020H
  0002c	48 f7 e6	 mul	 rsi
  0002f	48 c7 c1 ff ff
	ff ff		 mov	 rcx, -1
  00036	48 0f 40 c1	 cmovo	 rax, rcx
  0003a	48 83 c0 08	 add	 rax, 8
  0003e	48 0f 42 c1	 cmovb	 rax, rcx
  00042	48 8b c8	 mov	 rcx, rax
  00045	e8 00 00 00 00	 call	 ??_U@YAPEAX_K@Z		; operator new[]
  0004a	48 89 44 24 60	 mov	 QWORD PTR $T3[rsp], rax
  0004f	48 85 c0	 test	 rax, rax
  00052	74 2c		 je	 SHORT $LN7@Init
  00054	48 89 30	 mov	 QWORD PTR [rax], rsi
  00057	48 8d 78 08	 lea	 rdi, QWORD PTR [rax+8]
  0005b	48 8d 05 00 00
	00 00		 lea	 rax, OFFSET FLAT:??1?$THashObjT@I@@UEAA@XZ ; THashObjT<unsigned int>::~THashObjT<unsigned int>
  00062	48 89 44 24 20	 mov	 QWORD PTR [rsp+32], rax
  00067	4c 8d 0d 00 00
	00 00		 lea	 r9, OFFSET FLAT:??0?$THashObjT@I@@QEAA@XZ ; THashObjT<unsigned int>::THashObjT<unsigned int>
  0006e	4c 8b c6	 mov	 r8, rsi
  00071	ba 20 00 00 00	 mov	 edx, 32			; 00000020H
  00076	48 8b cf	 mov	 rcx, rdi
  00079	e8 00 00 00 00	 call	 ??_L@YAXPEAX_K1P6AX0@Z2@Z
  0007e	eb 02		 jmp	 SHORT $LN8@Init
$LN7@Init:
  00080	33 ff		 xor	 edi, edi
$LN8@Init:
  00082	48 89 7b 08	 mov	 QWORD PTR [rbx+8], rdi

; 83   : 			return	FALSE;	// VC4's new don't occur exception

  00086	33 c0		 xor	 eax, eax

; 82   : 		if (hashTbl == NULL) {

  00088	48 85 ff	 test	 rdi, rdi
  0008b	74 39		 je	 SHORT $LN1@Init

; 84   : 		}
; 85   : 		for (int i=0; i < hashNum; i++) {

  0008d	39 43 10	 cmp	 DWORD PTR [rbx+16], eax
  00090	7e 28		 jle	 SHORT $LN3@Init
  00092	45 33 c0	 xor	 r8d, r8d
  00095	66 66 66 0f 1f
	84 00 00 00 00
	00		 npad	 11
$LL4@Init:

; 86   : 			THashObjT<T>	*obj = hashTbl + i;

  000a0	48 8b 53 08	 mov	 rdx, QWORD PTR [rbx+8]
  000a4	49 03 d0	 add	 rdx, r8

; 87   : 			obj->prevHash = obj->nextHash = obj;

  000a7	48 89 52 10	 mov	 QWORD PTR [rdx+16], rdx
  000ab	48 89 52 08	 mov	 QWORD PTR [rdx+8], rdx

; 84   : 		}
; 85   : 		for (int i=0; i < hashNum; i++) {

  000af	ff c0		 inc	 eax
  000b1	49 83 c0 20	 add	 r8, 32			; 00000020H
  000b5	3b 43 10	 cmp	 eax, DWORD PTR [rbx+16]
  000b8	7c e6		 jl	 SHORT $LL4@Init
$LN3@Init:

; 88   : 		}
; 89   : 		registerNum = 0;

  000ba	c7 43 14 00 00
	00 00		 mov	 DWORD PTR [rbx+20], 0

; 90   : 		return	TRUE;

  000c1	b8 01 00 00 00	 mov	 eax, 1
$LN1@Init:

; 91   : 	}

  000c6	48 8b 5c 24 58	 mov	 rbx, QWORD PTR [rsp+88]
  000cb	48 8b 74 24 68	 mov	 rsi, QWORD PTR [rsp+104]
  000d0	48 83 c4 40	 add	 rsp, 64			; 00000040H
  000d4	5f		 pop	 rdi
  000d5	c3		 ret	 0
?Init@?$THashTblT@I@@UEAAHH@Z ENDP			; THashTblT<unsigned int>::Init
_TEXT	ENDS
;	COMDAT text$x
text$x	SEGMENT
$T1 = 48
$T2 = 80
this$ = 80
_hashNum$ = 88
$T3 = 96
?dtor$0@?0??Init@?$THashTblT@I@@UEAAHH@Z@4HA PROC	; `THashTblT<unsigned int>::Init'::`1'::dtor$0
  00000	40 55		 push	 rbp
  00002	48 83 ec 20	 sub	 rsp, 32			; 00000020H
  00006	48 8b ea	 mov	 rbp, rdx
  00009	b8 20 00 00 00	 mov	 eax, 32			; 00000020H
  0000e	48 f7 65 50	 mul	 QWORD PTR $T2[rbp]
  00012	48 8b d0	 mov	 rdx, rax
  00015	48 c7 c0 ff ff
	ff ff		 mov	 rax, -1
  0001c	48 0f 40 d0	 cmovo	 rdx, rax
  00020	48 83 c2 08	 add	 rdx, 8
  00024	48 c7 c0 ff ff
	ff ff		 mov	 rax, -1
  0002b	48 0f 42 d0	 cmovb	 rdx, rax
  0002f	48 8b 4d 60	 mov	 rcx, QWORD PTR $T3[rbp]
  00033	e8 00 00 00 00	 call	 ??_V@YAXPEAX_K@Z	; operator delete[]
  00038	48 83 c4 20	 add	 rsp, 32			; 00000020H
  0003c	5d		 pop	 rbp
  0003d	c3		 ret	 0
?dtor$0@?0??Init@?$THashTblT@I@@UEAAHH@Z@4HA ENDP	; `THashTblT<unsigned int>::Init'::`1'::dtor$0
text$x	ENDS
; Function compile flags: /Ogtpy
;	COMDAT text$x
text$x	SEGMENT
$T1 = 48
$T2 = 80
this$ = 80
_hashNum$ = 88
$T3 = 96
?dtor$0@?0??Init@?$THashTblT@I@@UEAAHH@Z@4HA PROC	; `THashTblT<unsigned int>::Init'::`1'::dtor$0
  00000	40 55		 push	 rbp
  00002	48 83 ec 20	 sub	 rsp, 32			; 00000020H
  00006	48 8b ea	 mov	 rbp, rdx
  00009	b8 20 00 00 00	 mov	 eax, 32			; 00000020H
  0000e	48 f7 65 50	 mul	 QWORD PTR $T2[rbp]
  00012	48 8b d0	 mov	 rdx, rax
  00015	48 c7 c0 ff ff
	ff ff		 mov	 rax, -1
  0001c	48 0f 40 d0	 cmovo	 rdx, rax
  00020	48 83 c2 08	 add	 rdx, 8
  00024	48 c7 c0 ff ff
	ff ff		 mov	 rax, -1
  0002b	48 0f 42 d0	 cmovb	 rdx, rax
  0002f	48 8b 4d 60	 mov	 rcx, QWORD PTR $T3[rbp]
  00033	e8 00 00 00 00	 call	 ??_V@YAXPEAX_K@Z	; operator delete[]
  00038	48 83 c4 20	 add	 rsp, 32			; 00000020H
  0003c	5d		 pop	 rbp
  0003d	c3		 ret	 0
?dtor$0@?0??Init@?$THashTblT@I@@UEAAHH@Z@4HA ENDP	; `THashTblT<unsigned int>::Init'::`1'::dtor$0
text$x	ENDS
; Function compile flags: /Ogtpy
; File f:\software1\\fastcopy\fastcopy325src\src\tlib\tmisc.h
;	COMDAT ??1?$THashTblT@I@@UEAA@XZ
_TEXT	SEGMENT
$T1 = 32
this$ = 64
??1?$THashTblT@I@@UEAA@XZ PROC				; THashTblT<unsigned int>::~THashTblT<unsigned int>, COMDAT

; 79   : 	virtual ~THashTblT() { UnInit(); }

$LN3:
  00000	48 83 ec 38	 sub	 rsp, 56			; 00000038H
  00004	48 c7 44 24 20
	fe ff ff ff	 mov	 QWORD PTR $T1[rsp], -2
  0000d	48 8d 05 00 00
	00 00		 lea	 rax, OFFSET FLAT:??_7?$THashTblT@I@@6B@
  00014	48 89 01	 mov	 QWORD PTR [rcx], rax
  00017	e8 00 00 00 00	 call	 ?UnInit@?$THashTblT@I@@UEAAXXZ ; THashTblT<unsigned int>::UnInit
  0001c	90		 npad	 1
  0001d	48 83 c4 38	 add	 rsp, 56			; 00000038H
  00021	c3		 ret	 0
??1?$THashTblT@I@@UEAA@XZ ENDP				; THashTblT<unsigned int>::~THashTblT<unsigned int>
_TEXT	ENDS
; Function compile flags: /Ogtpy
; File f:\software1\\fastcopy\fastcopy325src\src\tlib\tmisc.h
;	COMDAT ??0?$THashTblT@I@@QEAA@HH@Z
_TEXT	SEGMENT
this$ = 48
_hashNum$ = 56
_isDeleteObj$dead$ = 64
??0?$THashTblT@I@@QEAA@HH@Z PROC			; THashTblT<unsigned int>::THashTblT<unsigned int>, COMDAT

; 71   : 	THashTblT(int _hashNum=0, BOOL _isDeleteObj=TRUE) {

$LN5:
  00000	40 53		 push	 rbx
  00002	48 83 ec 20	 sub	 rsp, 32			; 00000020H
  00006	48 8d 05 00 00
	00 00		 lea	 rax, OFFSET FLAT:??_7?$THashTblT@I@@6B@

; 72   : 		hashTbl = NULL;
; 73   : 		registerNum = 0;
; 74   : 		isDeleteObj = _isDeleteObj;

  0000d	c7 41 18 01 00
	00 00		 mov	 DWORD PTR [rcx+24], 1
  00014	48 89 01	 mov	 QWORD PTR [rcx], rax
  00017	48 8b d9	 mov	 rbx, rcx
  0001a	33 c0		 xor	 eax, eax

; 75   : 		if ((hashNum = _hashNum) > 0) {

  0001c	89 51 10	 mov	 DWORD PTR [rcx+16], edx
  0001f	48 89 41 08	 mov	 QWORD PTR [rcx+8], rax
  00023	89 41 14	 mov	 DWORD PTR [rcx+20], eax

; 76   : 			Init(hashNum);

  00026	e8 00 00 00 00	 call	 ?Init@?$THashTblT@I@@UEAAHH@Z ; THashTblT<unsigned int>::Init

; 77   : 		}
; 78   : 	}

  0002b	48 8b c3	 mov	 rax, rbx
  0002e	48 83 c4 20	 add	 rsp, 32			; 00000020H
  00032	5b		 pop	 rbx
  00033	c3		 ret	 0
??0?$THashTblT@I@@QEAA@HH@Z ENDP			; THashTblT<unsigned int>::THashTblT<unsigned int>
_TEXT	ENDS
; Function compile flags: /Ogtpy
; File f:\software1\\fastcopy\fastcopy325src\src\tlib\tmisc.h
;	COMDAT ??0?$THashObjT@I@@QEAA@XZ
_TEXT	SEGMENT
this$ = 8
??0?$THashObjT@I@@QEAA@XZ PROC				; THashObjT<unsigned int>::THashObjT<unsigned int>, COMDAT

; 30   : 	THashObjT() {

  00000	48 8d 05 00 00
	00 00		 lea	 rax, OFFSET FLAT:??_7?$THashObjT@I@@6B@
  00007	48 89 01	 mov	 QWORD PTR [rcx], rax

; 31   : 		prevHash = nextHash = NULL;

  0000a	33 c0		 xor	 eax, eax
  0000c	48 89 41 10	 mov	 QWORD PTR [rcx+16], rax
  00010	48 89 41 08	 mov	 QWORD PTR [rcx+8], rax

; 32   : 		hashId = 0;

  00014	89 41 18	 mov	 DWORD PTR [rcx+24], eax

; 33   : 	}

  00017	48 8b c1	 mov	 rax, rcx
  0001a	c3		 ret	 0
??0?$THashObjT@I@@QEAA@XZ ENDP				; THashObjT<unsigned int>::THashObjT<unsigned int>
_TEXT	ENDS
; Function compile flags: /Ogtpy
; File f:\software1\\fastcopy\fastcopy325src\src\tlib\tmisc.h
;	COMDAT ??_G?$THashTblT@I@@UEAAPEAXI@Z
_TEXT	SEGMENT
$T1 = 32
this$ = 64
__flags$ = 72
??_G?$THashTblT@I@@UEAAPEAXI@Z PROC			; THashTblT<unsigned int>::`scalar deleting destructor', COMDAT
$LN8:
  00000	40 57		 push	 rdi
  00002	48 83 ec 30	 sub	 rsp, 48			; 00000030H
  00006	48 c7 44 24 20
	fe ff ff ff	 mov	 QWORD PTR $T1[rsp], -2
  0000f	48 89 5c 24 40	 mov	 QWORD PTR [rsp+64], rbx
  00014	8b da		 mov	 ebx, edx
  00016	48 8b f9	 mov	 rdi, rcx

; 79   : 	virtual ~THashTblT() { UnInit(); }

  00019	48 8d 05 00 00
	00 00		 lea	 rax, OFFSET FLAT:??_7?$THashTblT@I@@6B@
  00020	48 89 01	 mov	 QWORD PTR [rcx], rax
  00023	e8 00 00 00 00	 call	 ?UnInit@?$THashTblT@I@@UEAAXXZ ; THashTblT<unsigned int>::UnInit
  00028	90		 npad	 1
  00029	f6 c3 01	 test	 bl, 1
  0002c	74 0e		 je	 SHORT $LN7@scalar
  0002e	ba 20 00 00 00	 mov	 edx, 32			; 00000020H
  00033	48 8b cf	 mov	 rcx, rdi
  00036	e8 00 00 00 00	 call	 ??3@YAXPEAX_K@Z		; operator delete
  0003b	90		 npad	 1
$LN7@scalar:
  0003c	48 8b c7	 mov	 rax, rdi
  0003f	48 8b 5c 24 40	 mov	 rbx, QWORD PTR [rsp+64]
  00044	48 83 c4 30	 add	 rsp, 48			; 00000030H
  00048	5f		 pop	 rdi
  00049	c3		 ret	 0
??_G?$THashTblT@I@@UEAAPEAXI@Z ENDP			; THashTblT<unsigned int>::`scalar deleting destructor'
_TEXT	ENDS
; Function compile flags: /Ogtpy
; File c:\program files (x86)\microsoft visual studio 14.0\vc\include\vadefs.h
;	COMDAT ??$__vcrt_va_start_verify_argument_type@PEBD@@YAXXZ
_TEXT	SEGMENT
??$__vcrt_va_start_verify_argument_type@PEBD@@YAXXZ PROC ; __vcrt_va_start_verify_argument_type<char const * __ptr64>, COMDAT

; 145  :             static_assert(!__vcrt_va_list_is_reference<_Ty>::__the_value, "va_start argument must not have reference type and must not be parenthesized");
; 146  :         }

  00000	c2 00 00	 ret	 0
??$__vcrt_va_start_verify_argument_type@PEBD@@YAXXZ ENDP ; __vcrt_va_start_verify_argument_type<char const * __ptr64>
_TEXT	ENDS
END
