; Listing generated by Microsoft (R) Optimizing Compiler Version 19.00.24215.1 

include listing.inc

INCLUDELIB OLDNAMES

PUBLIC	??_C@_0DJ@EGMOJDB@?$EA?$CI?$CD?$CJCopyright?5?$CIC?$CJ?51996?92016?5H?4Sh@ ; `string'
PUBLIC	??_C@_1CC@KPOKNCMJ@?$AAt?$AAo?$AAo?$AAl?$AAt?$AAi?$AAp?$AAs?$AA_?$AAc?$AAl?$AAa?$AAs?$AAs?$AA3?$AA2?$AA?$AA@ ; `string'
PUBLIC	??_R2TCtl@@8					; TCtl::`RTTI Base Class Array'
PUBLIC	??_7TSubClassCtl@@6B@				; TSubClassCtl::`vftable'
PUBLIC	??_R4TSubClass@@6B@				; TSubClass::`RTTI Complete Object Locator'
PUBLIC	??_R4TSubClassCtl@@6B@				; TSubClassCtl::`RTTI Complete Object Locator'
PUBLIC	??_R3TCtl@@8					; TCtl::`RTTI Class Hierarchy Descriptor'
PUBLIC	??_R1A@?0A@EA@TSubClassCtl@@8			; TSubClassCtl::`RTTI Base Class Descriptor at (0,-1,0,64)'
PUBLIC	??_R4TWin@@6B@					; TWin::`RTTI Complete Object Locator'
PUBLIC	??_R2TSubClassCtl@@8				; TSubClassCtl::`RTTI Base Class Array'
PUBLIC	??_7TWin@@6B@					; TWin::`vftable'
PUBLIC	??_R4TCtl@@6B@					; TCtl::`RTTI Complete Object Locator'
PUBLIC	??_7TCtl@@6B@					; TCtl::`vftable'
PUBLIC	??_R1A@?0A@EA@TCtl@@8				; TCtl::`RTTI Base Class Descriptor at (0,-1,0,64)'
PUBLIC	??_7TSubClass@@6B@				; TSubClass::`vftable'
PUBLIC	??_R3TSubClassCtl@@8				; TSubClassCtl::`RTTI Class Hierarchy Descriptor'
PUBLIC	??_R0?AVTCtl@@@8				; TCtl `RTTI Type Descriptor'
PUBLIC	??_R0?AVTSubClassCtl@@@8			; TSubClassCtl `RTTI Type Descriptor'
EXTRN	__imp_GetWindowThreadProcessId:PROC
EXTRN	__imp_GetWindowTextLengthW:PROC
EXTRN	__imp_DefWindowProcW:PROC
EXTRN	__imp_GetMessageA:PROC
EXTRN	__imp_SetWindowWord:PROC
EXTRN	__imp_CallWindowProcW:PROC
EXTRN	__imp_PostMessageW:PROC
EXTRN	__imp_MonitorFromPoint:PROC
EXTRN	__imp_DispatchMessageA:PROC
EXTRN	__imp_DestroyWindow:PROC
EXTRN	__imp_IsWindowVisible:PROC
EXTRN	__imp_SetWindowPos:PROC
EXTRN	__imp_MessageBoxW:PROC
EXTRN	__imp_SetActiveWindow:PROC
EXTRN	__imp_SetWindowLongPtrW:PROC
EXTRN	__imp_CreateWindowExW:PROC
EXTRN	__imp_SendMessageW:PROC
EXTRN	__imp_SetWindowTextW:PROC
EXTRN	__imp_GetScrollInfo:PROC
EXTRN	__imp_ShowWindow:PROC
EXTRN	__imp_TranslateAcceleratorA:PROC
EXTRN	__imp_GetDlgItemTextA:PROC
EXTRN	__imp_SetTimer:PROC
EXTRN	__imp_GetMonitorInfoW:PROC
EXTRN	__imp_GetWindowTextA:PROC
EXTRN	__imp_SetDlgItemTextW:PROC
EXTRN	__imp_SetWindowTextA:PROC
EXTRN	__imp_AttachThreadInput:PROC
EXTRN	__imp_GetDlgItemTextW:PROC
EXTRN	__imp_GetWindowWord:PROC
EXTRN	__imp_SendDlgItemMessageW:PROC
EXTRN	__imp_GetForegroundWindow:PROC
EXTRN	__imp_MoveWindow:PROC
EXTRN	__imp_IsDlgButtonChecked:PROC
EXTRN	__imp_DefWindowProcA:PROC
EXTRN	__imp_SetFocus:PROC
EXTRN	__imp_BringWindowToTop:PROC
EXTRN	__imp_TranslateMessage:PROC
EXTRN	__imp_SendDlgItemMessageA:PROC
EXTRN	__imp_SendMessageA:PROC
EXTRN	__imp_GetDlgItemInt:PROC
EXTRN	__imp_SystemParametersInfoA:PROC
EXTRN	__imp_GetClientRect:PROC
EXTRN	__imp_GetDlgItem:PROC
EXTRN	__imp_PeekMessageA:PROC
EXTRN	__imp_GetWindowLongPtrA:PROC
EXTRN	__imp_KillTimer:PROC
EXTRN	__imp_CheckDlgButton:PROC
EXTRN	__imp_SetDlgItemInt:PROC
EXTRN	__imp_SetWindowLongPtrA:PROC
EXTRN	__imp_UpdateWindow:PROC
EXTRN	__imp_SetForegroundWindow:PROC
EXTRN	__imp_InvalidateRect:PROC
EXTRN	__imp_IsIconic:PROC
EXTRN	__imp_GetCursorPos:PROC
EXTRN	__imp_GetWindowTextW:PROC
;	COMDAT ??_R0?AVTSubClassCtl@@@8
data$r	SEGMENT
??_R0?AVTSubClassCtl@@@8 DQ FLAT:??_7type_info@@6B@	; TSubClassCtl `RTTI Type Descriptor'
	DQ	0000000000000000H
	DB	'.?AVTSubClassCtl@@', 00H
data$r	ENDS
;	COMDAT ??_R0?AVTCtl@@@8
data$r	SEGMENT
??_R0?AVTCtl@@@8 DQ FLAT:??_7type_info@@6B@		; TCtl `RTTI Type Descriptor'
	DQ	0000000000000000H
	DB	'.?AVTCtl@@', 00H
data$r	ENDS
;	COMDAT ??_R3TSubClassCtl@@8
rdata$r	SEGMENT
??_R3TSubClassCtl@@8 DD 00H				; TSubClassCtl::`RTTI Class Hierarchy Descriptor'
	DD	00H
	DD	04H
	DD	imagerel ??_R2TSubClassCtl@@8
rdata$r	ENDS
;	COMDAT ??_7TSubClass@@6B@
CONST	SEGMENT
??_7TSubClass@@6B@ DQ FLAT:??_R4TSubClass@@6B@		; TSubClass::`vftable'
	DQ	FLAT:??_ETSubClass@@UEAAPEAXI@Z
	DQ	FLAT:?LinkHash@?$THashObjT@I@@UEAAHPEAV1@@Z
	DQ	FLAT:?UnlinkHash@?$THashObjT@I@@UEAAHXZ
	DQ	FLAT:?Show@TWin@@UEAAXH@Z
	DQ	FLAT:?Create@TWin@@UEAAHPEBD0KKPEAUHMENU__@@@Z
	DQ	FLAT:?CreateU8@TWin@@UEAAHPEBD0KKPEAUHMENU__@@@Z
	DQ	FLAT:?CreateW@TWin@@UEAAHPEB_W0KKPEAUHMENU__@@@Z
	DQ	FLAT:?Destroy@TWin@@UEAAXXZ
	DQ	FLAT:?EvCommand@TWin@@UEAAHGG_J@Z
	DQ	FLAT:?EvSysCommand@TWin@@UEAAH_KUtagPOINTS@@@Z
	DQ	FLAT:?EvCreate@TWin@@UEAAH_J@Z
	DQ	FLAT:?EvClose@TWin@@UEAAHXZ
	DQ	FLAT:?EvDestroy@TWin@@UEAAHXZ
	DQ	FLAT:?EvNcDestroy@TWin@@UEAAHXZ
	DQ	FLAT:?EvQueryEndSession@TWin@@UEAAHHH@Z
	DQ	FLAT:?EvEndSession@TWin@@UEAAHHH@Z
	DQ	FLAT:?EvPowerBroadcast@TWin@@UEAAH_K_J@Z
	DQ	FLAT:?EvQueryOpen@TWin@@UEAAHXZ
	DQ	FLAT:?EvPaint@TWin@@UEAAHXZ
	DQ	FLAT:?EvNcPaint@TWin@@UEAAHPEAUHRGN__@@@Z
	DQ	FLAT:?EvSize@TWin@@UEAAHIGG@Z
	DQ	FLAT:?EvMove@TWin@@UEAAHHH@Z
	DQ	FLAT:?EvShowWindow@TWin@@UEAAHHH@Z
	DQ	FLAT:?EvGetMinMaxInfo@TWin@@UEAAHPEAUtagMINMAXINFO@@@Z
	DQ	FLAT:?EvTimer@TWin@@UEAAH_KP6AXPEAUHWND__@@I0K@Z@Z
	DQ	FLAT:?EvSetCursor@TWin@@UEAAHPEAUHWND__@@GG@Z
	DQ	FLAT:?EvMouseMove@TWin@@UEAAHIUtagPOINTS@@@Z
	DQ	FLAT:?EvNcHitTest@TWin@@UEAAHUtagPOINTS@@PEA_J@Z
	DQ	FLAT:?EvMeasureItem@TWin@@UEAAHIPEAUtagMEASUREITEMSTRUCT@@@Z
	DQ	FLAT:?EvDrawItem@TWin@@UEAAHIPEAUtagDRAWITEMSTRUCT@@@Z
	DQ	FLAT:?EvMenuSelect@TWin@@UEAAHIIPEAUHMENU__@@@Z
	DQ	FLAT:?EvDropFiles@TWin@@UEAAHPEAUHDROP__@@@Z
	DQ	FLAT:?EvNotify@TWin@@UEAAHIPEAUtagNMHDR@@@Z
	DQ	FLAT:?EvContextMenu@TWin@@UEAAHPEAUHWND__@@UtagPOINTS@@@Z
	DQ	FLAT:?EvHotKey@TWin@@UEAAHH@Z
	DQ	FLAT:?EvActivateApp@TWin@@UEAAHHK@Z
	DQ	FLAT:?EvActivate@TWin@@UEAAHHKPEAUHWND__@@@Z
	DQ	FLAT:?EvChar@TWin@@UEAAH_W_J@Z
	DQ	FLAT:?EvWindowPosChanged@TWin@@UEAAHPEAUtagWINDOWPOS@@@Z
	DQ	FLAT:?EvWindowPosChanging@TWin@@UEAAHPEAUtagWINDOWPOS@@@Z
	DQ	FLAT:?EvMouseWheel@TWin@@UEAAHGFFF@Z
	DQ	FLAT:?EventButton@TWin@@UEAAHIHUtagPOINTS@@@Z
	DQ	FLAT:?EventKey@TWin@@UEAAHIHJ@Z
	DQ	FLAT:?EventMenuLoop@TWin@@UEAAHIH@Z
	DQ	FLAT:?EventInitMenu@TWin@@UEAAHIPEAUHMENU__@@IH@Z
	DQ	FLAT:?EventCtlColor@TWin@@UEAAHIPEAUHDC__@@PEAUHWND__@@PEAPEAUHBRUSH__@@@Z
	DQ	FLAT:?EventFocus@TWin@@UEAAHIPEAUHWND__@@@Z
	DQ	FLAT:?EventScrollWrapper@TWin@@UEAAHIHHPEAUHWND__@@@Z
	DQ	FLAT:?EventScroll@TWin@@UEAAHIHHPEAUHWND__@@@Z
	DQ	FLAT:?EventPrint@TWin@@UEAAHIPEAUHDC__@@K@Z
	DQ	FLAT:?EventApp@TWin@@UEAAHI_K_J@Z
	DQ	FLAT:?EventUser@TWin@@UEAAHI_K_J@Z
	DQ	FLAT:?EventSystem@TWin@@UEAAHI_K_J@Z
	DQ	FLAT:?GetDlgItemTextA@TWin@@UEAAIHPEADH@Z
	DQ	FLAT:?GetDlgItemTextW@TWin@@UEAAIHPEA_WH@Z
	DQ	FLAT:?GetDlgItemTextU8@TWin@@UEAAIHPEADH@Z
	DQ	FLAT:?SetDlgItemTextA@TWin@@UEAAHHPEBD@Z
	DQ	FLAT:?SetDlgItemTextW@TWin@@UEAAHHPEB_W@Z
	DQ	FLAT:?SetDlgItemTextU8@TWin@@UEAAHHPEBD@Z
	DQ	FLAT:?GetDlgItemInt@TWin@@UEAAHHPEAHH@Z
	DQ	FLAT:?SetDlgItemInt@TWin@@UEAAHHHH@Z
	DQ	FLAT:?GetDlgItem@TWin@@UEAAPEAUHWND__@@H@Z
	DQ	FLAT:?CheckDlgButton@TWin@@UEAAHHI@Z
	DQ	FLAT:?IsDlgButtonChecked@TWin@@UEAAIH@Z
	DQ	FLAT:?IsWindowVisible@TWin@@UEAAHXZ
	DQ	FLAT:?EnableWindow@TWin@@UEAAHH@Z
	DQ	FLAT:?MessageBoxA@TWin@@UEAAHPEBD0I@Z
	DQ	FLAT:?MessageBoxW@TWin@@UEAAHPEB_W0I@Z
	DQ	FLAT:?MessageBoxU8@TWin@@UEAAHPEBD0I@Z
	DQ	FLAT:?BringWindowToTop@TWin@@UEAAHXZ
	DQ	FLAT:?SetForegroundWindow@TWin@@UEAAHXZ
	DQ	FLAT:?SetForceForegroundWindow@TWin@@UEAAHXZ
	DQ	FLAT:?ShowWindow@TWin@@UEAAHH@Z
	DQ	FLAT:?PostMessageA@TWin@@UEAAHI_K_J@Z
	DQ	FLAT:?PostMessageW@TWin@@UEAAHI_K_J@Z
	DQ	FLAT:?SendMessageA@TWin@@UEAA_JI_K_J@Z
	DQ	FLAT:?SendMessageW@TWin@@UEAA_JI_K_J@Z
	DQ	FLAT:?SendDlgItemMessageA@TWin@@UEAA_JHI_K_J@Z
	DQ	FLAT:?SendDlgItemMessageW@TWin@@UEAA_JHI_K_J@Z
	DQ	FLAT:?GetWindowRect@TWin@@UEAAHPEAUtagRECT@@@Z
	DQ	FLAT:?GetClientRect@TWin@@UEAAHPEAUtagRECT@@@Z
	DQ	FLAT:?SetWindowPos@TWin@@UEAAHPEAUHWND__@@HHHHI@Z
	DQ	FLAT:?SetActiveWindow@TWin@@UEAAPEAUHWND__@@XZ
	DQ	FLAT:?GetWindowTextA@TWin@@UEAAHPEADH@Z
	DQ	FLAT:?SetWindowTextA@TWin@@UEAAHPEBD@Z
	DQ	FLAT:?GetWindowTextW@TWin@@UEAAHPEA_WH@Z
	DQ	FLAT:?GetWindowTextU8@TWin@@UEAAHPEADH@Z
	DQ	FLAT:?SetWindowTextW@TWin@@UEAAHPEB_W@Z
	DQ	FLAT:?SetWindowTextU8@TWin@@UEAAHPEBD@Z
	DQ	FLAT:?GetWindowTextLengthW@TWin@@UEAAHXZ
	DQ	FLAT:?GetWindowTextLengthU8@TWin@@UEAAHXZ
	DQ	FLAT:?InvalidateRect@TWin@@UEAAHPEBUtagRECT@@H@Z
	DQ	FLAT:?SetFocus@TWin@@UEAAPEAUHWND__@@XZ
	DQ	FLAT:?SetWindowLongPtrA@TWin@@UEAA_JH_J@Z
	DQ	FLAT:?SetWindowWord@TWin@@UEAAGHG@Z
	DQ	FLAT:?GetWindowLongPtrA@TWin@@UEAA_JH@Z
	DQ	FLAT:?GetWindowWord@TWin@@UEAAGH@Z
	DQ	FLAT:?SetTimer@TWin@@UEAA_K_KIP6AXPEAUHWND__@@I0K@Z@Z
	DQ	FLAT:?KillTimer@TWin@@UEAAH_K@Z
	DQ	FLAT:?GetParent@TWin@@UEAAPEAV1@XZ
	DQ	FLAT:?SetParent@TWin@@UEAAXPEAV1@@Z
	DQ	FLAT:?MoveWindow@TWin@@UEAAHHHHHH@Z
	DQ	FLAT:?FitMoveWindow@TWin@@UEAAHHH@Z
	DQ	FLAT:?Sleep@TWin@@UEAAHI@Z
	DQ	FLAT:?Idle@TWin@@UEAAHXZ
	DQ	FLAT:?Parent@TWin@@UEAAPEAV1@XZ
	DQ	FLAT:?MoveCenter@TWin@@UEAAHH@Z
	DQ	FLAT:?PreProcMsg@TWin@@UEAAHPEAUtagMSG@@@Z
	DQ	FLAT:?WinProc@TWin@@UEAA_JI_K_J@Z
	DQ	FLAT:?DefWindowProcA@TSubClass@@UEAA_JI_K_J@Z
	DQ	FLAT:?SetAccel@TWin@@UEAAXPEAUHACCEL__@@@Z
	DQ	FLAT:?CreateTipWnd@TWin@@UEAAHPEB_WHH@Z
	DQ	FLAT:?SetTipTextW@TWin@@UEAAHPEB_WHH@Z
	DQ	FLAT:?CloseTipWnd@TWin@@UEAAHXZ
	DQ	FLAT:?AttachWnd@TSubClass@@UEAAHPEAUHWND__@@@Z
	DQ	FLAT:?DetachWnd@TSubClass@@UEAAHXZ
CONST	ENDS
;	COMDAT ??_R1A@?0A@EA@TCtl@@8
rdata$r	SEGMENT
??_R1A@?0A@EA@TCtl@@8 DD imagerel ??_R0?AVTCtl@@@8	; TCtl::`RTTI Base Class Descriptor at (0,-1,0,64)'
	DD	02H
	DD	00H
	DD	0ffffffffH
	DD	00H
	DD	040H
	DD	imagerel ??_R3TCtl@@8
rdata$r	ENDS
;	COMDAT ??_7TCtl@@6B@
CONST	SEGMENT
??_7TCtl@@6B@ DQ FLAT:??_R4TCtl@@6B@			; TCtl::`vftable'
	DQ	FLAT:??_ETCtl@@UEAAPEAXI@Z
	DQ	FLAT:?LinkHash@?$THashObjT@I@@UEAAHPEAV1@@Z
	DQ	FLAT:?UnlinkHash@?$THashObjT@I@@UEAAHXZ
	DQ	FLAT:?Show@TWin@@UEAAXH@Z
	DQ	FLAT:?Create@TWin@@UEAAHPEBD0KKPEAUHMENU__@@@Z
	DQ	FLAT:?CreateU8@TWin@@UEAAHPEBD0KKPEAUHMENU__@@@Z
	DQ	FLAT:?CreateW@TWin@@UEAAHPEB_W0KKPEAUHMENU__@@@Z
	DQ	FLAT:?Destroy@TWin@@UEAAXXZ
	DQ	FLAT:?EvCommand@TWin@@UEAAHGG_J@Z
	DQ	FLAT:?EvSysCommand@TWin@@UEAAH_KUtagPOINTS@@@Z
	DQ	FLAT:?EvCreate@TWin@@UEAAH_J@Z
	DQ	FLAT:?EvClose@TWin@@UEAAHXZ
	DQ	FLAT:?EvDestroy@TWin@@UEAAHXZ
	DQ	FLAT:?EvNcDestroy@TWin@@UEAAHXZ
	DQ	FLAT:?EvQueryEndSession@TWin@@UEAAHHH@Z
	DQ	FLAT:?EvEndSession@TWin@@UEAAHHH@Z
	DQ	FLAT:?EvPowerBroadcast@TWin@@UEAAH_K_J@Z
	DQ	FLAT:?EvQueryOpen@TWin@@UEAAHXZ
	DQ	FLAT:?EvPaint@TWin@@UEAAHXZ
	DQ	FLAT:?EvNcPaint@TWin@@UEAAHPEAUHRGN__@@@Z
	DQ	FLAT:?EvSize@TWin@@UEAAHIGG@Z
	DQ	FLAT:?EvMove@TWin@@UEAAHHH@Z
	DQ	FLAT:?EvShowWindow@TWin@@UEAAHHH@Z
	DQ	FLAT:?EvGetMinMaxInfo@TWin@@UEAAHPEAUtagMINMAXINFO@@@Z
	DQ	FLAT:?EvTimer@TWin@@UEAAH_KP6AXPEAUHWND__@@I0K@Z@Z
	DQ	FLAT:?EvSetCursor@TWin@@UEAAHPEAUHWND__@@GG@Z
	DQ	FLAT:?EvMouseMove@TWin@@UEAAHIUtagPOINTS@@@Z
	DQ	FLAT:?EvNcHitTest@TWin@@UEAAHUtagPOINTS@@PEA_J@Z
	DQ	FLAT:?EvMeasureItem@TWin@@UEAAHIPEAUtagMEASUREITEMSTRUCT@@@Z
	DQ	FLAT:?EvDrawItem@TWin@@UEAAHIPEAUtagDRAWITEMSTRUCT@@@Z
	DQ	FLAT:?EvMenuSelect@TWin@@UEAAHIIPEAUHMENU__@@@Z
	DQ	FLAT:?EvDropFiles@TWin@@UEAAHPEAUHDROP__@@@Z
	DQ	FLAT:?EvNotify@TWin@@UEAAHIPEAUtagNMHDR@@@Z
	DQ	FLAT:?EvContextMenu@TWin@@UEAAHPEAUHWND__@@UtagPOINTS@@@Z
	DQ	FLAT:?EvHotKey@TWin@@UEAAHH@Z
	DQ	FLAT:?EvActivateApp@TWin@@UEAAHHK@Z
	DQ	FLAT:?EvActivate@TWin@@UEAAHHKPEAUHWND__@@@Z
	DQ	FLAT:?EvChar@TWin@@UEAAH_W_J@Z
	DQ	FLAT:?EvWindowPosChanged@TWin@@UEAAHPEAUtagWINDOWPOS@@@Z
	DQ	FLAT:?EvWindowPosChanging@TWin@@UEAAHPEAUtagWINDOWPOS@@@Z
	DQ	FLAT:?EvMouseWheel@TWin@@UEAAHGFFF@Z
	DQ	FLAT:?EventButton@TWin@@UEAAHIHUtagPOINTS@@@Z
	DQ	FLAT:?EventKey@TWin@@UEAAHIHJ@Z
	DQ	FLAT:?EventMenuLoop@TWin@@UEAAHIH@Z
	DQ	FLAT:?EventInitMenu@TWin@@UEAAHIPEAUHMENU__@@IH@Z
	DQ	FLAT:?EventCtlColor@TWin@@UEAAHIPEAUHDC__@@PEAUHWND__@@PEAPEAUHBRUSH__@@@Z
	DQ	FLAT:?EventFocus@TWin@@UEAAHIPEAUHWND__@@@Z
	DQ	FLAT:?EventScrollWrapper@TWin@@UEAAHIHHPEAUHWND__@@@Z
	DQ	FLAT:?EventScroll@TWin@@UEAAHIHHPEAUHWND__@@@Z
	DQ	FLAT:?EventPrint@TWin@@UEAAHIPEAUHDC__@@K@Z
	DQ	FLAT:?EventApp@TWin@@UEAAHI_K_J@Z
	DQ	FLAT:?EventUser@TWin@@UEAAHI_K_J@Z
	DQ	FLAT:?EventSystem@TWin@@UEAAHI_K_J@Z
	DQ	FLAT:?GetDlgItemTextA@TWin@@UEAAIHPEADH@Z
	DQ	FLAT:?GetDlgItemTextW@TWin@@UEAAIHPEA_WH@Z
	DQ	FLAT:?GetDlgItemTextU8@TWin@@UEAAIHPEADH@Z
	DQ	FLAT:?SetDlgItemTextA@TWin@@UEAAHHPEBD@Z
	DQ	FLAT:?SetDlgItemTextW@TWin@@UEAAHHPEB_W@Z
	DQ	FLAT:?SetDlgItemTextU8@TWin@@UEAAHHPEBD@Z
	DQ	FLAT:?GetDlgItemInt@TWin@@UEAAHHPEAHH@Z
	DQ	FLAT:?SetDlgItemInt@TWin@@UEAAHHHH@Z
	DQ	FLAT:?GetDlgItem@TWin@@UEAAPEAUHWND__@@H@Z
	DQ	FLAT:?CheckDlgButton@TWin@@UEAAHHI@Z
	DQ	FLAT:?IsDlgButtonChecked@TWin@@UEAAIH@Z
	DQ	FLAT:?IsWindowVisible@TWin@@UEAAHXZ
	DQ	FLAT:?EnableWindow@TWin@@UEAAHH@Z
	DQ	FLAT:?MessageBoxA@TWin@@UEAAHPEBD0I@Z
	DQ	FLAT:?MessageBoxW@TWin@@UEAAHPEB_W0I@Z
	DQ	FLAT:?MessageBoxU8@TWin@@UEAAHPEBD0I@Z
	DQ	FLAT:?BringWindowToTop@TWin@@UEAAHXZ
	DQ	FLAT:?SetForegroundWindow@TWin@@UEAAHXZ
	DQ	FLAT:?SetForceForegroundWindow@TWin@@UEAAHXZ
	DQ	FLAT:?ShowWindow@TWin@@UEAAHH@Z
	DQ	FLAT:?PostMessageA@TWin@@UEAAHI_K_J@Z
	DQ	FLAT:?PostMessageW@TWin@@UEAAHI_K_J@Z
	DQ	FLAT:?SendMessageA@TWin@@UEAA_JI_K_J@Z
	DQ	FLAT:?SendMessageW@TWin@@UEAA_JI_K_J@Z
	DQ	FLAT:?SendDlgItemMessageA@TWin@@UEAA_JHI_K_J@Z
	DQ	FLAT:?SendDlgItemMessageW@TWin@@UEAA_JHI_K_J@Z
	DQ	FLAT:?GetWindowRect@TWin@@UEAAHPEAUtagRECT@@@Z
	DQ	FLAT:?GetClientRect@TWin@@UEAAHPEAUtagRECT@@@Z
	DQ	FLAT:?SetWindowPos@TWin@@UEAAHPEAUHWND__@@HHHHI@Z
	DQ	FLAT:?SetActiveWindow@TWin@@UEAAPEAUHWND__@@XZ
	DQ	FLAT:?GetWindowTextA@TWin@@UEAAHPEADH@Z
	DQ	FLAT:?SetWindowTextA@TWin@@UEAAHPEBD@Z
	DQ	FLAT:?GetWindowTextW@TWin@@UEAAHPEA_WH@Z
	DQ	FLAT:?GetWindowTextU8@TWin@@UEAAHPEADH@Z
	DQ	FLAT:?SetWindowTextW@TWin@@UEAAHPEB_W@Z
	DQ	FLAT:?SetWindowTextU8@TWin@@UEAAHPEBD@Z
	DQ	FLAT:?GetWindowTextLengthW@TWin@@UEAAHXZ
	DQ	FLAT:?GetWindowTextLengthU8@TWin@@UEAAHXZ
	DQ	FLAT:?InvalidateRect@TWin@@UEAAHPEBUtagRECT@@H@Z
	DQ	FLAT:?SetFocus@TWin@@UEAAPEAUHWND__@@XZ
	DQ	FLAT:?SetWindowLongPtrA@TWin@@UEAA_JH_J@Z
	DQ	FLAT:?SetWindowWord@TWin@@UEAAGHG@Z
	DQ	FLAT:?GetWindowLongPtrA@TWin@@UEAA_JH@Z
	DQ	FLAT:?GetWindowWord@TWin@@UEAAGH@Z
	DQ	FLAT:?SetTimer@TWin@@UEAA_K_KIP6AXPEAUHWND__@@I0K@Z@Z
	DQ	FLAT:?KillTimer@TWin@@UEAAH_K@Z
	DQ	FLAT:?GetParent@TWin@@UEAAPEAV1@XZ
	DQ	FLAT:?SetParent@TWin@@UEAAXPEAV1@@Z
	DQ	FLAT:?MoveWindow@TWin@@UEAAHHHHHH@Z
	DQ	FLAT:?FitMoveWindow@TWin@@UEAAHHH@Z
	DQ	FLAT:?Sleep@TWin@@UEAAHI@Z
	DQ	FLAT:?Idle@TWin@@UEAAHXZ
	DQ	FLAT:?Parent@TWin@@UEAAPEAV1@XZ
	DQ	FLAT:?MoveCenter@TWin@@UEAAHH@Z
	DQ	FLAT:?PreProcMsg@TCtl@@UEAAHPEAUtagMSG@@@Z
	DQ	FLAT:?WinProc@TWin@@UEAA_JI_K_J@Z
	DQ	FLAT:?DefWindowProcA@TWin@@UEAA_JI_K_J@Z
	DQ	FLAT:?SetAccel@TWin@@UEAAXPEAUHACCEL__@@@Z
	DQ	FLAT:?CreateTipWnd@TWin@@UEAAHPEB_WHH@Z
	DQ	FLAT:?SetTipTextW@TWin@@UEAAHPEB_WHH@Z
	DQ	FLAT:?CloseTipWnd@TWin@@UEAAHXZ
CONST	ENDS
;	COMDAT ??_R4TCtl@@6B@
rdata$r	SEGMENT
??_R4TCtl@@6B@ DD 01H					; TCtl::`RTTI Complete Object Locator'
	DD	00H
	DD	00H
	DD	imagerel ??_R0?AVTCtl@@@8
	DD	imagerel ??_R3TCtl@@8
	DD	imagerel ??_R4TCtl@@6B@
rdata$r	ENDS
;	COMDAT ??_7TWin@@6B@
CONST	SEGMENT
??_7TWin@@6B@ DQ FLAT:??_R4TWin@@6B@			; TWin::`vftable'
	DQ	FLAT:??_ETWin@@UEAAPEAXI@Z
	DQ	FLAT:?LinkHash@?$THashObjT@I@@UEAAHPEAV1@@Z
	DQ	FLAT:?UnlinkHash@?$THashObjT@I@@UEAAHXZ
	DQ	FLAT:?Show@TWin@@UEAAXH@Z
	DQ	FLAT:?Create@TWin@@UEAAHPEBD0KKPEAUHMENU__@@@Z
	DQ	FLAT:?CreateU8@TWin@@UEAAHPEBD0KKPEAUHMENU__@@@Z
	DQ	FLAT:?CreateW@TWin@@UEAAHPEB_W0KKPEAUHMENU__@@@Z
	DQ	FLAT:?Destroy@TWin@@UEAAXXZ
	DQ	FLAT:?EvCommand@TWin@@UEAAHGG_J@Z
	DQ	FLAT:?EvSysCommand@TWin@@UEAAH_KUtagPOINTS@@@Z
	DQ	FLAT:?EvCreate@TWin@@UEAAH_J@Z
	DQ	FLAT:?EvClose@TWin@@UEAAHXZ
	DQ	FLAT:?EvDestroy@TWin@@UEAAHXZ
	DQ	FLAT:?EvNcDestroy@TWin@@UEAAHXZ
	DQ	FLAT:?EvQueryEndSession@TWin@@UEAAHHH@Z
	DQ	FLAT:?EvEndSession@TWin@@UEAAHHH@Z
	DQ	FLAT:?EvPowerBroadcast@TWin@@UEAAH_K_J@Z
	DQ	FLAT:?EvQueryOpen@TWin@@UEAAHXZ
	DQ	FLAT:?EvPaint@TWin@@UEAAHXZ
	DQ	FLAT:?EvNcPaint@TWin@@UEAAHPEAUHRGN__@@@Z
	DQ	FLAT:?EvSize@TWin@@UEAAHIGG@Z
	DQ	FLAT:?EvMove@TWin@@UEAAHHH@Z
	DQ	FLAT:?EvShowWindow@TWin@@UEAAHHH@Z
	DQ	FLAT:?EvGetMinMaxInfo@TWin@@UEAAHPEAUtagMINMAXINFO@@@Z
	DQ	FLAT:?EvTimer@TWin@@UEAAH_KP6AXPEAUHWND__@@I0K@Z@Z
	DQ	FLAT:?EvSetCursor@TWin@@UEAAHPEAUHWND__@@GG@Z
	DQ	FLAT:?EvMouseMove@TWin@@UEAAHIUtagPOINTS@@@Z
	DQ	FLAT:?EvNcHitTest@TWin@@UEAAHUtagPOINTS@@PEA_J@Z
	DQ	FLAT:?EvMeasureItem@TWin@@UEAAHIPEAUtagMEASUREITEMSTRUCT@@@Z
	DQ	FLAT:?EvDrawItem@TWin@@UEAAHIPEAUtagDRAWITEMSTRUCT@@@Z
	DQ	FLAT:?EvMenuSelect@TWin@@UEAAHIIPEAUHMENU__@@@Z
	DQ	FLAT:?EvDropFiles@TWin@@UEAAHPEAUHDROP__@@@Z
	DQ	FLAT:?EvNotify@TWin@@UEAAHIPEAUtagNMHDR@@@Z
	DQ	FLAT:?EvContextMenu@TWin@@UEAAHPEAUHWND__@@UtagPOINTS@@@Z
	DQ	FLAT:?EvHotKey@TWin@@UEAAHH@Z
	DQ	FLAT:?EvActivateApp@TWin@@UEAAHHK@Z
	DQ	FLAT:?EvActivate@TWin@@UEAAHHKPEAUHWND__@@@Z
	DQ	FLAT:?EvChar@TWin@@UEAAH_W_J@Z
	DQ	FLAT:?EvWindowPosChanged@TWin@@UEAAHPEAUtagWINDOWPOS@@@Z
	DQ	FLAT:?EvWindowPosChanging@TWin@@UEAAHPEAUtagWINDOWPOS@@@Z
	DQ	FLAT:?EvMouseWheel@TWin@@UEAAHGFFF@Z
	DQ	FLAT:?EventButton@TWin@@UEAAHIHUtagPOINTS@@@Z
	DQ	FLAT:?EventKey@TWin@@UEAAHIHJ@Z
	DQ	FLAT:?EventMenuLoop@TWin@@UEAAHIH@Z
	DQ	FLAT:?EventInitMenu@TWin@@UEAAHIPEAUHMENU__@@IH@Z
	DQ	FLAT:?EventCtlColor@TWin@@UEAAHIPEAUHDC__@@PEAUHWND__@@PEAPEAUHBRUSH__@@@Z
	DQ	FLAT:?EventFocus@TWin@@UEAAHIPEAUHWND__@@@Z
	DQ	FLAT:?EventScrollWrapper@TWin@@UEAAHIHHPEAUHWND__@@@Z
	DQ	FLAT:?EventScroll@TWin@@UEAAHIHHPEAUHWND__@@@Z
	DQ	FLAT:?EventPrint@TWin@@UEAAHIPEAUHDC__@@K@Z
	DQ	FLAT:?EventApp@TWin@@UEAAHI_K_J@Z
	DQ	FLAT:?EventUser@TWin@@UEAAHI_K_J@Z
	DQ	FLAT:?EventSystem@TWin@@UEAAHI_K_J@Z
	DQ	FLAT:?GetDlgItemTextA@TWin@@UEAAIHPEADH@Z
	DQ	FLAT:?GetDlgItemTextW@TWin@@UEAAIHPEA_WH@Z
	DQ	FLAT:?GetDlgItemTextU8@TWin@@UEAAIHPEADH@Z
	DQ	FLAT:?SetDlgItemTextA@TWin@@UEAAHHPEBD@Z
	DQ	FLAT:?SetDlgItemTextW@TWin@@UEAAHHPEB_W@Z
	DQ	FLAT:?SetDlgItemTextU8@TWin@@UEAAHHPEBD@Z
	DQ	FLAT:?GetDlgItemInt@TWin@@UEAAHHPEAHH@Z
	DQ	FLAT:?SetDlgItemInt@TWin@@UEAAHHHH@Z
	DQ	FLAT:?GetDlgItem@TWin@@UEAAPEAUHWND__@@H@Z
	DQ	FLAT:?CheckDlgButton@TWin@@UEAAHHI@Z
	DQ	FLAT:?IsDlgButtonChecked@TWin@@UEAAIH@Z
	DQ	FLAT:?IsWindowVisible@TWin@@UEAAHXZ
	DQ	FLAT:?EnableWindow@TWin@@UEAAHH@Z
	DQ	FLAT:?MessageBoxA@TWin@@UEAAHPEBD0I@Z
	DQ	FLAT:?MessageBoxW@TWin@@UEAAHPEB_W0I@Z
	DQ	FLAT:?MessageBoxU8@TWin@@UEAAHPEBD0I@Z
	DQ	FLAT:?BringWindowToTop@TWin@@UEAAHXZ
	DQ	FLAT:?SetForegroundWindow@TWin@@UEAAHXZ
	DQ	FLAT:?SetForceForegroundWindow@TWin@@UEAAHXZ
	DQ	FLAT:?ShowWindow@TWin@@UEAAHH@Z
	DQ	FLAT:?PostMessageA@TWin@@UEAAHI_K_J@Z
	DQ	FLAT:?PostMessageW@TWin@@UEAAHI_K_J@Z
	DQ	FLAT:?SendMessageA@TWin@@UEAA_JI_K_J@Z
	DQ	FLAT:?SendMessageW@TWin@@UEAA_JI_K_J@Z
	DQ	FLAT:?SendDlgItemMessageA@TWin@@UEAA_JHI_K_J@Z
	DQ	FLAT:?SendDlgItemMessageW@TWin@@UEAA_JHI_K_J@Z
	DQ	FLAT:?GetWindowRect@TWin@@UEAAHPEAUtagRECT@@@Z
	DQ	FLAT:?GetClientRect@TWin@@UEAAHPEAUtagRECT@@@Z
	DQ	FLAT:?SetWindowPos@TWin@@UEAAHPEAUHWND__@@HHHHI@Z
	DQ	FLAT:?SetActiveWindow@TWin@@UEAAPEAUHWND__@@XZ
	DQ	FLAT:?GetWindowTextA@TWin@@UEAAHPEADH@Z
	DQ	FLAT:?SetWindowTextA@TWin@@UEAAHPEBD@Z
	DQ	FLAT:?GetWindowTextW@TWin@@UEAAHPEA_WH@Z
	DQ	FLAT:?GetWindowTextU8@TWin@@UEAAHPEADH@Z
	DQ	FLAT:?SetWindowTextW@TWin@@UEAAHPEB_W@Z
	DQ	FLAT:?SetWindowTextU8@TWin@@UEAAHPEBD@Z
	DQ	FLAT:?GetWindowTextLengthW@TWin@@UEAAHXZ
	DQ	FLAT:?GetWindowTextLengthU8@TWin@@UEAAHXZ
	DQ	FLAT:?InvalidateRect@TWin@@UEAAHPEBUtagRECT@@H@Z
	DQ	FLAT:?SetFocus@TWin@@UEAAPEAUHWND__@@XZ
	DQ	FLAT:?SetWindowLongPtrA@TWin@@UEAA_JH_J@Z
	DQ	FLAT:?SetWindowWord@TWin@@UEAAGHG@Z
	DQ	FLAT:?GetWindowLongPtrA@TWin@@UEAA_JH@Z
	DQ	FLAT:?GetWindowWord@TWin@@UEAAGH@Z
	DQ	FLAT:?SetTimer@TWin@@UEAA_K_KIP6AXPEAUHWND__@@I0K@Z@Z
	DQ	FLAT:?KillTimer@TWin@@UEAAH_K@Z
	DQ	FLAT:?GetParent@TWin@@UEAAPEAV1@XZ
	DQ	FLAT:?SetParent@TWin@@UEAAXPEAV1@@Z
	DQ	FLAT:?MoveWindow@TWin@@UEAAHHHHHH@Z
	DQ	FLAT:?FitMoveWindow@TWin@@UEAAHHH@Z
	DQ	FLAT:?Sleep@TWin@@UEAAHI@Z
	DQ	FLAT:?Idle@TWin@@UEAAHXZ
	DQ	FLAT:?Parent@TWin@@UEAAPEAV1@XZ
	DQ	FLAT:?MoveCenter@TWin@@UEAAHH@Z
	DQ	FLAT:?PreProcMsg@TWin@@UEAAHPEAUtagMSG@@@Z
	DQ	FLAT:?WinProc@TWin@@UEAA_JI_K_J@Z
	DQ	FLAT:?DefWindowProcA@TWin@@UEAA_JI_K_J@Z
	DQ	FLAT:?SetAccel@TWin@@UEAAXPEAUHACCEL__@@@Z
	DQ	FLAT:?CreateTipWnd@TWin@@UEAAHPEB_WHH@Z
	DQ	FLAT:?SetTipTextW@TWin@@UEAAHPEB_WHH@Z
	DQ	FLAT:?CloseTipWnd@TWin@@UEAAHXZ
CONST	ENDS
;	COMDAT ??_R2TSubClassCtl@@8
rdata$r	SEGMENT
??_R2TSubClassCtl@@8 DD imagerel ??_R1A@?0A@EA@TSubClassCtl@@8 ; TSubClassCtl::`RTTI Base Class Array'
	DD	imagerel ??_R1A@?0A@EA@TSubClass@@8
	DD	imagerel ??_R1A@?0A@EA@TWin@@8
	DD	imagerel ??_R1A@?0A@EA@?$THashObjT@I@@8
	ORG $+3
rdata$r	ENDS
;	COMDAT ??_R4TWin@@6B@
rdata$r	SEGMENT
??_R4TWin@@6B@ DD 01H					; TWin::`RTTI Complete Object Locator'
	DD	00H
	DD	00H
	DD	imagerel ??_R0?AVTWin@@@8
	DD	imagerel ??_R3TWin@@8
	DD	imagerel ??_R4TWin@@6B@
rdata$r	ENDS
;	COMDAT ??_R1A@?0A@EA@TSubClassCtl@@8
rdata$r	SEGMENT
??_R1A@?0A@EA@TSubClassCtl@@8 DD imagerel ??_R0?AVTSubClassCtl@@@8 ; TSubClassCtl::`RTTI Base Class Descriptor at (0,-1,0,64)'
	DD	03H
	DD	00H
	DD	0ffffffffH
	DD	00H
	DD	040H
	DD	imagerel ??_R3TSubClassCtl@@8
rdata$r	ENDS
;	COMDAT ??_R3TCtl@@8
rdata$r	SEGMENT
??_R3TCtl@@8 DD	00H					; TCtl::`RTTI Class Hierarchy Descriptor'
	DD	00H
	DD	03H
	DD	imagerel ??_R2TCtl@@8
rdata$r	ENDS
;	COMDAT ??_R4TSubClassCtl@@6B@
rdata$r	SEGMENT
??_R4TSubClassCtl@@6B@ DD 01H				; TSubClassCtl::`RTTI Complete Object Locator'
	DD	00H
	DD	00H
	DD	imagerel ??_R0?AVTSubClassCtl@@@8
	DD	imagerel ??_R3TSubClassCtl@@8
	DD	imagerel ??_R4TSubClassCtl@@6B@
rdata$r	ENDS
;	COMDAT ??_R4TSubClass@@6B@
rdata$r	SEGMENT
??_R4TSubClass@@6B@ DD 01H				; TSubClass::`RTTI Complete Object Locator'
	DD	00H
	DD	00H
	DD	imagerel ??_R0?AVTSubClass@@@8
	DD	imagerel ??_R3TSubClass@@8
	DD	imagerel ??_R4TSubClass@@6B@
rdata$r	ENDS
;	COMDAT ??_7TSubClassCtl@@6B@
CONST	SEGMENT
??_7TSubClassCtl@@6B@ DQ FLAT:??_R4TSubClassCtl@@6B@	; TSubClassCtl::`vftable'
	DQ	FLAT:??_ETSubClassCtl@@UEAAPEAXI@Z
	DQ	FLAT:?LinkHash@?$THashObjT@I@@UEAAHPEAV1@@Z
	DQ	FLAT:?UnlinkHash@?$THashObjT@I@@UEAAHXZ
	DQ	FLAT:?Show@TWin@@UEAAXH@Z
	DQ	FLAT:?Create@TWin@@UEAAHPEBD0KKPEAUHMENU__@@@Z
	DQ	FLAT:?CreateU8@TWin@@UEAAHPEBD0KKPEAUHMENU__@@@Z
	DQ	FLAT:?CreateW@TWin@@UEAAHPEB_W0KKPEAUHMENU__@@@Z
	DQ	FLAT:?Destroy@TWin@@UEAAXXZ
	DQ	FLAT:?EvCommand@TWin@@UEAAHGG_J@Z
	DQ	FLAT:?EvSysCommand@TWin@@UEAAH_KUtagPOINTS@@@Z
	DQ	FLAT:?EvCreate@TWin@@UEAAH_J@Z
	DQ	FLAT:?EvClose@TWin@@UEAAHXZ
	DQ	FLAT:?EvDestroy@TWin@@UEAAHXZ
	DQ	FLAT:?EvNcDestroy@TWin@@UEAAHXZ
	DQ	FLAT:?EvQueryEndSession@TWin@@UEAAHHH@Z
	DQ	FLAT:?EvEndSession@TWin@@UEAAHHH@Z
	DQ	FLAT:?EvPowerBroadcast@TWin@@UEAAH_K_J@Z
	DQ	FLAT:?EvQueryOpen@TWin@@UEAAHXZ
	DQ	FLAT:?EvPaint@TWin@@UEAAHXZ
	DQ	FLAT:?EvNcPaint@TWin@@UEAAHPEAUHRGN__@@@Z
	DQ	FLAT:?EvSize@TWin@@UEAAHIGG@Z
	DQ	FLAT:?EvMove@TWin@@UEAAHHH@Z
	DQ	FLAT:?EvShowWindow@TWin@@UEAAHHH@Z
	DQ	FLAT:?EvGetMinMaxInfo@TWin@@UEAAHPEAUtagMINMAXINFO@@@Z
	DQ	FLAT:?EvTimer@TWin@@UEAAH_KP6AXPEAUHWND__@@I0K@Z@Z
	DQ	FLAT:?EvSetCursor@TWin@@UEAAHPEAUHWND__@@GG@Z
	DQ	FLAT:?EvMouseMove@TWin@@UEAAHIUtagPOINTS@@@Z
	DQ	FLAT:?EvNcHitTest@TWin@@UEAAHUtagPOINTS@@PEA_J@Z
	DQ	FLAT:?EvMeasureItem@TWin@@UEAAHIPEAUtagMEASUREITEMSTRUCT@@@Z
	DQ	FLAT:?EvDrawItem@TWin@@UEAAHIPEAUtagDRAWITEMSTRUCT@@@Z
	DQ	FLAT:?EvMenuSelect@TWin@@UEAAHIIPEAUHMENU__@@@Z
	DQ	FLAT:?EvDropFiles@TWin@@UEAAHPEAUHDROP__@@@Z
	DQ	FLAT:?EvNotify@TWin@@UEAAHIPEAUtagNMHDR@@@Z
	DQ	FLAT:?EvContextMenu@TWin@@UEAAHPEAUHWND__@@UtagPOINTS@@@Z
	DQ	FLAT:?EvHotKey@TWin@@UEAAHH@Z
	DQ	FLAT:?EvActivateApp@TWin@@UEAAHHK@Z
	DQ	FLAT:?EvActivate@TWin@@UEAAHHKPEAUHWND__@@@Z
	DQ	FLAT:?EvChar@TWin@@UEAAH_W_J@Z
	DQ	FLAT:?EvWindowPosChanged@TWin@@UEAAHPEAUtagWINDOWPOS@@@Z
	DQ	FLAT:?EvWindowPosChanging@TWin@@UEAAHPEAUtagWINDOWPOS@@@Z
	DQ	FLAT:?EvMouseWheel@TWin@@UEAAHGFFF@Z
	DQ	FLAT:?EventButton@TWin@@UEAAHIHUtagPOINTS@@@Z
	DQ	FLAT:?EventKey@TWin@@UEAAHIHJ@Z
	DQ	FLAT:?EventMenuLoop@TWin@@UEAAHIH@Z
	DQ	FLAT:?EventInitMenu@TWin@@UEAAHIPEAUHMENU__@@IH@Z
	DQ	FLAT:?EventCtlColor@TWin@@UEAAHIPEAUHDC__@@PEAUHWND__@@PEAPEAUHBRUSH__@@@Z
	DQ	FLAT:?EventFocus@TWin@@UEAAHIPEAUHWND__@@@Z
	DQ	FLAT:?EventScrollWrapper@TWin@@UEAAHIHHPEAUHWND__@@@Z
	DQ	FLAT:?EventScroll@TWin@@UEAAHIHHPEAUHWND__@@@Z
	DQ	FLAT:?EventPrint@TWin@@UEAAHIPEAUHDC__@@K@Z
	DQ	FLAT:?EventApp@TWin@@UEAAHI_K_J@Z
	DQ	FLAT:?EventUser@TWin@@UEAAHI_K_J@Z
	DQ	FLAT:?EventSystem@TWin@@UEAAHI_K_J@Z
	DQ	FLAT:?GetDlgItemTextA@TWin@@UEAAIHPEADH@Z
	DQ	FLAT:?GetDlgItemTextW@TWin@@UEAAIHPEA_WH@Z
	DQ	FLAT:?GetDlgItemTextU8@TWin@@UEAAIHPEADH@Z
	DQ	FLAT:?SetDlgItemTextA@TWin@@UEAAHHPEBD@Z
	DQ	FLAT:?SetDlgItemTextW@TWin@@UEAAHHPEB_W@Z
	DQ	FLAT:?SetDlgItemTextU8@TWin@@UEAAHHPEBD@Z
	DQ	FLAT:?GetDlgItemInt@TWin@@UEAAHHPEAHH@Z
	DQ	FLAT:?SetDlgItemInt@TWin@@UEAAHHHH@Z
	DQ	FLAT:?GetDlgItem@TWin@@UEAAPEAUHWND__@@H@Z
	DQ	FLAT:?CheckDlgButton@TWin@@UEAAHHI@Z
	DQ	FLAT:?IsDlgButtonChecked@TWin@@UEAAIH@Z
	DQ	FLAT:?IsWindowVisible@TWin@@UEAAHXZ
	DQ	FLAT:?EnableWindow@TWin@@UEAAHH@Z
	DQ	FLAT:?MessageBoxA@TWin@@UEAAHPEBD0I@Z
	DQ	FLAT:?MessageBoxW@TWin@@UEAAHPEB_W0I@Z
	DQ	FLAT:?MessageBoxU8@TWin@@UEAAHPEBD0I@Z
	DQ	FLAT:?BringWindowToTop@TWin@@UEAAHXZ
	DQ	FLAT:?SetForegroundWindow@TWin@@UEAAHXZ
	DQ	FLAT:?SetForceForegroundWindow@TWin@@UEAAHXZ
	DQ	FLAT:?ShowWindow@TWin@@UEAAHH@Z
	DQ	FLAT:?PostMessageA@TWin@@UEAAHI_K_J@Z
	DQ	FLAT:?PostMessageW@TWin@@UEAAHI_K_J@Z
	DQ	FLAT:?SendMessageA@TWin@@UEAA_JI_K_J@Z
	DQ	FLAT:?SendMessageW@TWin@@UEAA_JI_K_J@Z
	DQ	FLAT:?SendDlgItemMessageA@TWin@@UEAA_JHI_K_J@Z
	DQ	FLAT:?SendDlgItemMessageW@TWin@@UEAA_JHI_K_J@Z
	DQ	FLAT:?GetWindowRect@TWin@@UEAAHPEAUtagRECT@@@Z
	DQ	FLAT:?GetClientRect@TWin@@UEAAHPEAUtagRECT@@@Z
	DQ	FLAT:?SetWindowPos@TWin@@UEAAHPEAUHWND__@@HHHHI@Z
	DQ	FLAT:?SetActiveWindow@TWin@@UEAAPEAUHWND__@@XZ
	DQ	FLAT:?GetWindowTextA@TWin@@UEAAHPEADH@Z
	DQ	FLAT:?SetWindowTextA@TWin@@UEAAHPEBD@Z
	DQ	FLAT:?GetWindowTextW@TWin@@UEAAHPEA_WH@Z
	DQ	FLAT:?GetWindowTextU8@TWin@@UEAAHPEADH@Z
	DQ	FLAT:?SetWindowTextW@TWin@@UEAAHPEB_W@Z
	DQ	FLAT:?SetWindowTextU8@TWin@@UEAAHPEBD@Z
	DQ	FLAT:?GetWindowTextLengthW@TWin@@UEAAHXZ
	DQ	FLAT:?GetWindowTextLengthU8@TWin@@UEAAHXZ
	DQ	FLAT:?InvalidateRect@TWin@@UEAAHPEBUtagRECT@@H@Z
	DQ	FLAT:?SetFocus@TWin@@UEAAPEAUHWND__@@XZ
	DQ	FLAT:?SetWindowLongPtrA@TWin@@UEAA_JH_J@Z
	DQ	FLAT:?SetWindowWord@TWin@@UEAAGHG@Z
	DQ	FLAT:?GetWindowLongPtrA@TWin@@UEAA_JH@Z
	DQ	FLAT:?GetWindowWord@TWin@@UEAAGH@Z
	DQ	FLAT:?SetTimer@TWin@@UEAA_K_KIP6AXPEAUHWND__@@I0K@Z@Z
	DQ	FLAT:?KillTimer@TWin@@UEAAH_K@Z
	DQ	FLAT:?GetParent@TWin@@UEAAPEAV1@XZ
	DQ	FLAT:?SetParent@TWin@@UEAAXPEAV1@@Z
	DQ	FLAT:?MoveWindow@TWin@@UEAAHHHHHH@Z
	DQ	FLAT:?FitMoveWindow@TWin@@UEAAHHH@Z
	DQ	FLAT:?Sleep@TWin@@UEAAHI@Z
	DQ	FLAT:?Idle@TWin@@UEAAHXZ
	DQ	FLAT:?Parent@TWin@@UEAAPEAV1@XZ
	DQ	FLAT:?MoveCenter@TWin@@UEAAHH@Z
	DQ	FLAT:?PreProcMsg@TSubClassCtl@@UEAAHPEAUtagMSG@@@Z
	DQ	FLAT:?WinProc@TWin@@UEAA_JI_K_J@Z
	DQ	FLAT:?DefWindowProcA@TSubClass@@UEAA_JI_K_J@Z
	DQ	FLAT:?SetAccel@TWin@@UEAAXPEAUHACCEL__@@@Z
	DQ	FLAT:?CreateTipWnd@TWin@@UEAAHPEB_WHH@Z
	DQ	FLAT:?SetTipTextW@TWin@@UEAAHPEB_WHH@Z
	DQ	FLAT:?CloseTipWnd@TWin@@UEAAHXZ
	DQ	FLAT:?AttachWnd@TSubClass@@UEAAHPEAUHWND__@@@Z
	DQ	FLAT:?DetachWnd@TSubClass@@UEAAHXZ
CONST	ENDS
;	COMDAT ??_R2TCtl@@8
rdata$r	SEGMENT
??_R2TCtl@@8 DD	imagerel ??_R1A@?0A@EA@TCtl@@8		; TCtl::`RTTI Base Class Array'
	DD	imagerel ??_R1A@?0A@EA@TWin@@8
	DD	imagerel ??_R1A@?0A@EA@?$THashObjT@I@@8
	ORG $+3
rdata$r	ENDS
;	COMDAT ??_C@_1CC@KPOKNCMJ@?$AAt?$AAo?$AAo?$AAl?$AAt?$AAi?$AAp?$AAs?$AA_?$AAc?$AAl?$AAa?$AAs?$AAs?$AA3?$AA2?$AA?$AA@
CONST	SEGMENT
??_C@_1CC@KPOKNCMJ@?$AAt?$AAo?$AAo?$AAl?$AAt?$AAi?$AAp?$AAs?$AA_?$AAc?$AAl?$AAa?$AAs?$AAs?$AA3?$AA2?$AA?$AA@ DB 't'
	DB	00H, 'o', 00H, 'o', 00H, 'l', 00H, 't', 00H, 'i', 00H, 'p', 00H
	DB	's', 00H, '_', 00H, 'c', 00H, 'l', 00H, 'a', 00H, 's', 00H, 's'
	DB	00H, '3', 00H, '2', 00H, 00H, 00H		; `string'
CONST	ENDS
;	COMDAT ??_C@_0DJ@EGMOJDB@?$EA?$CI?$CD?$CJCopyright?5?$CIC?$CJ?51996?92016?5H?4Sh@
CONST	SEGMENT
??_C@_0DJ@EGMOJDB@?$EA?$CI?$CD?$CJCopyright?5?$CIC?$CJ?51996?92016?5H?4Sh@ DB '@'
	DB	'(#)Copyright (C) 1996-2016 H.Shirouzu', 09H, 09H, 'twin.cpp', 09H
	DB	'Ver0.99', 00H				; `string'
PUBLIC	??1TCtl@@UEAA@XZ				; TCtl::~TCtl
PUBLIC	??_GTCtl@@UEAAPEAXI@Z				; TCtl::`scalar deleting destructor'
PUBLIC	?PreProcMsg@TSubClassCtl@@UEAAHPEAUtagMSG@@@Z	; TSubClassCtl::PreProcMsg
PUBLIC	??_GTSubClassCtl@@UEAAPEAXI@Z			; TSubClassCtl::`scalar deleting destructor'
PUBLIC	??_GTSubClass@@UEAAPEAXI@Z			; TSubClass::`scalar deleting destructor'
PUBLIC	?EvCommand@TWin@@UEAAHGG_J@Z			; TWin::EvCommand
PUBLIC	??1TWin@@UEAA@XZ				; TWin::~TWin
PUBLIC	??_GTWin@@UEAAPEAXI@Z				; TWin::`scalar deleting destructor'
PUBLIC	??0TWin@@QEAA@PEAV0@@Z				; TWin::TWin
PUBLIC	??AWstr@@QEAAAEA_WH@Z				; Wstr::operator[]
PUBLIC	?Init@Wstr@@QEAAXH@Z				; Wstr::Init
PUBLIC	??0Wstr@@QEAA@H@Z				; Wstr::Wstr
PUBLIC	?GenTWinID@TApp@@SAKXZ				; TApp::GenTWinID
PUBLIC	?hInst@TApp@@SAPEAUHINSTANCE__@@XZ		; TApp::hInst
PUBLIC	?GetApp@TApp@@SAPEAV1@XZ			; TApp::GetApp
PUBLIC	?DelWin@TApp@@QEAAXPEAVTWin@@@Z			; TApp::DelWin
PUBLIC	?AddWinByWnd@TApp@@QEAAXPEAVTWin@@PEAUHWND__@@@Z ; TApp::AddWinByWnd
PUBLIC	?AddWin@TApp@@QEAAXPEAVTWin@@@Z			; TApp::AddWin
PUBLIC	?GetDefaultClassW@TApp@@QEAAPEB_WXZ		; TApp::GetDefaultClassW
PUBLIC	?MakeHashId@TWinHashTbl@@QEAAIPEAUHWND__@@@Z	; TWinHashTbl::MakeHashId
PUBLIC	?CloseTipWnd@TWin@@UEAAHXZ			; TWin::CloseTipWnd
PUBLIC	?SetTipTextW@TWin@@UEAAHPEB_WHH@Z		; TWin::SetTipTextW
PUBLIC	?CreateTipWnd@TWin@@UEAAHPEB_WHH@Z		; TWin::CreateTipWnd
PUBLIC	?DefWindowProcA@TWin@@UEAA_JI_K_J@Z		; TWin::DefWindowProcA
PUBLIC	?WinProc@TWin@@UEAA_JI_K_J@Z			; TWin::WinProc
PUBLIC	?PreProcMsg@TWin@@UEAAHPEAUtagMSG@@@Z		; TWin::PreProcMsg
PUBLIC	?MoveCenter@TWin@@UEAAHH@Z			; TWin::MoveCenter
PUBLIC	?Idle@TWin@@UEAAHXZ				; TWin::Idle
PUBLIC	?Sleep@TWin@@UEAAHI@Z				; TWin::Sleep
PUBLIC	?FitMoveWindow@TWin@@UEAAHHH@Z			; TWin::FitMoveWindow
PUBLIC	?MoveWindow@TWin@@UEAAHHHHHH@Z			; TWin::MoveWindow
PUBLIC	?KillTimer@TWin@@UEAAH_K@Z			; TWin::KillTimer
PUBLIC	?SetTimer@TWin@@UEAA_K_KIP6AXPEAUHWND__@@I0K@Z@Z ; TWin::SetTimer
PUBLIC	?GetWindowWord@TWin@@UEAAGH@Z			; TWin::GetWindowWord
PUBLIC	?GetWindowLongPtrA@TWin@@UEAA_JH@Z		; TWin::GetWindowLongPtrA
PUBLIC	?SetWindowWord@TWin@@UEAAGHG@Z			; TWin::SetWindowWord
PUBLIC	?SetWindowLongPtrA@TWin@@UEAA_JH_J@Z		; TWin::SetWindowLongPtrA
PUBLIC	?SetFocus@TWin@@UEAAPEAUHWND__@@XZ		; TWin::SetFocus
PUBLIC	?InvalidateRect@TWin@@UEAAHPEBUtagRECT@@H@Z	; TWin::InvalidateRect
PUBLIC	?GetWindowTextLengthU8@TWin@@UEAAHXZ		; TWin::GetWindowTextLengthU8
PUBLIC	?GetWindowTextLengthW@TWin@@UEAAHXZ		; TWin::GetWindowTextLengthW
PUBLIC	?SetWindowTextU8@TWin@@UEAAHPEBD@Z		; TWin::SetWindowTextU8
PUBLIC	?SetWindowTextW@TWin@@UEAAHPEB_W@Z		; TWin::SetWindowTextW
PUBLIC	?GetWindowTextU8@TWin@@UEAAHPEADH@Z		; TWin::GetWindowTextU8
PUBLIC	?GetWindowTextW@TWin@@UEAAHPEA_WH@Z		; TWin::GetWindowTextW
PUBLIC	?SetWindowTextA@TWin@@UEAAHPEBD@Z		; TWin::SetWindowTextA
PUBLIC	?GetWindowTextA@TWin@@UEAAHPEADH@Z		; TWin::GetWindowTextA
PUBLIC	?SetActiveWindow@TWin@@UEAAPEAUHWND__@@XZ	; TWin::SetActiveWindow
PUBLIC	?SetWindowPos@TWin@@UEAAHPEAUHWND__@@HHHHI@Z	; TWin::SetWindowPos
PUBLIC	?GetClientRect@TWin@@UEAAHPEAUtagRECT@@@Z	; TWin::GetClientRect
PUBLIC	?GetWindowRect@TWin@@UEAAHPEAUtagRECT@@@Z	; TWin::GetWindowRect
PUBLIC	?SendDlgItemMessageW@TWin@@UEAA_JHI_K_J@Z	; TWin::SendDlgItemMessageW
PUBLIC	?SendDlgItemMessageA@TWin@@UEAA_JHI_K_J@Z	; TWin::SendDlgItemMessageA
PUBLIC	?SendMessageW@TWin@@UEAA_JI_K_J@Z		; TWin::SendMessageW
PUBLIC	?SendMessageA@TWin@@UEAA_JI_K_J@Z		; TWin::SendMessageA
PUBLIC	?PostMessageW@TWin@@UEAAHI_K_J@Z		; TWin::PostMessageW
PUBLIC	?PostMessageA@TWin@@UEAAHI_K_J@Z		; TWin::PostMessageA
PUBLIC	?ShowWindow@TWin@@UEAAHH@Z			; TWin::ShowWindow
PUBLIC	?SetForceForegroundWindow@TWin@@UEAAHXZ		; TWin::SetForceForegroundWindow
PUBLIC	?SetForegroundWindow@TWin@@UEAAHXZ		; TWin::SetForegroundWindow
PUBLIC	?BringWindowToTop@TWin@@UEAAHXZ			; TWin::BringWindowToTop
PUBLIC	?MessageBoxU8@TWin@@UEAAHPEBD0I@Z		; TWin::MessageBoxU8
PUBLIC	?MessageBoxW@TWin@@UEAAHPEB_W0I@Z		; TWin::MessageBoxW
PUBLIC	?MessageBoxA@TWin@@UEAAHPEBD0I@Z		; TWin::MessageBoxA
PUBLIC	?EnableWindow@TWin@@UEAAHH@Z			; TWin::EnableWindow
PUBLIC	?IsWindowVisible@TWin@@UEAAHXZ			; TWin::IsWindowVisible
PUBLIC	?IsDlgButtonChecked@TWin@@UEAAIH@Z		; TWin::IsDlgButtonChecked
PUBLIC	?CheckDlgButton@TWin@@UEAAHHI@Z			; TWin::CheckDlgButton
PUBLIC	?GetDlgItem@TWin@@UEAAPEAUHWND__@@H@Z		; TWin::GetDlgItem
PUBLIC	?SetDlgItemInt@TWin@@UEAAHHHH@Z			; TWin::SetDlgItemInt
PUBLIC	?GetDlgItemInt@TWin@@UEAAHHPEAHH@Z		; TWin::GetDlgItemInt
PUBLIC	?SetDlgItemTextU8@TWin@@UEAAHHPEBD@Z		; TWin::SetDlgItemTextU8
PUBLIC	?SetDlgItemTextW@TWin@@UEAAHHPEB_W@Z		; TWin::SetDlgItemTextW
PUBLIC	?SetDlgItemTextA@TWin@@UEAAHHPEBD@Z		; TWin::SetDlgItemTextA
PUBLIC	?GetDlgItemTextU8@TWin@@UEAAIHPEADH@Z		; TWin::GetDlgItemTextU8
PUBLIC	?GetDlgItemTextW@TWin@@UEAAIHPEA_WH@Z		; TWin::GetDlgItemTextW
PUBLIC	?GetDlgItemTextA@TWin@@UEAAIHPEADH@Z		; TWin::GetDlgItemTextA
PUBLIC	?EventSystem@TWin@@UEAAHI_K_J@Z			; TWin::EventSystem
PUBLIC	?EventUser@TWin@@UEAAHI_K_J@Z			; TWin::EventUser
PUBLIC	?EventApp@TWin@@UEAAHI_K_J@Z			; TWin::EventApp
PUBLIC	?EventPrint@TWin@@UEAAHIPEAUHDC__@@K@Z		; TWin::EventPrint
PUBLIC	?EventScroll@TWin@@UEAAHIHHPEAUHWND__@@@Z	; TWin::EventScroll
PUBLIC	?EventScrollWrapper@TWin@@UEAAHIHHPEAUHWND__@@@Z ; TWin::EventScrollWrapper
PUBLIC	?EventFocus@TWin@@UEAAHIPEAUHWND__@@@Z		; TWin::EventFocus
PUBLIC	?EventCtlColor@TWin@@UEAAHIPEAUHDC__@@PEAUHWND__@@PEAPEAUHBRUSH__@@@Z ; TWin::EventCtlColor
PUBLIC	?EventInitMenu@TWin@@UEAAHIPEAUHMENU__@@IH@Z	; TWin::EventInitMenu
PUBLIC	?EventMenuLoop@TWin@@UEAAHIH@Z			; TWin::EventMenuLoop
PUBLIC	?EventKey@TWin@@UEAAHIHJ@Z			; TWin::EventKey
PUBLIC	?EventButton@TWin@@UEAAHIHUtagPOINTS@@@Z	; TWin::EventButton
PUBLIC	?EvMouseWheel@TWin@@UEAAHGFFF@Z			; TWin::EvMouseWheel
PUBLIC	?EvWindowPosChanging@TWin@@UEAAHPEAUtagWINDOWPOS@@@Z ; TWin::EvWindowPosChanging
PUBLIC	?EvWindowPosChanged@TWin@@UEAAHPEAUtagWINDOWPOS@@@Z ; TWin::EvWindowPosChanged
PUBLIC	?EvChar@TWin@@UEAAH_W_J@Z			; TWin::EvChar
PUBLIC	?EvActivate@TWin@@UEAAHHKPEAUHWND__@@@Z		; TWin::EvActivate
PUBLIC	?EvActivateApp@TWin@@UEAAHHK@Z			; TWin::EvActivateApp
PUBLIC	?EvHotKey@TWin@@UEAAHH@Z			; TWin::EvHotKey
PUBLIC	?EvContextMenu@TWin@@UEAAHPEAUHWND__@@UtagPOINTS@@@Z ; TWin::EvContextMenu
PUBLIC	?EvNotify@TWin@@UEAAHIPEAUtagNMHDR@@@Z		; TWin::EvNotify
PUBLIC	?EvDropFiles@TWin@@UEAAHPEAUHDROP__@@@Z		; TWin::EvDropFiles
PUBLIC	?EvMenuSelect@TWin@@UEAAHIIPEAUHMENU__@@@Z	; TWin::EvMenuSelect
PUBLIC	?EvDrawItem@TWin@@UEAAHIPEAUtagDRAWITEMSTRUCT@@@Z ; TWin::EvDrawItem
PUBLIC	?EvMeasureItem@TWin@@UEAAHIPEAUtagMEASUREITEMSTRUCT@@@Z ; TWin::EvMeasureItem
PUBLIC	?EvNcHitTest@TWin@@UEAAHUtagPOINTS@@PEA_J@Z	; TWin::EvNcHitTest
PUBLIC	?EvMouseMove@TWin@@UEAAHIUtagPOINTS@@@Z		; TWin::EvMouseMove
PUBLIC	?EvSetCursor@TWin@@UEAAHPEAUHWND__@@GG@Z	; TWin::EvSetCursor
PUBLIC	?EvTimer@TWin@@UEAAH_KP6AXPEAUHWND__@@I0K@Z@Z	; TWin::EvTimer
PUBLIC	?EvGetMinMaxInfo@TWin@@UEAAHPEAUtagMINMAXINFO@@@Z ; TWin::EvGetMinMaxInfo
PUBLIC	?EvShowWindow@TWin@@UEAAHHH@Z			; TWin::EvShowWindow
PUBLIC	?EvMove@TWin@@UEAAHHH@Z				; TWin::EvMove
PUBLIC	?EvSize@TWin@@UEAAHIGG@Z			; TWin::EvSize
PUBLIC	?EvNcPaint@TWin@@UEAAHPEAUHRGN__@@@Z		; TWin::EvNcPaint
PUBLIC	?EvPaint@TWin@@UEAAHXZ				; TWin::EvPaint
PUBLIC	?EvQueryOpen@TWin@@UEAAHXZ			; TWin::EvQueryOpen
PUBLIC	?EvPowerBroadcast@TWin@@UEAAH_K_J@Z		; TWin::EvPowerBroadcast
PUBLIC	?EvEndSession@TWin@@UEAAHHH@Z			; TWin::EvEndSession
PUBLIC	?EvQueryEndSession@TWin@@UEAAHHH@Z		; TWin::EvQueryEndSession
PUBLIC	?EvNcDestroy@TWin@@UEAAHXZ			; TWin::EvNcDestroy
PUBLIC	?EvDestroy@TWin@@UEAAHXZ			; TWin::EvDestroy
PUBLIC	?EvClose@TWin@@UEAAHXZ				; TWin::EvClose
PUBLIC	?EvCreate@TWin@@UEAAH_J@Z			; TWin::EvCreate
PUBLIC	?EvSysCommand@TWin@@UEAAH_KUtagPOINTS@@@Z	; TWin::EvSysCommand
PUBLIC	?Destroy@TWin@@UEAAXXZ				; TWin::Destroy
PUBLIC	?CreateW@TWin@@UEAAHPEB_W0KKPEAUHMENU__@@@Z	; TWin::CreateW
PUBLIC	?CreateU8@TWin@@UEAAHPEBD0KKPEAUHMENU__@@@Z	; TWin::CreateU8
PUBLIC	?Create@TWin@@UEAAHPEBD0KKPEAUHMENU__@@@Z	; TWin::Create
PUBLIC	?Show@TWin@@UEAAXH@Z				; TWin::Show
PUBLIC	??0TSubClassCtl@@QEAA@PEAVTWin@@@Z		; TSubClassCtl::TSubClassCtl
PUBLIC	?DefWindowProcA@TSubClass@@UEAA_JI_K_J@Z	; TSubClass::DefWindowProcA
PUBLIC	?DetachWnd@TSubClass@@UEAAHXZ			; TSubClass::DetachWnd
PUBLIC	?AttachWnd@TSubClass@@UEAAHPEAUHWND__@@@Z	; TSubClass::AttachWnd
PUBLIC	??1TSubClass@@UEAA@XZ				; TSubClass::~TSubClass
PUBLIC	??0TSubClass@@QEAA@PEAVTWin@@@Z			; TSubClass::TSubClass
EXTRN	??_ETWin@@UEAAPEAXI@Z:PROC			; TWin::`vector deleting destructor'
EXTRN	??_ETSubClassCtl@@UEAAPEAXI@Z:PROC		; TSubClassCtl::`vector deleting destructor'
EXTRN	??_ETCtl@@UEAAPEAXI@Z:PROC			; TCtl::`vector deleting destructor'
EXTRN	??_ETSubClass@@UEAAPEAXI@Z:PROC			; TSubClass::`vector deleting destructor'
;	COMDAT pdata
pdata	SEGMENT
$pdata$??_GTCtl@@UEAAPEAXI@Z DD imagerel $LN9
	DD	imagerel $LN9+52
	DD	imagerel $unwind$??_GTCtl@@UEAAPEAXI@Z
pdata	ENDS
;	COMDAT pdata
pdata	SEGMENT
$pdata$??_GTSubClassCtl@@UEAAPEAXI@Z DD imagerel $LN9
	DD	imagerel $LN9+52
	DD	imagerel $unwind$??_GTSubClassCtl@@UEAAPEAXI@Z
pdata	ENDS
;	COMDAT pdata
pdata	SEGMENT
$pdata$??_GTSubClass@@UEAAPEAXI@Z DD imagerel $LN6
	DD	imagerel $LN6+52
	DD	imagerel $unwind$??_GTSubClass@@UEAAPEAXI@Z
pdata	ENDS
;	COMDAT pdata
pdata	SEGMENT
$pdata$??1TWin@@UEAA@XZ DD imagerel $LN10
	DD	imagerel $LN10+94
	DD	imagerel $unwind$??1TWin@@UEAA@XZ
pdata	ENDS
;	COMDAT pdata
pdata	SEGMENT
$pdata$??_GTWin@@UEAAPEAXI@Z DD imagerel $LN6
	DD	imagerel $LN6+52
	DD	imagerel $unwind$??_GTWin@@UEAAPEAXI@Z
pdata	ENDS
;	COMDAT pdata
pdata	SEGMENT
$pdata$?Init@Wstr@@QEAAXH@Z DD imagerel $LN10
	DD	imagerel $LN10+110
	DD	imagerel $unwind$?Init@Wstr@@QEAAXH@Z
pdata	ENDS
;	COMDAT pdata
pdata	SEGMENT
$pdata$??0Wstr@@QEAA@H@Z DD imagerel $LN14
	DD	imagerel $LN14+110
	DD	imagerel $unwind$??0Wstr@@QEAA@H@Z
pdata	ENDS
;	COMDAT pdata
pdata	SEGMENT
$pdata$?CloseTipWnd@TWin@@UEAAHXZ DD imagerel $LN5
	DD	imagerel $LN5+51
	DD	imagerel $unwind$?CloseTipWnd@TWin@@UEAAHXZ
pdata	ENDS
;	COMDAT pdata
pdata	SEGMENT
$pdata$?SetTipTextW@TWin@@UEAAHPEB_WHH@Z DD imagerel $LN9
	DD	imagerel $LN9+263
	DD	imagerel $unwind$?SetTipTextW@TWin@@UEAAHPEB_WHH@Z
pdata	ENDS
;	COMDAT pdata
pdata	SEGMENT
$pdata$?CreateTipWnd@TWin@@UEAAHPEB_WHH@Z DD imagerel $LN8
	DD	imagerel $LN8+213
	DD	imagerel $unwind$?CreateTipWnd@TWin@@UEAAHPEB_WHH@Z
pdata	ENDS
;	COMDAT pdata
pdata	SEGMENT
$pdata$?WinProc@TWin@@UEAA_JI_K_J@Z DD imagerel $LN73
	DD	imagerel $LN73+2043
	DD	imagerel $unwind$?WinProc@TWin@@UEAA_JI_K_J@Z
pdata	ENDS
;	COMDAT pdata
pdata	SEGMENT
$pdata$?MoveCenter@TWin@@UEAAHH@Z DD imagerel $LN7
	DD	imagerel $LN7+317
	DD	imagerel $unwind$?MoveCenter@TWin@@UEAAHH@Z
pdata	ENDS
;	COMDAT pdata
pdata	SEGMENT
$pdata$?Idle@TWin@@UEAAHXZ DD imagerel $LN9
	DD	imagerel $LN9+97
	DD	imagerel $unwind$?Idle@TWin@@UEAAHXZ
pdata	ENDS
;	COMDAT pdata
pdata	SEGMENT
$pdata$?Sleep@TWin@@UEAAHI@Z DD imagerel $LN20
	DD	imagerel $LN20+235
	DD	imagerel $unwind$?Sleep@TWin@@UEAAHI@Z
pdata	ENDS
;	COMDAT pdata
pdata	SEGMENT
$pdata$?FitMoveWindow@TWin@@UEAAHHH@Z DD imagerel $LN9
	DD	imagerel $LN9+56
	DD	imagerel $unwind$?FitMoveWindow@TWin@@UEAAHHH@Z
pdata	ENDS
;	COMDAT pdata
pdata	SEGMENT
$pdata$0$?FitMoveWindow@TWin@@UEAAHHH@Z DD imagerel $LN9+56
	DD	imagerel $LN9+64
	DD	imagerel $chain$0$?FitMoveWindow@TWin@@UEAAHHH@Z
pdata	ENDS
;	COMDAT pdata
pdata	SEGMENT
$pdata$4$?FitMoveWindow@TWin@@UEAAHHH@Z DD imagerel $LN9+64
	DD	imagerel $LN9+210
	DD	imagerel $chain$4$?FitMoveWindow@TWin@@UEAAHHH@Z
pdata	ENDS
;	COMDAT pdata
pdata	SEGMENT
$pdata$5$?FitMoveWindow@TWin@@UEAAHHH@Z DD imagerel $LN9+210
	DD	imagerel $LN9+272
	DD	imagerel $chain$5$?FitMoveWindow@TWin@@UEAAHHH@Z
pdata	ENDS
;	COMDAT pdata
pdata	SEGMENT
$pdata$6$?FitMoveWindow@TWin@@UEAAHHH@Z DD imagerel $LN9+272
	DD	imagerel $LN9+296
	DD	imagerel $chain$6$?FitMoveWindow@TWin@@UEAAHHH@Z
pdata	ENDS
;	COMDAT pdata
pdata	SEGMENT
$pdata$?GetWindowTextLengthU8@TWin@@UEAAHXZ DD imagerel $LN37
	DD	imagerel $LN37+10
	DD	imagerel $unwind$?GetWindowTextLengthU8@TWin@@UEAAHXZ
pdata	ENDS
;	COMDAT pdata
pdata	SEGMENT
$pdata$1$?GetWindowTextLengthU8@TWin@@UEAAHXZ DD imagerel $LN37+10
	DD	imagerel $LN37+114
	DD	imagerel $chain$1$?GetWindowTextLengthU8@TWin@@UEAAHXZ
pdata	ENDS
;	COMDAT pdata
pdata	SEGMENT
$pdata$2$?GetWindowTextLengthU8@TWin@@UEAAHXZ DD imagerel $LN37+114
	DD	imagerel $LN37+166
	DD	imagerel $chain$2$?GetWindowTextLengthU8@TWin@@UEAAHXZ
pdata	ENDS
;	COMDAT pdata
pdata	SEGMENT
$pdata$?SetWindowTextU8@TWin@@UEAAHPEBD@Z DD imagerel $LN29
	DD	imagerel $LN29+86
	DD	imagerel $unwind$?SetWindowTextU8@TWin@@UEAAHPEBD@Z
pdata	ENDS
;	COMDAT pdata
pdata	SEGMENT
$pdata$?GetWindowTextU8@TWin@@UEAAHPEADH@Z DD imagerel $LN38
	DD	imagerel $LN38+154
	DD	imagerel $unwind$?GetWindowTextU8@TWin@@UEAAHPEADH@Z
pdata	ENDS
;	COMDAT pdata
pdata	SEGMENT
$pdata$?SetForceForegroundWindow@TWin@@UEAAHXZ DD imagerel $LN8
	DD	imagerel $LN8+219
	DD	imagerel $unwind$?SetForceForegroundWindow@TWin@@UEAAHXZ
pdata	ENDS
;	COMDAT pdata
pdata	SEGMENT
$pdata$?MessageBoxU8@TWin@@UEAAHPEBD0I@Z DD imagerel $LN52
	DD	imagerel $LN52+218
	DD	imagerel $unwind$?MessageBoxU8@TWin@@UEAAHPEBD0I@Z
pdata	ENDS
;	COMDAT pdata
pdata	SEGMENT
$pdata$?MessageBoxW@TWin@@UEAAHPEB_W0I@Z DD imagerel $LN4
	DD	imagerel $LN4+31
	DD	imagerel $unwind$?MessageBoxW@TWin@@UEAAHPEB_W0I@Z
pdata	ENDS
;	COMDAT pdata
pdata	SEGMENT
$pdata$?MessageBoxA@TWin@@UEAAHPEBD0I@Z DD imagerel $LN4
	DD	imagerel $LN4+31
	DD	imagerel $unwind$?MessageBoxA@TWin@@UEAAHPEBD0I@Z
pdata	ENDS
;	COMDAT pdata
pdata	SEGMENT
$pdata$?SetDlgItemTextU8@TWin@@UEAAHHPEBD@Z DD imagerel $LN29
	DD	imagerel $LN29+100
	DD	imagerel $unwind$?SetDlgItemTextU8@TWin@@UEAAHHPEBD@Z
pdata	ENDS
;	COMDAT pdata
pdata	SEGMENT
$pdata$?GetDlgItemTextU8@TWin@@UEAAIHPEADH@Z DD imagerel $LN28
	DD	imagerel $LN28+193
	DD	imagerel $unwind$?GetDlgItemTextU8@TWin@@UEAAIHPEADH@Z
pdata	ENDS
;	COMDAT pdata
pdata	SEGMENT
$pdata$?EventScrollWrapper@TWin@@UEAAHIHHPEAUHWND__@@@Z DD imagerel $LN9
	DD	imagerel $LN9+174
	DD	imagerel $unwind$?EventScrollWrapper@TWin@@UEAAHIHHPEAUHWND__@@@Z
pdata	ENDS
;	COMDAT pdata
pdata	SEGMENT
$pdata$?Destroy@TWin@@UEAAXXZ DD imagerel $LN6
	DD	imagerel $LN6+52
	DD	imagerel $unwind$?Destroy@TWin@@UEAAXXZ
pdata	ENDS
;	COMDAT pdata
pdata	SEGMENT
$pdata$?CreateW@TWin@@UEAAHPEB_W0KKPEAUHMENU__@@@Z DD imagerel $LN22
	DD	imagerel $LN22+229
	DD	imagerel $unwind$?CreateW@TWin@@UEAAHPEB_W0KKPEAUHMENU__@@@Z
pdata	ENDS
;	COMDAT pdata
pdata	SEGMENT
$pdata$?CreateU8@TWin@@UEAAHPEBD0KKPEAUHMENU__@@@Z DD imagerel $LN52
	DD	imagerel $LN52+238
	DD	imagerel $unwind$?CreateU8@TWin@@UEAAHPEBD0KKPEAUHMENU__@@@Z
pdata	ENDS
;	COMDAT pdata
pdata	SEGMENT
$pdata$?Create@TWin@@UEAAHPEBD0KKPEAUHMENU__@@@Z DD imagerel $LN52
	DD	imagerel $LN52+238
	DD	imagerel $unwind$?Create@TWin@@UEAAHPEBD0KKPEAUHMENU__@@@Z
pdata	ENDS
;	COMDAT pdata
pdata	SEGMENT
$pdata$?Show@TWin@@UEAAXH@Z DD imagerel $LN5
	DD	imagerel $LN5+46
	DD	imagerel $unwind$?Show@TWin@@UEAAXH@Z
pdata	ENDS
;	COMDAT pdata
pdata	SEGMENT
$pdata$??0TSubClassCtl@@QEAA@PEAVTWin@@@Z DD imagerel $LN4
	DD	imagerel $LN4+30
	DD	imagerel $unwind$??0TSubClassCtl@@QEAA@PEAVTWin@@@Z
pdata	ENDS
;	COMDAT pdata
pdata	SEGMENT
$pdata$?DefWindowProcA@TSubClass@@UEAA_JI_K_J@Z DD imagerel $LN4
	DD	imagerel $LN4+34
	DD	imagerel $unwind$?DefWindowProcA@TSubClass@@UEAA_JI_K_J@Z
pdata	ENDS
;	COMDAT pdata
pdata	SEGMENT
$pdata$?DetachWnd@TSubClass@@UEAAHXZ DD imagerel $LN6
	DD	imagerel $LN6+65
	DD	imagerel $unwind$?DetachWnd@TSubClass@@UEAAHXZ
pdata	ENDS
;	COMDAT pdata
pdata	SEGMENT
$pdata$?AttachWnd@TSubClass@@UEAAHPEAUHWND__@@@Z DD imagerel $LN10
	DD	imagerel $LN10+93
	DD	imagerel $unwind$?AttachWnd@TSubClass@@UEAAHPEAUHWND__@@@Z
pdata	ENDS
;	COMDAT pdata
pdata	SEGMENT
$pdata$??1TSubClass@@UEAA@XZ DD imagerel $LN5
	DD	imagerel $LN5+51
	DD	imagerel $unwind$??1TSubClass@@UEAA@XZ
pdata	ENDS
;	COMDAT pdata
pdata	SEGMENT
$pdata$??0TSubClass@@QEAA@PEAVTWin@@@Z DD imagerel $LN4
	DD	imagerel $LN4+30
	DD	imagerel $unwind$??0TSubClass@@QEAA@PEAVTWin@@@Z
;	COMDAT xdata
xdata	SEGMENT
$unwind$??0TSubClass@@QEAA@PEAVTWin@@@Z DD 010401H
	DD	04204H
xdata	ENDS
;	COMDAT xdata
xdata	SEGMENT
$unwind$??1TSubClass@@UEAA@XZ DD 020601H
	DD	030023206H
xdata	ENDS
;	COMDAT xdata
xdata	SEGMENT
$unwind$?AttachWnd@TSubClass@@UEAAHPEAUHWND__@@@Z DD 040a01H
	DD	06340aH
	DD	07006320aH
xdata	ENDS
;	COMDAT xdata
xdata	SEGMENT
$unwind$?DetachWnd@TSubClass@@UEAAHXZ DD 020601H
	DD	030023206H
xdata	ENDS
;	COMDAT xdata
xdata	SEGMENT
$unwind$?DefWindowProcA@TSubClass@@UEAA_JI_K_J@Z DD 010401H
	DD	06204H
xdata	ENDS
;	COMDAT xdata
xdata	SEGMENT
$unwind$??0TSubClassCtl@@QEAA@PEAVTWin@@@Z DD 010401H
	DD	04204H
xdata	ENDS
;	COMDAT xdata
xdata	SEGMENT
$unwind$?Show@TWin@@UEAAXH@Z DD 020601H
	DD	030023206H
xdata	ENDS
;	COMDAT xdata
xdata	SEGMENT
$ip2state$?Create@TWin@@UEAAHPEBD0KKPEAUHMENU__@@@Z DD imagerel ?Create@TWin@@UEAAHPEBD0KKPEAUHMENU__@@@Z
	DD	0ffffffffH
	DD	imagerel ?Create@TWin@@UEAAHPEBD0KKPEAUHMENU__@@@Z+83
	DD	00H
	DD	imagerel ?Create@TWin@@UEAAHPEBD0KKPEAUHMENU__@@@Z+119
	DD	01H
	DD	imagerel ?Create@TWin@@UEAAHPEBD0KKPEAUHMENU__@@@Z+182
	DD	00H
	DD	imagerel ?Create@TWin@@UEAAHPEBD0KKPEAUHMENU__@@@Z+196
	DD	0ffffffffH
xdata	ENDS
;	COMDAT xdata
xdata	SEGMENT
$stateUnwindMap$?Create@TWin@@UEAAHPEBD0KKPEAUHMENU__@@@Z DD 0ffffffffH
	DD	imagerel ?dtor$0@?0??Create@TWin@@UEAAHPEBD0KKPEAUHMENU__@@@Z@4HA
	DD	00H
	DD	imagerel ?dtor$1@?0??Create@TWin@@UEAAHPEBD0KKPEAUHMENU__@@@Z@4HA
xdata	ENDS
;	COMDAT CONST
CONST	SEGMENT
$cppxdata$?Create@TWin@@UEAAHPEBD0KKPEAUHMENU__@@@Z DD 019930522H
	DD	02H
	DD	imagerel $stateUnwindMap$?Create@TWin@@UEAAHPEBD0KKPEAUHMENU__@@@Z
	DD	00H
	DD	00H
	DD	05H
	DD	imagerel $ip2state$?Create@TWin@@UEAAHPEBD0KKPEAUHMENU__@@@Z
	DD	030H
	DD	00H
	DD	01H
CONST	ENDS
;	COMDAT xdata
xdata	SEGMENT
$unwind$?Create@TWin@@UEAAHPEBD0KKPEAUHMENU__@@@Z DD 0a2111H
	DD	0117421H
	DD	010641dH
	DD	0f5419H
	DD	0e3415H
	DD	0e005b209H
	DD	imagerel __CxxFrameHandler3
	DD	imagerel $cppxdata$?Create@TWin@@UEAAHPEBD0KKPEAUHMENU__@@@Z
xdata	ENDS
;	COMDAT xdata
xdata	SEGMENT
$ip2state$?CreateU8@TWin@@UEAAHPEBD0KKPEAUHMENU__@@@Z DD imagerel ?CreateU8@TWin@@UEAAHPEBD0KKPEAUHMENU__@@@Z
	DD	0ffffffffH
	DD	imagerel ?CreateU8@TWin@@UEAAHPEBD0KKPEAUHMENU__@@@Z+83
	DD	00H
	DD	imagerel ?CreateU8@TWin@@UEAAHPEBD0KKPEAUHMENU__@@@Z+119
	DD	01H
	DD	imagerel ?CreateU8@TWin@@UEAAHPEBD0KKPEAUHMENU__@@@Z+182
	DD	00H
	DD	imagerel ?CreateU8@TWin@@UEAAHPEBD0KKPEAUHMENU__@@@Z+196
	DD	0ffffffffH
xdata	ENDS
;	COMDAT xdata
xdata	SEGMENT
$stateUnwindMap$?CreateU8@TWin@@UEAAHPEBD0KKPEAUHMENU__@@@Z DD 0ffffffffH
	DD	imagerel ?dtor$0@?0??CreateU8@TWin@@UEAAHPEBD0KKPEAUHMENU__@@@Z@4HA
	DD	00H
	DD	imagerel ?dtor$1@?0??CreateU8@TWin@@UEAAHPEBD0KKPEAUHMENU__@@@Z@4HA
xdata	ENDS
;	COMDAT CONST
CONST	SEGMENT
$cppxdata$?CreateU8@TWin@@UEAAHPEBD0KKPEAUHMENU__@@@Z DD 019930522H
	DD	02H
	DD	imagerel $stateUnwindMap$?CreateU8@TWin@@UEAAHPEBD0KKPEAUHMENU__@@@Z
	DD	00H
	DD	00H
	DD	05H
	DD	imagerel $ip2state$?CreateU8@TWin@@UEAAHPEBD0KKPEAUHMENU__@@@Z
	DD	030H
	DD	00H
	DD	01H
CONST	ENDS
;	COMDAT xdata
xdata	SEGMENT
$unwind$?CreateU8@TWin@@UEAAHPEBD0KKPEAUHMENU__@@@Z DD 0a2111H
	DD	0117421H
	DD	010641dH
	DD	0f5419H
	DD	0e3415H
	DD	0e005b209H
	DD	imagerel __CxxFrameHandler3
	DD	imagerel $cppxdata$?CreateU8@TWin@@UEAAHPEBD0KKPEAUHMENU__@@@Z
xdata	ENDS
;	COMDAT xdata
xdata	SEGMENT
$unwind$?CreateW@TWin@@UEAAHPEB_W0KKPEAUHMENU__@@@Z DD 060f01H
	DD	0f640fH
	DD	0e340fH
	DD	0700bb20fH
xdata	ENDS
;	COMDAT xdata
xdata	SEGMENT
$unwind$?Destroy@TWin@@UEAAXXZ DD 020601H
	DD	030023206H
xdata	ENDS
;	COMDAT xdata
xdata	SEGMENT
$unwind$?EventScrollWrapper@TWin@@UEAAHIHHPEAUHWND__@@@Z DD 061a19H
	DD	0e007b20bH
	DD	060047005H
	DD	030025003H
	DD	imagerel __GSHandlerCheck
	DD	050H
xdata	ENDS
;	COMDAT xdata
xdata	SEGMENT
$ip2state$?GetDlgItemTextU8@TWin@@UEAAIHPEADH@Z DD imagerel ?GetDlgItemTextU8@TWin@@UEAAIHPEADH@Z
	DD	0ffffffffH
	DD	imagerel ?GetDlgItemTextU8@TWin@@UEAAIHPEADH@Z+98
	DD	00H
	DD	imagerel ?GetDlgItemTextU8@TWin@@UEAAIHPEADH@Z+153
	DD	0ffffffffH
xdata	ENDS
;	COMDAT xdata
xdata	SEGMENT
$stateUnwindMap$?GetDlgItemTextU8@TWin@@UEAAIHPEADH@Z DD 0ffffffffH
	DD	imagerel ?dtor$0@?0??GetDlgItemTextU8@TWin@@UEAAIHPEADH@Z@4HA
xdata	ENDS
;	COMDAT CONST
CONST	SEGMENT
$cppxdata$?GetDlgItemTextU8@TWin@@UEAAIHPEADH@Z DD 019930522H
	DD	01H
	DD	imagerel $stateUnwindMap$?GetDlgItemTextU8@TWin@@UEAAIHPEADH@Z
	DD	00H
	DD	00H
	DD	03H
	DD	imagerel $ip2state$?GetDlgItemTextU8@TWin@@UEAAIHPEADH@Z
	DD	020H
	DD	00H
	DD	01H
CONST	ENDS
;	COMDAT xdata
xdata	SEGMENT
$unwind$?GetDlgItemTextU8@TWin@@UEAAIHPEADH@Z DD 0a2211H
	DD	0e6422H
	DD	0d541dH
	DD	0c3418H
	DD	0f006720aH
	DD	07002e004H
	DD	imagerel __CxxFrameHandler3
	DD	imagerel $cppxdata$?GetDlgItemTextU8@TWin@@UEAAIHPEADH@Z
xdata	ENDS
;	COMDAT xdata
xdata	SEGMENT
$unwind$?SetDlgItemTextU8@TWin@@UEAAHHPEBD@Z DD 060f01H
	DD	07640fH
	DD	06340fH
	DD	0700b320fH
xdata	ENDS
;	COMDAT xdata
xdata	SEGMENT
$unwind$?MessageBoxA@TWin@@UEAAHPEBD0I@Z DD 020601H
	DD	030023206H
xdata	ENDS
;	COMDAT xdata
xdata	SEGMENT
$unwind$?MessageBoxW@TWin@@UEAAHPEB_W0I@Z DD 020601H
	DD	030023206H
xdata	ENDS
;	COMDAT xdata
xdata	SEGMENT
$ip2state$?MessageBoxU8@TWin@@UEAAHPEBD0I@Z DD imagerel ?MessageBoxU8@TWin@@UEAAHPEBD0I@Z
	DD	0ffffffffH
	DD	imagerel ?MessageBoxU8@TWin@@UEAAHPEBD0I@Z+85
	DD	00H
	DD	imagerel ?MessageBoxU8@TWin@@UEAAHPEBD0I@Z+121
	DD	01H
	DD	imagerel ?MessageBoxU8@TWin@@UEAAHPEBD0I@Z+162
	DD	00H
	DD	imagerel ?MessageBoxU8@TWin@@UEAAHPEBD0I@Z+176
	DD	0ffffffffH
xdata	ENDS
;	COMDAT xdata
xdata	SEGMENT
$stateUnwindMap$?MessageBoxU8@TWin@@UEAAHPEBD0I@Z DD 0ffffffffH
	DD	imagerel ?dtor$0@?0??MessageBoxU8@TWin@@UEAAHPEBD0I@Z@4HA
	DD	00H
	DD	imagerel ?dtor$1@?0??MessageBoxU8@TWin@@UEAAHPEBD0I@Z@4HA
xdata	ENDS
;	COMDAT CONST
CONST	SEGMENT
$cppxdata$?MessageBoxU8@TWin@@UEAAHPEBD0I@Z DD 019930522H
	DD	02H
	DD	imagerel $stateUnwindMap$?MessageBoxU8@TWin@@UEAAHPEBD0I@Z
	DD	00H
	DD	00H
	DD	05H
	DD	imagerel $ip2state$?MessageBoxU8@TWin@@UEAAHPEBD0I@Z
	DD	020H
	DD	00H
	DD	01H
CONST	ENDS
;	COMDAT xdata
xdata	SEGMENT
$unwind$?MessageBoxU8@TWin@@UEAAHPEBD0I@Z DD 0a2311H
	DD	0f7423H
	DD	0e641eH
	DD	0d5419H
	DD	0c3414H
	DD	0e0029206H
	DD	imagerel __CxxFrameHandler3
	DD	imagerel $cppxdata$?MessageBoxU8@TWin@@UEAAHPEBD0I@Z
xdata	ENDS
;	COMDAT xdata
xdata	SEGMENT
$unwind$?SetForceForegroundWindow@TWin@@UEAAHXZ DD 062a01H
	DD	08742aH
	DD	073425H
	DD	060023206H
xdata	ENDS
;	COMDAT xdata
xdata	SEGMENT
$unwind$?GetWindowTextU8@TWin@@UEAAHPEADH@Z DD 0a1a01H
	DD	09741aH
	DD	08641aH
	DD	07541aH
	DD	06341aH
	DD	0e016321aH
xdata	ENDS
;	COMDAT xdata
xdata	SEGMENT
$unwind$?SetWindowTextU8@TWin@@UEAAHPEBD@Z DD 040a01H
	DD	06340aH
	DD	07006320aH
xdata	ENDS
;	COMDAT xdata
xdata	SEGMENT
$chain$2$?GetWindowTextLengthU8@TWin@@UEAAHXZ DD 021H
	DD	imagerel $LN37
	DD	imagerel $LN37+10
	DD	imagerel $unwind$?GetWindowTextLengthU8@TWin@@UEAAHXZ
xdata	ENDS
;	COMDAT xdata
xdata	SEGMENT
$chain$1$?GetWindowTextLengthU8@TWin@@UEAAHXZ DD 041121H
	DD	076411H
	DD	065405H
	DD	imagerel $LN37
	DD	imagerel $LN37+10
	DD	imagerel $unwind$?GetWindowTextLengthU8@TWin@@UEAAHXZ
xdata	ENDS
;	COMDAT xdata
xdata	SEGMENT
$unwind$?GetWindowTextLengthU8@TWin@@UEAAHXZ DD 040a01H
	DD	08340aH
	DD	07006320aH
xdata	ENDS
;	COMDAT xdata
xdata	SEGMENT
$chain$6$?FitMoveWindow@TWin@@UEAAHHH@Z DD 021H
	DD	imagerel $LN9
	DD	imagerel $LN9+56
	DD	imagerel $unwind$?FitMoveWindow@TWin@@UEAAHHH@Z
xdata	ENDS
;	COMDAT xdata
xdata	SEGMENT
$chain$5$?FitMoveWindow@TWin@@UEAAHHH@Z DD 020021H
	DD	0ed400H
	DD	imagerel $LN9+56
	DD	imagerel $LN9+64
	DD	imagerel $chain$0$?FitMoveWindow@TWin@@UEAAHHH@Z
xdata	ENDS
;	COMDAT xdata
xdata	SEGMENT
$chain$4$?FitMoveWindow@TWin@@UEAAHHH@Z DD 081421H
	DD	0cf414H
	DD	0de40fH
	DD	0ed40aH
	DD	0fc405H
	DD	imagerel $LN9+56
	DD	imagerel $LN9+64
	DD	imagerel $chain$0$?FitMoveWindow@TWin@@UEAAHHH@Z
xdata	ENDS
;	COMDAT xdata
xdata	SEGMENT
$chain$0$?FitMoveWindow@TWin@@UEAAHHH@Z DD 020821H
	DD	0175408H
	DD	imagerel $LN9
	DD	imagerel $LN9+56
	DD	imagerel $unwind$?FitMoveWindow@TWin@@UEAAHHH@Z
xdata	ENDS
;	COMDAT xdata
xdata	SEGMENT
$unwind$?FitMoveWindow@TWin@@UEAAHHH@Z DD 041a19H
	DD	07004f20bH
	DD	030026003H
	DD	imagerel __GSHandlerCheck
	DD	050H
xdata	ENDS
;	COMDAT xdata
xdata	SEGMENT
$unwind$?Sleep@TWin@@UEAAHI@Z DD 020601H
	DD	030029206H
xdata	ENDS
;	COMDAT xdata
xdata	SEGMENT
$unwind$?Idle@TWin@@UEAAHXZ DD 010401H
	DD	0c204H
xdata	ENDS
;	COMDAT xdata
xdata	SEGMENT
$unwind$?MoveCenter@TWin@@UEAAHH@Z DD 092719H
	DD	0185415H
	DD	0173415H
	DD	0120115H
	DD	0700ce00eH
	DD	0600bH
	DD	imagerel __GSHandlerCheck
	DD	080H
xdata	ENDS
;	COMDAT xdata
xdata	SEGMENT
$unwind$?WinProc@TWin@@UEAA_JI_K_J@Z DD 081401H
	DD	0c6414H
	DD	0b5414H
	DD	0a3414H
	DD	070107214H
xdata	ENDS
;	COMDAT xdata
xdata	SEGMENT
$unwind$?CreateTipWnd@TWin@@UEAAHPEB_WHH@Z DD 0a1a01H
	DD	011741aH
	DD	010641aH
	DD	0f541aH
	DD	0e341aH
	DD	0e016b21aH
xdata	ENDS
;	COMDAT xdata
xdata	SEGMENT
$unwind$?SetTipTextW@TWin@@UEAAHPEB_WHH@Z DD 041a19H
	DD	07004f20bH
	DD	030026003H
	DD	imagerel __GSHandlerCheck
	DD	070H
xdata	ENDS
;	COMDAT xdata
xdata	SEGMENT
$unwind$?CloseTipWnd@TWin@@UEAAHXZ DD 020601H
	DD	030023206H
xdata	ENDS
;	COMDAT xdata
xdata	SEGMENT
$unwind$??0Wstr@@QEAA@H@Z DD 060f01H
	DD	07640fH
	DD	06340fH
	DD	0700b320fH
xdata	ENDS
;	COMDAT xdata
xdata	SEGMENT
$unwind$?Init@Wstr@@QEAAXH@Z DD 081401H
	DD	086414H
	DD	075414H
	DD	063414H
	DD	070103214H
xdata	ENDS
;	COMDAT xdata
xdata	SEGMENT
$unwind$??_GTWin@@UEAAPEAXI@Z DD 040a01H
	DD	06340aH
	DD	07006320aH
xdata	ENDS
;	COMDAT xdata
xdata	SEGMENT
$ip2state$??1TWin@@UEAA@XZ DD imagerel ??1TWin@@UEAA@XZ
	DD	0ffffffffH
xdata	ENDS
;	COMDAT CONST
CONST	SEGMENT
$cppxdata$??1TWin@@UEAA@XZ DD 019930522H
	DD	00H
	DD	00H
	DD	00H
	DD	00H
	DD	01H
	DD	imagerel $ip2state$??1TWin@@UEAA@XZ
	DD	020H
	DD	00H
	DD	05H
CONST	ENDS
;	COMDAT xdata
xdata	SEGMENT
$unwind$??1TWin@@UEAA@XZ DD 020f19H
	DD	030025206H
	DD	imagerel __CxxFrameHandler3
	DD	imagerel $cppxdata$??1TWin@@UEAA@XZ
xdata	ENDS
;	COMDAT xdata
xdata	SEGMENT
$unwind$??_GTSubClass@@UEAAPEAXI@Z DD 040a01H
	DD	06340aH
	DD	07006320aH
xdata	ENDS
;	COMDAT xdata
xdata	SEGMENT
$unwind$??_GTSubClassCtl@@UEAAPEAXI@Z DD 040a01H
	DD	06340aH
	DD	07006320aH
xdata	ENDS
;	COMDAT xdata
xdata	SEGMENT
$unwind$??_GTCtl@@UEAAPEAXI@Z DD 040a01H
	DD	06340aH
	DD	07006320aH
; Function compile flags: /Ogtpy
; File f:\software1\\fastcopy\fastcopy325src\src\tlib\twin.cpp
;	COMDAT ??0TSubClass@@QEAA@PEAVTWin@@@Z
_TEXT	SEGMENT
this$ = 48
_parent$ = 56
??0TSubClass@@QEAA@PEAVTWin@@@Z PROC			; TSubClass::TSubClass, COMDAT

; 1058 : {

$LN4:
  00000	48 83 ec 28	 sub	 rsp, 40			; 00000028H
  00004	4c 8b c9	 mov	 r9, rcx
  00007	e8 00 00 00 00	 call	 ??0TWin@@QEAA@PEAV0@@Z	; TWin::TWin
  0000c	4c 8d 15 00 00
	00 00		 lea	 r10, OFFSET FLAT:??_7TSubClass@@6B@

; 1059 : }

  00013	49 8b c1	 mov	 rax, r9
  00016	4d 89 11	 mov	 QWORD PTR [r9], r10
  00019	48 83 c4 28	 add	 rsp, 40			; 00000028H
  0001d	c3		 ret	 0
??0TSubClass@@QEAA@PEAVTWin@@@Z ENDP			; TSubClass::TSubClass
_TEXT	ENDS
; Function compile flags: /Ogtpy
; File f:\software1\\fastcopy\fastcopy325src\src\tlib\twin.cpp
;	COMDAT ??1TSubClass@@UEAA@XZ
_TEXT	SEGMENT
this$ = 48
??1TSubClass@@UEAA@XZ PROC				; TSubClass::~TSubClass, COMDAT

; 1062 : {

$LN5:
  00000	40 53		 push	 rbx
  00002	48 83 ec 20	 sub	 rsp, 32			; 00000020H

; 1063 : 	if (oldProc && hWnd) DetachWnd();

  00006	48 83 79 78 00	 cmp	 QWORD PTR [rcx+120], 0
  0000b	48 8d 05 00 00
	00 00		 lea	 rax, OFFSET FLAT:??_7TSubClass@@6B@
  00012	48 89 01	 mov	 QWORD PTR [rcx], rax
  00015	48 8b d9	 mov	 rbx, rcx
  00018	74 0c		 je	 SHORT $LN2@TSubClass
  0001a	48 83 79 60 00	 cmp	 QWORD PTR [rcx+96], 0
  0001f	74 05		 je	 SHORT $LN2@TSubClass
  00021	e8 00 00 00 00	 call	 ?DetachWnd@TSubClass@@UEAAHXZ ; TSubClass::DetachWnd
$LN2@TSubClass:

; 1064 : }

  00026	48 8b cb	 mov	 rcx, rbx
  00029	48 83 c4 20	 add	 rsp, 32			; 00000020H
  0002d	5b		 pop	 rbx
  0002e	e9 00 00 00 00	 jmp	 ??1TWin@@UEAA@XZ	; TWin::~TWin
??1TSubClass@@UEAA@XZ ENDP				; TSubClass::~TSubClass
_TEXT	ENDS
; Function compile flags: /Ogtpy
; File f:\software1\\fastcopy\fastcopy325src\src\tlib\twin.cpp
; File f:\software1\\fastcopy\fastcopy325src\src\tlib\tlib.h
; File f:\software1\\fastcopy\fastcopy325src\src\tlib\twin.cpp
; File f:\software1\\fastcopy\fastcopy325src\src\tlib\tlib.h
; File f:\software1\\fastcopy\fastcopy325src\src\tlib\twin.cpp
;	COMDAT ?AttachWnd@TSubClass@@UEAAHPEAUHWND__@@@Z
_TEXT	SEGMENT
this$ = 48
_hWnd$ = 56
?AttachWnd@TSubClass@@UEAAHPEAUHWND__@@@Z PROC		; TSubClass::AttachWnd, COMDAT

; 1067 : {

$LN10:
  00000	48 89 5c 24 08	 mov	 QWORD PTR [rsp+8], rbx
  00005	57		 push	 rdi
  00006	48 83 ec 20	 sub	 rsp, 32			; 00000020H

; 1068 : 	TApp::GetApp()->AddWinByWnd(this, _hWnd);

  0000a	48 8b 05 00 00
	00 00		 mov	 rax, QWORD PTR ?tapp@TApp@@1PEAV1@EA ; TApp::tapp
  00011	48 8b f9	 mov	 rdi, rcx
; File f:\software1\\fastcopy\fastcopy325src\src\tlib\tlib.h

; 646  : 		win->hWnd = hWnd;

  00014	48 89 51 60	 mov	 QWORD PTR [rcx+96], rdx
; File f:\software1\\fastcopy\fastcopy325src\src\tlib\twin.cpp

; 1067 : {

  00018	48 8b da	 mov	 rbx, rdx
; File f:\software1\\fastcopy\fastcopy325src\src\tlib\tlib.h

; 616  : 	u_int	MakeHashId(HWND hWnd) { return DWORD_RDC(hWnd) * 0xf3f77d13; }

  0001b	44 69 c2 13 7d
	f7 f3		 imul	 r8d, edx, -201884397	; f3f77d13H

; 647  : 		hash->Register(win, hash->MakeHashId(hWnd));

  00022	48 8b d7	 mov	 rdx, rdi
  00025	48 8b 48 08	 mov	 rcx, QWORD PTR [rax+8]
  00029	48 8b 01	 mov	 rax, QWORD PTR [rcx]
  0002c	ff 50 20	 call	 QWORD PTR [rax+32]
; File f:\software1\\fastcopy\fastcopy325src\src\tlib\twin.cpp

; 1069 : 	oldProc = (WNDPROC)::SetWindowLongW(_hWnd, GWL_WNDPROC, (LONG_PTR)TApp::WinProc);

  0002f	4c 8d 05 00 00
	00 00		 lea	 r8, OFFSET FLAT:?WinProc@TApp@@SA_JPEAUHWND__@@I_K_J@Z ; TApp::WinProc
  00036	ba fc ff ff ff	 mov	 edx, -4
  0003b	48 8b cb	 mov	 rcx, rbx
  0003e	ff 15 00 00 00
	00		 call	 QWORD PTR __imp_SetWindowLongPtrW

; 1070 : 	return	oldProc ? TRUE : FALSE;
; 1071 : }

  00044	48 8b 5c 24 30	 mov	 rbx, QWORD PTR [rsp+48]
  00049	33 c9		 xor	 ecx, ecx
  0004b	48 85 c0	 test	 rax, rax
  0004e	48 89 47 78	 mov	 QWORD PTR [rdi+120], rax
  00052	0f 95 c1	 setne	 cl
  00055	8b c1		 mov	 eax, ecx
  00057	48 83 c4 20	 add	 rsp, 32			; 00000020H
  0005b	5f		 pop	 rdi
  0005c	c3		 ret	 0
?AttachWnd@TSubClass@@UEAAHPEAUHWND__@@@Z ENDP		; TSubClass::AttachWnd
_TEXT	ENDS
; Function compile flags: /Ogtpy
; File f:\software1\\fastcopy\fastcopy325src\src\tlib\twin.cpp
;	COMDAT ?DetachWnd@TSubClass@@UEAAHXZ
_TEXT	SEGMENT
this$ = 48
?DetachWnd@TSubClass@@UEAAHXZ PROC			; TSubClass::DetachWnd, COMDAT

; 1074 : {

$LN6:
  00000	40 53		 push	 rbx
  00002	48 83 ec 20	 sub	 rsp, 32			; 00000020H

; 1075 : 	if (!oldProc || !hWnd) return FALSE;

  00006	4c 8b 41 78	 mov	 r8, QWORD PTR [rcx+120]
  0000a	48 8b d9	 mov	 rbx, rcx
  0000d	4d 85 c0	 test	 r8, r8
  00010	74 27		 je	 SHORT $LN3@DetachWnd
  00012	48 8b 49 60	 mov	 rcx, QWORD PTR [rcx+96]
  00016	48 85 c9	 test	 rcx, rcx
  00019	74 1e		 je	 SHORT $LN3@DetachWnd

; 1076 : 
; 1077 : 	::SetWindowLongW(hWnd, GWL_WNDPROC, (LONG_PTR)oldProc);

  0001b	ba fc ff ff ff	 mov	 edx, -4
  00020	ff 15 00 00 00
	00		 call	 QWORD PTR __imp_SetWindowLongPtrW

; 1078 : 	oldProc = NULL;
; 1079 : 	return	TRUE;

  00026	b8 01 00 00 00	 mov	 eax, 1
  0002b	48 c7 43 78 00
	00 00 00	 mov	 QWORD PTR [rbx+120], 0

; 1080 : }

  00033	48 83 c4 20	 add	 rsp, 32			; 00000020H
  00037	5b		 pop	 rbx
  00038	c3		 ret	 0
$LN3@DetachWnd:

; 1075 : 	if (!oldProc || !hWnd) return FALSE;

  00039	33 c0		 xor	 eax, eax

; 1080 : }

  0003b	48 83 c4 20	 add	 rsp, 32			; 00000020H
  0003f	5b		 pop	 rbx
  00040	c3		 ret	 0
?DetachWnd@TSubClass@@UEAAHXZ ENDP			; TSubClass::DetachWnd
_TEXT	ENDS
; Function compile flags: /Ogtpy
; File f:\software1\\fastcopy\fastcopy325src\src\tlib\twin.cpp
;	COMDAT ?DefWindowProcA@TSubClass@@UEAA_JI_K_J@Z
_TEXT	SEGMENT
this$ = 64
uMsg$ = 72
wParam$ = 80
lParam$ = 88
?DefWindowProcA@TSubClass@@UEAA_JI_K_J@Z PROC		; TSubClass::DefWindowProcA, COMDAT

; 1083 : {

$LN4:
  00000	48 83 ec 38	 sub	 rsp, 56			; 00000038H

; 1084 : 	return	::CallWindowProcW((WNDPROC)oldProc, hWnd, uMsg, wParam, lParam);

  00004	4c 89 4c 24 20	 mov	 QWORD PTR [rsp+32], r9
  00009	4d 8b c8	 mov	 r9, r8
  0000c	44 8b c2	 mov	 r8d, edx
  0000f	48 8b 51 60	 mov	 rdx, QWORD PTR [rcx+96]
  00013	48 8b 49 78	 mov	 rcx, QWORD PTR [rcx+120]
  00017	ff 15 00 00 00
	00		 call	 QWORD PTR __imp_CallWindowProcW

; 1085 : }

  0001d	48 83 c4 38	 add	 rsp, 56			; 00000038H
  00021	c3		 ret	 0
?DefWindowProcA@TSubClass@@UEAA_JI_K_J@Z ENDP		; TSubClass::DefWindowProcA
_TEXT	ENDS
; Function compile flags: /Ogtpy
; File f:\software1\\fastcopy\fastcopy325src\src\tlib\twin.cpp
;	COMDAT ??0TSubClassCtl@@QEAA@PEAVTWin@@@Z
_TEXT	SEGMENT
this$ = 48
_parent$ = 56
??0TSubClassCtl@@QEAA@PEAVTWin@@@Z PROC			; TSubClassCtl::TSubClassCtl, COMDAT

; 1088 : {

$LN4:
  00000	48 83 ec 28	 sub	 rsp, 40			; 00000028H
  00004	4c 8b d9	 mov	 r11, rcx
  00007	e8 00 00 00 00	 call	 ??0TSubClass@@QEAA@PEAVTWin@@@Z ; TSubClass::TSubClass
  0000c	48 8d 05 00 00
	00 00		 lea	 rax, OFFSET FLAT:??_7TSubClassCtl@@6B@
  00013	49 89 03	 mov	 QWORD PTR [r11], rax

; 1089 : }

  00016	49 8b c3	 mov	 rax, r11
  00019	48 83 c4 28	 add	 rsp, 40			; 00000028H
  0001d	c3		 ret	 0
??0TSubClassCtl@@QEAA@PEAVTWin@@@Z ENDP			; TSubClassCtl::TSubClassCtl
_TEXT	ENDS
; Function compile flags: /Ogtpy
; File f:\software1\\fastcopy\fastcopy325src\src\tlib\twin.cpp
;	COMDAT ?Show@TWin@@UEAAXH@Z
_TEXT	SEGMENT
this$ = 48
mode$ = 56
?Show@TWin@@UEAAXH@Z PROC				; TWin::Show, COMDAT

; 76   : {

$LN5:
  00000	40 53		 push	 rbx
  00002	48 83 ec 20	 sub	 rsp, 32			; 00000020H
  00006	48 8b d9	 mov	 rbx, rcx

; 77   : 	if (hWnd) {

  00009	48 8b 49 60	 mov	 rcx, QWORD PTR [rcx+96]
  0000d	48 85 c9	 test	 rcx, rcx
  00010	74 16		 je	 SHORT $LN2@Show

; 78   : 		::ShowWindow(hWnd, mode);

  00012	ff 15 00 00 00
	00		 call	 QWORD PTR __imp_ShowWindow

; 79   : 		::UpdateWindow(hWnd);

  00018	48 8b 4b 60	 mov	 rcx, QWORD PTR [rbx+96]

; 80   : 	}
; 81   : }

  0001c	48 83 c4 20	 add	 rsp, 32			; 00000020H
  00020	5b		 pop	 rbx

; 79   : 		::UpdateWindow(hWnd);

  00021	48 ff 25 00 00
	00 00		 rex_jmp QWORD PTR __imp_UpdateWindow
$LN2@Show:

; 80   : 	}
; 81   : }

  00028	48 83 c4 20	 add	 rsp, 32			; 00000020H
  0002c	5b		 pop	 rbx
  0002d	c3		 ret	 0
?Show@TWin@@UEAAXH@Z ENDP				; TWin::Show
_TEXT	ENDS
; Function compile flags: /Ogtpy
; File f:\software1\\fastcopy\fastcopy325src\src\tlib\twin.cpp
; File f:\software1\\fastcopy\fastcopy325src\src\tlib\tapi32u8.h
; File f:\software1\\fastcopy\fastcopy325src\src\tlib\twin.cpp
; File f:\software1\\fastcopy\fastcopy325src\src\tlib\tapi32u8.h
; File f:\software1\\fastcopy\fastcopy325src\src\tlib\twin.cpp
;	COMDAT ?Create@TWin@@UEAAHPEBD0KKPEAUHMENU__@@@Z
_TEXT	SEGMENT
className_w$ = 56
title_w$ = 72
this$ = 112
className$ = 120
title$ = 128
style$ = 136
exStyle$ = 144
hMenu$ = 152
?Create@TWin@@UEAAHPEBD0KKPEAUHMENU__@@@Z PROC		; TWin::Create, COMDAT

; 38   : {

$LN52:
  00000	48 8b c4	 mov	 rax, rsp
  00003	41 56		 push	 r14
  00005	48 83 ec 60	 sub	 rsp, 96			; 00000060H
  00009	48 c7 40 c8 fe
	ff ff ff	 mov	 QWORD PTR [rax-56], -2
  00011	48 89 58 08	 mov	 QWORD PTR [rax+8], rbx
  00015	48 89 68 10	 mov	 QWORD PTR [rax+16], rbp
  00019	48 89 70 18	 mov	 QWORD PTR [rax+24], rsi
  0001d	48 89 78 20	 mov	 QWORD PTR [rax+32], rdi
  00021	41 8b e9	 mov	 ebp, r9d
  00024	49 8b f0	 mov	 rsi, r8
  00027	4c 8b f1	 mov	 r14, rcx
; File f:\software1\\fastcopy\fastcopy325src\src\tlib\tapi32u8.h

; 100  : 		str = _str ? mode == BY_UTF8 ? U8toW(_str) : AtoW(_str) : NULL;

  0002a	33 ff		 xor	 edi, edi
  0002c	48 85 d2	 test	 rdx, rdx
  0002f	74 12		 je	 SHORT $LN13@Create
  00031	48 8b ca	 mov	 rcx, rdx
  00034	e8 00 00 00 00	 call	 ?AtoW@@YAPEA_WPEBDH@Z	; AtoW
  00039	48 8b d8	 mov	 rbx, rax
  0003c	48 89 44 24 38	 mov	 QWORD PTR className_w$[rsp], rax
  00041	eb 08		 jmp	 SHORT $LN14@Create
$LN13@Create:
  00043	48 8b df	 mov	 rbx, rdi
  00046	48 89 5c 24 38	 mov	 QWORD PTR className_w$[rsp], rbx
$LN14@Create:

; 101  : 		len = -1;

  0004b	c7 44 24 40 ff
	ff ff ff	 mov	 DWORD PTR className_w$[rsp+8], -1

; 100  : 		str = _str ? mode == BY_UTF8 ? U8toW(_str) : AtoW(_str) : NULL;

  00053	48 85 f6	 test	 rsi, rsi
  00056	74 12		 je	 SHORT $LN26@Create
  00058	48 8b ce	 mov	 rcx, rsi
  0005b	e8 00 00 00 00	 call	 ?AtoW@@YAPEA_WPEBDH@Z	; AtoW
  00060	48 8b f8	 mov	 rdi, rax
  00063	48 89 44 24 48	 mov	 QWORD PTR title_w$[rsp], rax
  00068	eb 05		 jmp	 SHORT $LN27@Create
$LN26@Create:
  0006a	48 89 7c 24 48	 mov	 QWORD PTR title_w$[rsp], rdi
$LN27@Create:

; 101  : 		len = -1;

  0006f	c7 44 24 50 ff
	ff ff ff	 mov	 DWORD PTR title_w$[rsp+8], -1

; 172  : 		return str ? str : L"";

  00077	48 8d 15 00 00
	00 00		 lea	 rdx, OFFSET FLAT:??_C@_11LOCGONAA@?$AA?$AA@
  0007e	4c 8b c2	 mov	 r8, rdx
  00081	48 85 ff	 test	 rdi, rdi
  00084	4c 0f 45 c7	 cmovne	 r8, rdi
  00088	48 85 db	 test	 rbx, rbx
  0008b	48 0f 45 d3	 cmovne	 rdx, rbx
; File f:\software1\\fastcopy\fastcopy325src\src\tlib\twin.cpp

; 42   : 	return	CreateW(className_w.s(), title_w.s(), style, exStyle, hMenu);

  0008f	4d 8b 16	 mov	 r10, QWORD PTR [r14]
  00092	48 8b 84 24 98
	00 00 00	 mov	 rax, QWORD PTR hMenu$[rsp]
  0009a	48 89 44 24 28	 mov	 QWORD PTR [rsp+40], rax
  0009f	8b 84 24 90 00
	00 00		 mov	 eax, DWORD PTR exStyle$[rsp]
  000a6	89 44 24 20	 mov	 DWORD PTR [rsp+32], eax
  000aa	44 8b cd	 mov	 r9d, ebp
  000ad	49 8b ce	 mov	 rcx, r14
  000b0	41 ff 52 30	 call	 QWORD PTR [r10+48]
  000b4	8b f0		 mov	 esi, eax
; File f:\software1\\fastcopy\fastcopy325src\src\tlib\tapi32u8.h

; 114  : 		if (str) {

  000b6	48 85 ff	 test	 rdi, rdi
  000b9	74 09		 je	 SHORT $LN43@Create

; 115  : 			delete [] str;

  000bb	48 8b cf	 mov	 rcx, rdi
  000be	e8 00 00 00 00	 call	 ??_V@YAXPEAX@Z		; operator delete[]
  000c3	90		 npad	 1
$LN43@Create:

; 114  : 		if (str) {

  000c4	48 85 db	 test	 rbx, rbx
  000c7	74 08		 je	 SHORT $LN51@Create

; 115  : 			delete [] str;

  000c9	48 8b cb	 mov	 rcx, rbx
  000cc	e8 00 00 00 00	 call	 ??_V@YAXPEAX@Z		; operator delete[]
$LN51@Create:
; File f:\software1\\fastcopy\fastcopy325src\src\tlib\twin.cpp

; 42   : 	return	CreateW(className_w.s(), title_w.s(), style, exStyle, hMenu);

  000d1	8b c6		 mov	 eax, esi

; 43   : }

  000d3	4c 8d 5c 24 60	 lea	 r11, QWORD PTR [rsp+96]
  000d8	49 8b 5b 10	 mov	 rbx, QWORD PTR [r11+16]
  000dc	49 8b 6b 18	 mov	 rbp, QWORD PTR [r11+24]
  000e0	49 8b 73 20	 mov	 rsi, QWORD PTR [r11+32]
  000e4	49 8b 7b 28	 mov	 rdi, QWORD PTR [r11+40]
  000e8	49 8b e3	 mov	 rsp, r11
  000eb	41 5e		 pop	 r14
  000ed	c3		 ret	 0
?Create@TWin@@UEAAHPEBD0KKPEAUHMENU__@@@Z ENDP		; TWin::Create
_TEXT	ENDS
;	COMDAT text$x
text$x	SEGMENT
className_w$ = 56
title_w$ = 72
this$ = 112
className$ = 120
title$ = 128
style$ = 136
exStyle$ = 144
hMenu$ = 152
?dtor$0@?0??Create@TWin@@UEAAHPEBD0KKPEAUHMENU__@@@Z@4HA PROC ; `TWin::Create'::`1'::dtor$0
  00000	48 8d 8a 38 00
	00 00		 lea	 rcx, QWORD PTR className_w$[rdx]
  00007	e9 00 00 00 00	 jmp	 ??1Wstr@@QEAA@XZ	; Wstr::~Wstr
?dtor$0@?0??Create@TWin@@UEAAHPEBD0KKPEAUHMENU__@@@Z@4HA ENDP ; `TWin::Create'::`1'::dtor$0
className_w$ = 56
title_w$ = 72
this$ = 112
className$ = 120
title$ = 128
style$ = 136
exStyle$ = 144
hMenu$ = 152
?dtor$1@?0??Create@TWin@@UEAAHPEBD0KKPEAUHMENU__@@@Z@4HA PROC ; `TWin::Create'::`1'::dtor$1
  0000c	48 8d 8a 48 00
	00 00		 lea	 rcx, QWORD PTR title_w$[rdx]
  00013	e9 00 00 00 00	 jmp	 ??1Wstr@@QEAA@XZ	; Wstr::~Wstr
?dtor$1@?0??Create@TWin@@UEAAHPEBD0KKPEAUHMENU__@@@Z@4HA ENDP ; `TWin::Create'::`1'::dtor$1
text$x	ENDS
; Function compile flags: /Ogtpy
;	COMDAT text$x
text$x	SEGMENT
className_w$ = 56
title_w$ = 72
this$ = 112
className$ = 120
title$ = 128
style$ = 136
exStyle$ = 144
hMenu$ = 152
?dtor$0@?0??Create@TWin@@UEAAHPEBD0KKPEAUHMENU__@@@Z@4HA PROC ; `TWin::Create'::`1'::dtor$0
  00000	48 8d 8a 38 00
	00 00		 lea	 rcx, QWORD PTR className_w$[rdx]
  00007	e9 00 00 00 00	 jmp	 ??1Wstr@@QEAA@XZ	; Wstr::~Wstr
?dtor$0@?0??Create@TWin@@UEAAHPEBD0KKPEAUHMENU__@@@Z@4HA ENDP ; `TWin::Create'::`1'::dtor$0
text$x	ENDS
; Function compile flags: /Ogtpy
;	COMDAT text$x
text$x	SEGMENT
className_w$ = 56
title_w$ = 72
this$ = 112
className$ = 120
title$ = 128
style$ = 136
exStyle$ = 144
hMenu$ = 152
?dtor$1@?0??Create@TWin@@UEAAHPEBD0KKPEAUHMENU__@@@Z@4HA PROC ; `TWin::Create'::`1'::dtor$1
  0000c	48 8d 8a 48 00
	00 00		 lea	 rcx, QWORD PTR title_w$[rdx]
  00013	e9 00 00 00 00	 jmp	 ??1Wstr@@QEAA@XZ	; Wstr::~Wstr
?dtor$1@?0??Create@TWin@@UEAAHPEBD0KKPEAUHMENU__@@@Z@4HA ENDP ; `TWin::Create'::`1'::dtor$1
text$x	ENDS
; Function compile flags: /Ogtpy
; File f:\software1\\fastcopy\fastcopy325src\src\tlib\twin.cpp
; File f:\software1\\fastcopy\fastcopy325src\src\tlib\tapi32u8.h
; File f:\software1\\fastcopy\fastcopy325src\src\tlib\twin.cpp
; File f:\software1\\fastcopy\fastcopy325src\src\tlib\tapi32u8.h
; File f:\software1\\fastcopy\fastcopy325src\src\tlib\twin.cpp
;	COMDAT ?CreateU8@TWin@@UEAAHPEBD0KKPEAUHMENU__@@@Z
_TEXT	SEGMENT
className_w$ = 56
title_w$ = 72
this$ = 112
className$ = 120
title$ = 128
style$ = 136
exStyle$ = 144
hMenu$ = 152
?CreateU8@TWin@@UEAAHPEBD0KKPEAUHMENU__@@@Z PROC	; TWin::CreateU8, COMDAT

; 927  : {

$LN52:
  00000	48 8b c4	 mov	 rax, rsp
  00003	41 56		 push	 r14
  00005	48 83 ec 60	 sub	 rsp, 96			; 00000060H
  00009	48 c7 40 c8 fe
	ff ff ff	 mov	 QWORD PTR [rax-56], -2
  00011	48 89 58 08	 mov	 QWORD PTR [rax+8], rbx
  00015	48 89 68 10	 mov	 QWORD PTR [rax+16], rbp
  00019	48 89 70 18	 mov	 QWORD PTR [rax+24], rsi
  0001d	48 89 78 20	 mov	 QWORD PTR [rax+32], rdi
  00021	41 8b e9	 mov	 ebp, r9d
  00024	49 8b f0	 mov	 rsi, r8
  00027	4c 8b f1	 mov	 r14, rcx
; File f:\software1\\fastcopy\fastcopy325src\src\tlib\tapi32u8.h

; 100  : 		str = _str ? mode == BY_UTF8 ? U8toW(_str) : AtoW(_str) : NULL;

  0002a	33 ff		 xor	 edi, edi
  0002c	48 85 d2	 test	 rdx, rdx
  0002f	74 12		 je	 SHORT $LN13@CreateU8
  00031	48 8b ca	 mov	 rcx, rdx
  00034	e8 00 00 00 00	 call	 ?U8toW@@YAPEA_WPEBDH@Z	; U8toW
  00039	48 8b d8	 mov	 rbx, rax
  0003c	48 89 44 24 38	 mov	 QWORD PTR className_w$[rsp], rax
  00041	eb 08		 jmp	 SHORT $LN14@CreateU8
$LN13@CreateU8:
  00043	48 8b df	 mov	 rbx, rdi
  00046	48 89 5c 24 38	 mov	 QWORD PTR className_w$[rsp], rbx
$LN14@CreateU8:

; 101  : 		len = -1;

  0004b	c7 44 24 40 ff
	ff ff ff	 mov	 DWORD PTR className_w$[rsp+8], -1

; 100  : 		str = _str ? mode == BY_UTF8 ? U8toW(_str) : AtoW(_str) : NULL;

  00053	48 85 f6	 test	 rsi, rsi
  00056	74 12		 je	 SHORT $LN26@CreateU8
  00058	48 8b ce	 mov	 rcx, rsi
  0005b	e8 00 00 00 00	 call	 ?U8toW@@YAPEA_WPEBDH@Z	; U8toW
  00060	48 8b f8	 mov	 rdi, rax
  00063	48 89 44 24 48	 mov	 QWORD PTR title_w$[rsp], rax
  00068	eb 05		 jmp	 SHORT $LN27@CreateU8
$LN26@CreateU8:
  0006a	48 89 7c 24 48	 mov	 QWORD PTR title_w$[rsp], rdi
$LN27@CreateU8:

; 101  : 		len = -1;

  0006f	c7 44 24 50 ff
	ff ff ff	 mov	 DWORD PTR title_w$[rsp+8], -1

; 172  : 		return str ? str : L"";

  00077	48 8d 15 00 00
	00 00		 lea	 rdx, OFFSET FLAT:??_C@_11LOCGONAA@?$AA?$AA@
  0007e	4c 8b c2	 mov	 r8, rdx
  00081	48 85 ff	 test	 rdi, rdi
  00084	4c 0f 45 c7	 cmovne	 r8, rdi
  00088	48 85 db	 test	 rbx, rbx
  0008b	48 0f 45 d3	 cmovne	 rdx, rbx
; File f:\software1\\fastcopy\fastcopy325src\src\tlib\twin.cpp

; 931  : 	return	CreateW(className_w.s(), title_w.s(), style, exStyle, hMenu);

  0008f	4d 8b 16	 mov	 r10, QWORD PTR [r14]
  00092	48 8b 84 24 98
	00 00 00	 mov	 rax, QWORD PTR hMenu$[rsp]
  0009a	48 89 44 24 28	 mov	 QWORD PTR [rsp+40], rax
  0009f	8b 84 24 90 00
	00 00		 mov	 eax, DWORD PTR exStyle$[rsp]
  000a6	89 44 24 20	 mov	 DWORD PTR [rsp+32], eax
  000aa	44 8b cd	 mov	 r9d, ebp
  000ad	49 8b ce	 mov	 rcx, r14
  000b0	41 ff 52 30	 call	 QWORD PTR [r10+48]
  000b4	8b f0		 mov	 esi, eax
; File f:\software1\\fastcopy\fastcopy325src\src\tlib\tapi32u8.h

; 114  : 		if (str) {

  000b6	48 85 ff	 test	 rdi, rdi
  000b9	74 09		 je	 SHORT $LN43@CreateU8

; 115  : 			delete [] str;

  000bb	48 8b cf	 mov	 rcx, rdi
  000be	e8 00 00 00 00	 call	 ??_V@YAXPEAX@Z		; operator delete[]
  000c3	90		 npad	 1
$LN43@CreateU8:

; 114  : 		if (str) {

  000c4	48 85 db	 test	 rbx, rbx
  000c7	74 08		 je	 SHORT $LN51@CreateU8

; 115  : 			delete [] str;

  000c9	48 8b cb	 mov	 rcx, rbx
  000cc	e8 00 00 00 00	 call	 ??_V@YAXPEAX@Z		; operator delete[]
$LN51@CreateU8:
; File f:\software1\\fastcopy\fastcopy325src\src\tlib\twin.cpp

; 931  : 	return	CreateW(className_w.s(), title_w.s(), style, exStyle, hMenu);

  000d1	8b c6		 mov	 eax, esi

; 932  : }

  000d3	4c 8d 5c 24 60	 lea	 r11, QWORD PTR [rsp+96]
  000d8	49 8b 5b 10	 mov	 rbx, QWORD PTR [r11+16]
  000dc	49 8b 6b 18	 mov	 rbp, QWORD PTR [r11+24]
  000e0	49 8b 73 20	 mov	 rsi, QWORD PTR [r11+32]
  000e4	49 8b 7b 28	 mov	 rdi, QWORD PTR [r11+40]
  000e8	49 8b e3	 mov	 rsp, r11
  000eb	41 5e		 pop	 r14
  000ed	c3		 ret	 0
?CreateU8@TWin@@UEAAHPEBD0KKPEAUHMENU__@@@Z ENDP	; TWin::CreateU8
_TEXT	ENDS
;	COMDAT text$x
text$x	SEGMENT
className_w$ = 56
title_w$ = 72
this$ = 112
className$ = 120
title$ = 128
style$ = 136
exStyle$ = 144
hMenu$ = 152
?dtor$0@?0??CreateU8@TWin@@UEAAHPEBD0KKPEAUHMENU__@@@Z@4HA PROC ; `TWin::CreateU8'::`1'::dtor$0
  00000	48 8d 8a 38 00
	00 00		 lea	 rcx, QWORD PTR className_w$[rdx]
  00007	e9 00 00 00 00	 jmp	 ??1Wstr@@QEAA@XZ	; Wstr::~Wstr
?dtor$0@?0??CreateU8@TWin@@UEAAHPEBD0KKPEAUHMENU__@@@Z@4HA ENDP ; `TWin::CreateU8'::`1'::dtor$0
className_w$ = 56
title_w$ = 72
this$ = 112
className$ = 120
title$ = 128
style$ = 136
exStyle$ = 144
hMenu$ = 152
?dtor$1@?0??CreateU8@TWin@@UEAAHPEBD0KKPEAUHMENU__@@@Z@4HA PROC ; `TWin::CreateU8'::`1'::dtor$1
  0000c	48 8d 8a 48 00
	00 00		 lea	 rcx, QWORD PTR title_w$[rdx]
  00013	e9 00 00 00 00	 jmp	 ??1Wstr@@QEAA@XZ	; Wstr::~Wstr
?dtor$1@?0??CreateU8@TWin@@UEAAHPEBD0KKPEAUHMENU__@@@Z@4HA ENDP ; `TWin::CreateU8'::`1'::dtor$1
text$x	ENDS
; Function compile flags: /Ogtpy
;	COMDAT text$x
text$x	SEGMENT
className_w$ = 56
title_w$ = 72
this$ = 112
className$ = 120
title$ = 128
style$ = 136
exStyle$ = 144
hMenu$ = 152
?dtor$0@?0??CreateU8@TWin@@UEAAHPEBD0KKPEAUHMENU__@@@Z@4HA PROC ; `TWin::CreateU8'::`1'::dtor$0
  00000	48 8d 8a 38 00
	00 00		 lea	 rcx, QWORD PTR className_w$[rdx]
  00007	e9 00 00 00 00	 jmp	 ??1Wstr@@QEAA@XZ	; Wstr::~Wstr
?dtor$0@?0??CreateU8@TWin@@UEAAHPEBD0KKPEAUHMENU__@@@Z@4HA ENDP ; `TWin::CreateU8'::`1'::dtor$0
text$x	ENDS
; Function compile flags: /Ogtpy
;	COMDAT text$x
text$x	SEGMENT
className_w$ = 56
title_w$ = 72
this$ = 112
className$ = 120
title$ = 128
style$ = 136
exStyle$ = 144
hMenu$ = 152
?dtor$1@?0??CreateU8@TWin@@UEAAHPEBD0KKPEAUHMENU__@@@Z@4HA PROC ; `TWin::CreateU8'::`1'::dtor$1
  0000c	48 8d 8a 48 00
	00 00		 lea	 rcx, QWORD PTR title_w$[rdx]
  00013	e9 00 00 00 00	 jmp	 ??1Wstr@@QEAA@XZ	; Wstr::~Wstr
?dtor$1@?0??CreateU8@TWin@@UEAAHPEBD0KKPEAUHMENU__@@@Z@4HA ENDP ; `TWin::CreateU8'::`1'::dtor$1
text$x	ENDS
; Function compile flags: /Ogtpy
; File f:\software1\\fastcopy\fastcopy325src\src\tlib\twin.cpp
; File f:\software1\\fastcopy\fastcopy325src\src\tlib\tlib.h
; File f:\software1\\fastcopy\fastcopy325src\src\tlib\twin.cpp
; File f:\software1\\fastcopy\fastcopy325src\src\tlib\tlib.h
; File f:\software1\\fastcopy\fastcopy325src\src\tlib\twin.cpp
; File f:\software1\\fastcopy\fastcopy325src\src\tlib\tlib.h
; File f:\software1\\fastcopy\fastcopy325src\src\tlib\twin.cpp
;	COMDAT ?CreateW@TWin@@UEAAHPEB_W0KKPEAUHMENU__@@@Z
_TEXT	SEGMENT
this$ = 112
className$ = 120
title$ = 128
style$ = 136
exStyle$ = 144
hMenu$ = 152
?CreateW@TWin@@UEAAHPEB_W0KKPEAUHMENU__@@@Z PROC	; TWin::CreateW, COMDAT

; 47   : {

$LN22:
  00000	48 89 5c 24 08	 mov	 QWORD PTR [rsp+8], rbx
  00005	48 89 74 24 10	 mov	 QWORD PTR [rsp+16], rsi
  0000a	57		 push	 rdi
  0000b	48 83 ec 60	 sub	 rsp, 96			; 00000060H

; 48   : 	if (className == NULL) {

  0000f	48 8b 05 00 00
	00 00		 mov	 rax, QWORD PTR ?tapp@TApp@@1PEAV1@EA ; TApp::tapp
  00016	41 8b f9	 mov	 edi, r9d
  00019	49 8b f0	 mov	 rsi, r8
  0001c	4c 8b d2	 mov	 r10, rdx
  0001f	48 8b d9	 mov	 rbx, rcx
  00022	48 85 d2	 test	 rdx, rdx
  00025	75 04		 jne	 SHORT $LN2@CreateW
; File f:\software1\\fastcopy\fastcopy325src\src\tlib\tlib.h

; 643  : 	LPCWSTR	GetDefaultClassW() { return defaultClassW; }

  00027	4c 8b 50 18	 mov	 r10, QWORD PTR [rax+24]
$LN2@CreateW:

; 644  : 	void	AddWin(TWin *win) { preWnd = win; }

  0002b	48 89 58 38	 mov	 QWORD PTR [rax+56], rbx
; File f:\software1\\fastcopy\fastcopy325src\src\tlib\twin.cpp

; 54   : 	if (!(hWnd = ::CreateWindowExW(exStyle, className, title, style,

  0002f	48 8b 49 48	 mov	 rcx, QWORD PTR [rcx+72]
  00033	48 85 c9	 test	 rcx, rcx
  00036	74 06		 je	 SHORT $LN5@CreateW
  00038	4c 8b 59 60	 mov	 r11, QWORD PTR [rcx+96]
  0003c	eb 03		 jmp	 SHORT $LN6@CreateW
$LN5@CreateW:
  0003e	45 33 db	 xor	 r11d, r11d
$LN6@CreateW:
  00041	44 8b 43 24	 mov	 r8d, DWORD PTR [rbx+36]
  00045	44 8b 4b 20	 mov	 r9d, DWORD PTR [rbx+32]
; File f:\software1\\fastcopy\fastcopy325src\src\tlib\tlib.h

; 657  : 	static HINSTANCE hInst() { return tapp->hInstance; }

  00049	48 8b 40 40	 mov	 rax, QWORD PTR [rax+64]
; File f:\software1\\fastcopy\fastcopy325src\src\tlib\twin.cpp

; 54   : 	if (!(hWnd = ::CreateWindowExW(exStyle, className, title, style,

  0004d	8b 53 2c	 mov	 edx, DWORD PTR [rbx+44]
  00050	8b 4b 28	 mov	 ecx, DWORD PTR [rbx+40]
  00053	41 2b d0	 sub	 edx, r8d
  00056	48 c7 44 24 58
	00 00 00 00	 mov	 QWORD PTR [rsp+88], 0
  0005f	41 2b c9	 sub	 ecx, r9d
  00062	48 89 44 24 50	 mov	 QWORD PTR [rsp+80], rax
  00067	48 8b 84 24 98
	00 00 00	 mov	 rax, QWORD PTR hMenu$[rsp]
  0006f	48 89 44 24 48	 mov	 QWORD PTR [rsp+72], rax
  00074	4c 89 5c 24 40	 mov	 QWORD PTR [rsp+64], r11
  00079	89 54 24 38	 mov	 DWORD PTR [rsp+56], edx
  0007d	49 8b d2	 mov	 rdx, r10
  00080	89 4c 24 30	 mov	 DWORD PTR [rsp+48], ecx
  00084	8b 8c 24 90 00
	00 00		 mov	 ecx, DWORD PTR exStyle$[rsp]
  0008b	44 89 44 24 28	 mov	 DWORD PTR [rsp+40], r8d
  00090	4c 8b c6	 mov	 r8, rsi
  00093	44 89 4c 24 20	 mov	 DWORD PTR [rsp+32], r9d
  00098	44 8b cf	 mov	 r9d, edi
  0009b	ff 15 00 00 00
	00		 call	 QWORD PTR __imp_CreateWindowExW
  000a1	48 89 43 60	 mov	 QWORD PTR [rbx+96], rax
  000a5	48 85 c0	 test	 rax, rax
  000a8	75 26		 jne	 SHORT $LN3@CreateW

; 55   : 			rect.left, rect.top, rect.right - rect.left, rect.bottom - rect.top,
; 56   : 			parent ? parent->hWnd : NULL, hMenu, TApp::hInst(), NULL))) {
; 57   : 		TApp::GetApp()->DelWin(this);

  000aa	48 8b 05 00 00
	00 00		 mov	 rax, QWORD PTR ?tapp@TApp@@1PEAV1@EA ; TApp::tapp
; File f:\software1\\fastcopy\fastcopy325src\src\tlib\tlib.h

; 649  : 	void	DelWin(TWin *win) { hash->UnRegister(win); }

  000b1	48 8b d3	 mov	 rdx, rbx
  000b4	48 8b 48 08	 mov	 rcx, QWORD PTR [rax+8]
  000b8	48 8b 01	 mov	 rax, QWORD PTR [rcx]
  000bb	ff 50 28	 call	 QWORD PTR [rax+40]
; File f:\software1\\fastcopy\fastcopy325src\src\tlib\twin.cpp

; 58   : 		return	FALSE;

  000be	33 c0		 xor	 eax, eax

; 59   : 	}
; 60   : 
; 61   : 	return	TRUE;
; 62   : }

  000c0	48 8b 5c 24 70	 mov	 rbx, QWORD PTR [rsp+112]
  000c5	48 8b 74 24 78	 mov	 rsi, QWORD PTR [rsp+120]
  000ca	48 83 c4 60	 add	 rsp, 96			; 00000060H
  000ce	5f		 pop	 rdi
  000cf	c3		 ret	 0
$LN3@CreateW:
  000d0	48 8b 5c 24 70	 mov	 rbx, QWORD PTR [rsp+112]
  000d5	b8 01 00 00 00	 mov	 eax, 1
  000da	48 8b 74 24 78	 mov	 rsi, QWORD PTR [rsp+120]
  000df	48 83 c4 60	 add	 rsp, 96			; 00000060H
  000e3	5f		 pop	 rdi
  000e4	c3		 ret	 0
?CreateW@TWin@@UEAAHPEB_W0KKPEAUHMENU__@@@Z ENDP	; TWin::CreateW
_TEXT	ENDS
; Function compile flags: /Ogtpy
; File f:\software1\\fastcopy\fastcopy325src\src\tlib\twin.cpp
;	COMDAT ?Destroy@TWin@@UEAAXXZ
_TEXT	SEGMENT
this$ = 48
?Destroy@TWin@@UEAAXXZ PROC				; TWin::Destroy, COMDAT

; 65   : {

$LN6:
  00000	40 53		 push	 rbx
  00002	48 83 ec 20	 sub	 rsp, 32			; 00000020H

; 66   : 	if (hTipWnd) {

  00006	48 83 79 68 00	 cmp	 QWORD PTR [rcx+104], 0
  0000b	48 8b d9	 mov	 rbx, rcx
  0000e	74 09		 je	 SHORT $LN2@Destroy

; 67   : 		CloseTipWnd();

  00010	48 8b 01	 mov	 rax, QWORD PTR [rcx]
  00013	ff 90 88 03 00
	00		 call	 QWORD PTR [rax+904]
$LN2@Destroy:

; 68   : 	}
; 69   : 
; 70   : 	if (hWnd) {

  00019	48 8b 4b 60	 mov	 rcx, QWORD PTR [rbx+96]
  0001d	48 85 c9	 test	 rcx, rcx
  00020	74 0c		 je	 SHORT $LN3@Destroy

; 72   : 	}
; 73   : }

  00022	48 83 c4 20	 add	 rsp, 32			; 00000020H
  00026	5b		 pop	 rbx

; 71   : 		::DestroyWindow(hWnd);

  00027	48 ff 25 00 00
	00 00		 rex_jmp QWORD PTR __imp_DestroyWindow
$LN3@Destroy:

; 72   : 	}
; 73   : }

  0002e	48 83 c4 20	 add	 rsp, 32			; 00000020H
  00032	5b		 pop	 rbx
  00033	c3		 ret	 0
?Destroy@TWin@@UEAAXXZ ENDP				; TWin::Destroy
_TEXT	ENDS
; Function compile flags: /Ogtpy
; File f:\software1\\fastcopy\fastcopy325src\src\tlib\twin.cpp
;	COMDAT ?EvSysCommand@TWin@@UEAAH_KUtagPOINTS@@@Z
_TEXT	SEGMENT
this$ = 8
uCmdType$ = 16
pos$ = 24
?EvSysCommand@TWin@@UEAAH_KUtagPOINTS@@@Z PROC		; TWin::EvSysCommand, COMDAT

; 330  : 	return	FALSE;

  00000	33 c0		 xor	 eax, eax

; 331  : }

  00002	c3		 ret	 0
?EvSysCommand@TWin@@UEAAH_KUtagPOINTS@@@Z ENDP		; TWin::EvSysCommand
_TEXT	ENDS
; Function compile flags: /Ogtpy
; File f:\software1\\fastcopy\fastcopy325src\src\tlib\twin.cpp
;	COMDAT ?EvCreate@TWin@@UEAAH_J@Z
_TEXT	SEGMENT
this$ = 8
lParam$ = 16
?EvCreate@TWin@@UEAAH_J@Z PROC				; TWin::EvCreate, COMDAT

; 335  : 	return	FALSE;

  00000	33 c0		 xor	 eax, eax

; 336  : }

  00002	c3		 ret	 0
?EvCreate@TWin@@UEAAH_J@Z ENDP				; TWin::EvCreate
_TEXT	ENDS
; Function compile flags: /Ogtpy
; File f:\software1\\fastcopy\fastcopy325src\src\tlib\twin.cpp
;	COMDAT ?EvClose@TWin@@UEAAHXZ
_TEXT	SEGMENT
this$ = 8
?EvClose@TWin@@UEAAHXZ PROC				; TWin::EvClose, COMDAT

; 340  : 	return	FALSE;

  00000	33 c0		 xor	 eax, eax

; 341  : }

  00002	c3		 ret	 0
?EvClose@TWin@@UEAAHXZ ENDP				; TWin::EvClose
_TEXT	ENDS
; Function compile flags: /Ogtpy
; File f:\software1\\fastcopy\fastcopy325src\src\tlib\twin.cpp
;	COMDAT ?EvDestroy@TWin@@UEAAHXZ
_TEXT	SEGMENT
this$ = 8
?EvDestroy@TWin@@UEAAHXZ PROC				; TWin::EvDestroy, COMDAT

; 356  : 	return	FALSE;

  00000	33 c0		 xor	 eax, eax

; 357  : }

  00002	c3		 ret	 0
?EvDestroy@TWin@@UEAAHXZ ENDP				; TWin::EvDestroy
_TEXT	ENDS
; Function compile flags: /Ogtpy
; File f:\software1\\fastcopy\fastcopy325src\src\tlib\twin.cpp
;	COMDAT ?EvNcDestroy@TWin@@UEAAHXZ
_TEXT	SEGMENT
this$ = 8
?EvNcDestroy@TWin@@UEAAHXZ PROC				; TWin::EvNcDestroy, COMDAT

; 361  : 	return	FALSE;

  00000	33 c0		 xor	 eax, eax

; 362  : }

  00002	c3		 ret	 0
?EvNcDestroy@TWin@@UEAAHXZ ENDP				; TWin::EvNcDestroy
_TEXT	ENDS
; Function compile flags: /Ogtpy
; File f:\software1\\fastcopy\fastcopy325src\src\tlib\twin.cpp
;	COMDAT ?EvQueryEndSession@TWin@@UEAAHHH@Z
_TEXT	SEGMENT
this$ = 8
nSession$ = 16
nLogOut$ = 24
?EvQueryEndSession@TWin@@UEAAHHH@Z PROC			; TWin::EvQueryEndSession, COMDAT

; 399  : 	return	TRUE;

  00000	b8 01 00 00 00	 mov	 eax, 1

; 400  : }

  00005	c3		 ret	 0
?EvQueryEndSession@TWin@@UEAAHHH@Z ENDP			; TWin::EvQueryEndSession
_TEXT	ENDS
; Function compile flags: /Ogtpy
; File f:\software1\\fastcopy\fastcopy325src\src\tlib\twin.cpp
;	COMDAT ?EvEndSession@TWin@@UEAAHHH@Z
_TEXT	SEGMENT
this$ = 8
nSession$ = 16
nLogOut$ = 24
?EvEndSession@TWin@@UEAAHHH@Z PROC			; TWin::EvEndSession, COMDAT

; 404  : 	return	TRUE;

  00000	b8 01 00 00 00	 mov	 eax, 1

; 405  : }

  00005	c3		 ret	 0
?EvEndSession@TWin@@UEAAHHH@Z ENDP			; TWin::EvEndSession
_TEXT	ENDS
; Function compile flags: /Ogtpy
; File f:\software1\\fastcopy\fastcopy325src\src\tlib\twin.cpp
;	COMDAT ?EvPowerBroadcast@TWin@@UEAAH_K_J@Z
_TEXT	SEGMENT
this$ = 8
pbtEvent$ = 16
pbtData$ = 24
?EvPowerBroadcast@TWin@@UEAAH_K_J@Z PROC		; TWin::EvPowerBroadcast, COMDAT

; 409  : 	return	TRUE;

  00000	b8 01 00 00 00	 mov	 eax, 1

; 410  : }

  00005	c3		 ret	 0
?EvPowerBroadcast@TWin@@UEAAH_K_J@Z ENDP		; TWin::EvPowerBroadcast
_TEXT	ENDS
; Function compile flags: /Ogtpy
; File f:\software1\\fastcopy\fastcopy325src\src\tlib\twin.cpp
;	COMDAT ?EvQueryOpen@TWin@@UEAAHXZ
_TEXT	SEGMENT
this$ = 8
?EvQueryOpen@TWin@@UEAAHXZ PROC				; TWin::EvQueryOpen, COMDAT

; 414  : 	return	TRUE;

  00000	b8 01 00 00 00	 mov	 eax, 1

; 415  : }

  00005	c3		 ret	 0
?EvQueryOpen@TWin@@UEAAHXZ ENDP				; TWin::EvQueryOpen
_TEXT	ENDS
; Function compile flags: /Ogtpy
; File f:\software1\\fastcopy\fastcopy325src\src\tlib\twin.cpp
;	COMDAT ?EvPaint@TWin@@UEAAHXZ
_TEXT	SEGMENT
this$ = 8
?EvPaint@TWin@@UEAAHXZ PROC				; TWin::EvPaint, COMDAT

; 419  : 	return	FALSE;

  00000	33 c0		 xor	 eax, eax

; 420  : }

  00002	c3		 ret	 0
?EvPaint@TWin@@UEAAHXZ ENDP				; TWin::EvPaint
_TEXT	ENDS
; Function compile flags: /Ogtpy
; File f:\software1\\fastcopy\fastcopy325src\src\tlib\twin.cpp
;	COMDAT ?EvNcPaint@TWin@@UEAAHPEAUHRGN__@@@Z
_TEXT	SEGMENT
this$ = 8
hRgn$ = 16
?EvNcPaint@TWin@@UEAAHPEAUHRGN__@@@Z PROC		; TWin::EvNcPaint, COMDAT

; 424  : 	return	FALSE;

  00000	33 c0		 xor	 eax, eax

; 425  : }

  00002	c3		 ret	 0
?EvNcPaint@TWin@@UEAAHPEAUHRGN__@@@Z ENDP		; TWin::EvNcPaint
_TEXT	ENDS
; Function compile flags: /Ogtpy
; File f:\software1\\fastcopy\fastcopy325src\src\tlib\twin.cpp
;	COMDAT ?EvSize@TWin@@UEAAHIGG@Z
_TEXT	SEGMENT
this$ = 8
fwSizeType$ = 16
nWidth$ = 24
nHeight$ = 32
?EvSize@TWin@@UEAAHIGG@Z PROC				; TWin::EvSize, COMDAT

; 434  : 	return	FALSE;

  00000	33 c0		 xor	 eax, eax

; 435  : }

  00002	c3		 ret	 0
?EvSize@TWin@@UEAAHIGG@Z ENDP				; TWin::EvSize
_TEXT	ENDS
; Function compile flags: /Ogtpy
; File f:\software1\\fastcopy\fastcopy325src\src\tlib\twin.cpp
;	COMDAT ?EvMove@TWin@@UEAAHHH@Z
_TEXT	SEGMENT
this$ = 8
xpos$ = 16
ypos$ = 24
?EvMove@TWin@@UEAAHHH@Z PROC				; TWin::EvMove, COMDAT

; 439  : 	return	FALSE;

  00000	33 c0		 xor	 eax, eax

; 440  : }

  00002	c3		 ret	 0
?EvMove@TWin@@UEAAHHH@Z ENDP				; TWin::EvMove
_TEXT	ENDS
; Function compile flags: /Ogtpy
; File f:\software1\\fastcopy\fastcopy325src\src\tlib\twin.cpp
;	COMDAT ?EvShowWindow@TWin@@UEAAHHH@Z
_TEXT	SEGMENT
this$ = 8
fShow$ = 16
fnStatus$ = 24
?EvShowWindow@TWin@@UEAAHHH@Z PROC			; TWin::EvShowWindow, COMDAT

; 444  : 	return	FALSE;

  00000	33 c0		 xor	 eax, eax

; 445  : }

  00002	c3		 ret	 0
?EvShowWindow@TWin@@UEAAHHH@Z ENDP			; TWin::EvShowWindow
_TEXT	ENDS
; Function compile flags: /Ogtpy
; File f:\software1\\fastcopy\fastcopy325src\src\tlib\twin.cpp
;	COMDAT ?EvGetMinMaxInfo@TWin@@UEAAHPEAUtagMINMAXINFO@@@Z
_TEXT	SEGMENT
this$ = 8
info$ = 16
?EvGetMinMaxInfo@TWin@@UEAAHPEAUtagMINMAXINFO@@@Z PROC	; TWin::EvGetMinMaxInfo, COMDAT

; 449  : 	return	FALSE;

  00000	33 c0		 xor	 eax, eax

; 450  : }

  00002	c3		 ret	 0
?EvGetMinMaxInfo@TWin@@UEAAHPEAUtagMINMAXINFO@@@Z ENDP	; TWin::EvGetMinMaxInfo
_TEXT	ENDS
; Function compile flags: /Ogtpy
; File f:\software1\\fastcopy\fastcopy325src\src\tlib\twin.cpp
;	COMDAT ?EvTimer@TWin@@UEAAH_KP6AXPEAUHWND__@@I0K@Z@Z
_TEXT	SEGMENT
this$ = 8
timerID$ = 16
proc$ = 24
?EvTimer@TWin@@UEAAH_KP6AXPEAUHWND__@@I0K@Z@Z PROC	; TWin::EvTimer, COMDAT

; 366  : 	return	FALSE;

  00000	33 c0		 xor	 eax, eax

; 367  : }

  00002	c3		 ret	 0
?EvTimer@TWin@@UEAAH_KP6AXPEAUHWND__@@I0K@Z@Z ENDP	; TWin::EvTimer
_TEXT	ENDS
; Function compile flags: /Ogtpy
; File f:\software1\\fastcopy\fastcopy325src\src\tlib\twin.cpp
;	COMDAT ?EvSetCursor@TWin@@UEAAHPEAUHWND__@@GG@Z
_TEXT	SEGMENT
this$ = 8
cursorWnd$ = 16
nHitTest$ = 24
wMouseMsg$ = 32
?EvSetCursor@TWin@@UEAAHPEAUHWND__@@GG@Z PROC		; TWin::EvSetCursor, COMDAT

; 454  : 	return	FALSE;

  00000	33 c0		 xor	 eax, eax

; 455  : }

  00002	c3		 ret	 0
?EvSetCursor@TWin@@UEAAHPEAUHWND__@@GG@Z ENDP		; TWin::EvSetCursor
_TEXT	ENDS
; Function compile flags: /Ogtpy
; File f:\software1\\fastcopy\fastcopy325src\src\tlib\twin.cpp
;	COMDAT ?EvMouseMove@TWin@@UEAAHIUtagPOINTS@@@Z
_TEXT	SEGMENT
this$ = 8
fwKeys$ = 16
pos$ = 24
?EvMouseMove@TWin@@UEAAHIUtagPOINTS@@@Z PROC		; TWin::EvMouseMove, COMDAT

; 459  : 	return	FALSE;

  00000	33 c0		 xor	 eax, eax

; 460  : }

  00002	c3		 ret	 0
?EvMouseMove@TWin@@UEAAHIUtagPOINTS@@@Z ENDP		; TWin::EvMouseMove
_TEXT	ENDS
; Function compile flags: /Ogtpy
; File f:\software1\\fastcopy\fastcopy325src\src\tlib\twin.cpp
;	COMDAT ?EvNcHitTest@TWin@@UEAAHUtagPOINTS@@PEA_J@Z
_TEXT	SEGMENT
this$ = 8
pos$ = 16
result$ = 24
?EvNcHitTest@TWin@@UEAAHUtagPOINTS@@PEA_J@Z PROC	; TWin::EvNcHitTest, COMDAT

; 464  : 	return	FALSE;

  00000	33 c0		 xor	 eax, eax

; 465  : }

  00002	c3		 ret	 0
?EvNcHitTest@TWin@@UEAAHUtagPOINTS@@PEA_J@Z ENDP	; TWin::EvNcHitTest
_TEXT	ENDS
; Function compile flags: /Ogtpy
; File f:\software1\\fastcopy\fastcopy325src\src\tlib\twin.cpp
;	COMDAT ?EvMeasureItem@TWin@@UEAAHIPEAUtagMEASUREITEMSTRUCT@@@Z
_TEXT	SEGMENT
this$ = 8
ctlID$ = 16
lpMis$ = 24
?EvMeasureItem@TWin@@UEAAHIPEAUtagMEASUREITEMSTRUCT@@@Z PROC ; TWin::EvMeasureItem, COMDAT

; 346  : 	return	FALSE;

  00000	33 c0		 xor	 eax, eax

; 347  : }

  00002	c3		 ret	 0
?EvMeasureItem@TWin@@UEAAHIPEAUtagMEASUREITEMSTRUCT@@@Z ENDP ; TWin::EvMeasureItem
_TEXT	ENDS
; Function compile flags: /Ogtpy
; File f:\software1\\fastcopy\fastcopy325src\src\tlib\twin.cpp
;	COMDAT ?EvDrawItem@TWin@@UEAAHIPEAUtagDRAWITEMSTRUCT@@@Z
_TEXT	SEGMENT
this$ = 8
ctlID$ = 16
lpDis$ = 24
?EvDrawItem@TWin@@UEAAHIPEAUtagDRAWITEMSTRUCT@@@Z PROC	; TWin::EvDrawItem, COMDAT

; 351  : 	return	FALSE;

  00000	33 c0		 xor	 eax, eax

; 352  : }

  00002	c3		 ret	 0
?EvDrawItem@TWin@@UEAAHIPEAUtagDRAWITEMSTRUCT@@@Z ENDP	; TWin::EvDrawItem
_TEXT	ENDS
; Function compile flags: /Ogtpy
; File f:\software1\\fastcopy\fastcopy325src\src\tlib\twin.cpp
;	COMDAT ?EvMenuSelect@TWin@@UEAAHIIPEAUHMENU__@@@Z
_TEXT	SEGMENT
this$ = 8
uItem$ = 16
fuFlag$ = 24
hMenu$ = 32
?EvMenuSelect@TWin@@UEAAHIIPEAUHMENU__@@@Z PROC		; TWin::EvMenuSelect, COMDAT

; 554  : 	return	FALSE;

  00000	33 c0		 xor	 eax, eax

; 555  : }

  00002	c3		 ret	 0
?EvMenuSelect@TWin@@UEAAHIIPEAUHMENU__@@@Z ENDP		; TWin::EvMenuSelect
_TEXT	ENDS
; Function compile flags: /Ogtpy
; File f:\software1\\fastcopy\fastcopy325src\src\tlib\twin.cpp
;	COMDAT ?EvDropFiles@TWin@@UEAAHPEAUHDROP__@@@Z
_TEXT	SEGMENT
this$ = 8
hDrop$ = 16
?EvDropFiles@TWin@@UEAAHPEAUHDROP__@@@Z PROC		; TWin::EvDropFiles, COMDAT

; 559  : 	return	FALSE;

  00000	33 c0		 xor	 eax, eax

; 560  : }

  00002	c3		 ret	 0
?EvDropFiles@TWin@@UEAAHPEAUHDROP__@@@Z ENDP		; TWin::EvDropFiles
_TEXT	ENDS
; Function compile flags: /Ogtpy
; File f:\software1\\fastcopy\fastcopy325src\src\tlib\twin.cpp
;	COMDAT ?EvNotify@TWin@@UEAAHIPEAUtagNMHDR@@@Z
_TEXT	SEGMENT
this$ = 8
ctlID$ = 16
pNmHdr$ = 24
?EvNotify@TWin@@UEAAHIPEAUtagNMHDR@@@Z PROC		; TWin::EvNotify, COMDAT

; 469  : 	return	FALSE;

  00000	33 c0		 xor	 eax, eax

; 470  : }

  00002	c3		 ret	 0
?EvNotify@TWin@@UEAAHIPEAUtagNMHDR@@@Z ENDP		; TWin::EvNotify
_TEXT	ENDS
; Function compile flags: /Ogtpy
; File f:\software1\\fastcopy\fastcopy325src\src\tlib\twin.cpp
;	COMDAT ?EvContextMenu@TWin@@UEAAHPEAUHWND__@@UtagPOINTS@@@Z
_TEXT	SEGMENT
this$ = 8
childWnd$ = 16
pos$ = 24
?EvContextMenu@TWin@@UEAAHPEAUHWND__@@UtagPOINTS@@@Z PROC ; TWin::EvContextMenu, COMDAT

; 474  : 	return	FALSE;

  00000	33 c0		 xor	 eax, eax

; 475  : }

  00002	c3		 ret	 0
?EvContextMenu@TWin@@UEAAHPEAUHWND__@@UtagPOINTS@@@Z ENDP ; TWin::EvContextMenu
_TEXT	ENDS
; Function compile flags: /Ogtpy
; File f:\software1\\fastcopy\fastcopy325src\src\tlib\twin.cpp
;	COMDAT ?EvHotKey@TWin@@UEAAHH@Z
_TEXT	SEGMENT
this$ = 8
hotKey$ = 16
?EvHotKey@TWin@@UEAAHH@Z PROC				; TWin::EvHotKey, COMDAT

; 479  : 	return	FALSE;

  00000	33 c0		 xor	 eax, eax

; 480  : }

  00002	c3		 ret	 0
?EvHotKey@TWin@@UEAAHH@Z ENDP				; TWin::EvHotKey
_TEXT	ENDS
; Function compile flags: /Ogtpy
; File f:\software1\\fastcopy\fastcopy325src\src\tlib\twin.cpp
;	COMDAT ?EvActivateApp@TWin@@UEAAHHK@Z
_TEXT	SEGMENT
this$ = 8
fActivate$ = 16
dwThreadID$ = 24
?EvActivateApp@TWin@@UEAAHHK@Z PROC			; TWin::EvActivateApp, COMDAT

; 484  : 	return	FALSE;

  00000	33 c0		 xor	 eax, eax

; 485  : }

  00002	c3		 ret	 0
?EvActivateApp@TWin@@UEAAHHK@Z ENDP			; TWin::EvActivateApp
_TEXT	ENDS
; Function compile flags: /Ogtpy
; File f:\software1\\fastcopy\fastcopy325src\src\tlib\twin.cpp
;	COMDAT ?EvActivate@TWin@@UEAAHHKPEAUHWND__@@@Z
_TEXT	SEGMENT
this$ = 8
fActivate$ = 16
fMinimized$ = 24
hActiveWnd$ = 32
?EvActivate@TWin@@UEAAHHKPEAUHWND__@@@Z PROC		; TWin::EvActivate, COMDAT

; 489  : 	return	FALSE;

  00000	33 c0		 xor	 eax, eax

; 490  : }

  00002	c3		 ret	 0
?EvActivate@TWin@@UEAAHHKPEAUHWND__@@@Z ENDP		; TWin::EvActivate
_TEXT	ENDS
; Function compile flags: /Ogtpy
; File f:\software1\\fastcopy\fastcopy325src\src\tlib\twin.cpp
;	COMDAT ?EvChar@TWin@@UEAAH_W_J@Z
_TEXT	SEGMENT
this$ = 8
code$ = 16
keyData$ = 24
?EvChar@TWin@@UEAAH_W_J@Z PROC				; TWin::EvChar, COMDAT

; 509  : 	return	FALSE;

  00000	33 c0		 xor	 eax, eax

; 510  : }

  00002	c3		 ret	 0
?EvChar@TWin@@UEAAH_W_J@Z ENDP				; TWin::EvChar
_TEXT	ENDS
; Function compile flags: /Ogtpy
; File f:\software1\\fastcopy\fastcopy325src\src\tlib\twin.cpp
;	COMDAT ?EvWindowPosChanged@TWin@@UEAAHPEAUtagWINDOWPOS@@@Z
_TEXT	SEGMENT
this$ = 8
pos$ = 16
?EvWindowPosChanged@TWin@@UEAAHPEAUtagWINDOWPOS@@@Z PROC ; TWin::EvWindowPosChanged, COMDAT

; 499  : 	return	FALSE;

  00000	33 c0		 xor	 eax, eax

; 500  : }

  00002	c3		 ret	 0
?EvWindowPosChanged@TWin@@UEAAHPEAUtagWINDOWPOS@@@Z ENDP ; TWin::EvWindowPosChanged
_TEXT	ENDS
; Function compile flags: /Ogtpy
; File f:\software1\\fastcopy\fastcopy325src\src\tlib\twin.cpp
;	COMDAT ?EvWindowPosChanging@TWin@@UEAAHPEAUtagWINDOWPOS@@@Z
_TEXT	SEGMENT
this$ = 8
pos$ = 16
?EvWindowPosChanging@TWin@@UEAAHPEAUtagWINDOWPOS@@@Z PROC ; TWin::EvWindowPosChanging, COMDAT

; 494  : 	return	FALSE;

  00000	33 c0		 xor	 eax, eax

; 495  : }

  00002	c3		 ret	 0
?EvWindowPosChanging@TWin@@UEAAHPEAUtagWINDOWPOS@@@Z ENDP ; TWin::EvWindowPosChanging
_TEXT	ENDS
; Function compile flags: /Ogtpy
; File f:\software1\\fastcopy\fastcopy325src\src\tlib\twin.cpp
;	COMDAT ?EvMouseWheel@TWin@@UEAAHGFFF@Z
_TEXT	SEGMENT
this$ = 8
fwKeys$ = 16
zDelta$ = 24
xPos$ = 32
yPos$ = 40
?EvMouseWheel@TWin@@UEAAHGFFF@Z PROC			; TWin::EvMouseWheel, COMDAT

; 504  : 	return	FALSE;

  00000	33 c0		 xor	 eax, eax

; 505  : }

  00002	c3		 ret	 0
?EvMouseWheel@TWin@@UEAAHGFFF@Z ENDP			; TWin::EvMouseWheel
_TEXT	ENDS
; Function compile flags: /Ogtpy
; File f:\software1\\fastcopy\fastcopy325src\src\tlib\twin.cpp
;	COMDAT ?EventButton@TWin@@UEAAHIHUtagPOINTS@@@Z
_TEXT	SEGMENT
this$ = 8
uMsg$ = 16
nHitTest$ = 24
pos$ = 32
?EventButton@TWin@@UEAAHIHUtagPOINTS@@@Z PROC		; TWin::EventButton, COMDAT

; 534  : 	return	FALSE;

  00000	33 c0		 xor	 eax, eax

; 535  : }

  00002	c3		 ret	 0
?EventButton@TWin@@UEAAHIHUtagPOINTS@@@Z ENDP		; TWin::EventButton
_TEXT	ENDS
; Function compile flags: /Ogtpy
; File f:\software1\\fastcopy\fastcopy325src\src\tlib\twin.cpp
;	COMDAT ?EventKey@TWin@@UEAAHIHJ@Z
_TEXT	SEGMENT
this$ = 8
uMsg$ = 16
nVirtKey$ = 24
lKeyData$ = 32
?EventKey@TWin@@UEAAHIHJ@Z PROC				; TWin::EventKey, COMDAT

; 539  : 	return	FALSE;

  00000	33 c0		 xor	 eax, eax

; 540  : }

  00002	c3		 ret	 0
?EventKey@TWin@@UEAAHIHJ@Z ENDP				; TWin::EventKey
_TEXT	ENDS
; Function compile flags: /Ogtpy
; File f:\software1\\fastcopy\fastcopy325src\src\tlib\twin.cpp
;	COMDAT ?EventMenuLoop@TWin@@UEAAHIH@Z
_TEXT	SEGMENT
this$ = 8
uMsg$ = 16
fIsTrackPopupMenu$ = 24
?EventMenuLoop@TWin@@UEAAHIH@Z PROC			; TWin::EventMenuLoop, COMDAT

; 544  : 	return	FALSE;

  00000	33 c0		 xor	 eax, eax

; 545  : }

  00002	c3		 ret	 0
?EventMenuLoop@TWin@@UEAAHIH@Z ENDP			; TWin::EventMenuLoop
_TEXT	ENDS
; Function compile flags: /Ogtpy
; File f:\software1\\fastcopy\fastcopy325src\src\tlib\twin.cpp
;	COMDAT ?EventInitMenu@TWin@@UEAAHIPEAUHMENU__@@IH@Z
_TEXT	SEGMENT
this$ = 8
uMsg$ = 16
hMenu$ = 24
uPos$ = 32
fSystemMenu$ = 40
?EventInitMenu@TWin@@UEAAHIPEAUHMENU__@@IH@Z PROC	; TWin::EventInitMenu, COMDAT

; 549  : 	return	FALSE;

  00000	33 c0		 xor	 eax, eax

; 550  : }

  00002	c3		 ret	 0
?EventInitMenu@TWin@@UEAAHIPEAUHMENU__@@IH@Z ENDP	; TWin::EventInitMenu
_TEXT	ENDS
; Function compile flags: /Ogtpy
; File f:\software1\\fastcopy\fastcopy325src\src\tlib\twin.cpp
;	COMDAT ?EventCtlColor@TWin@@UEAAHIPEAUHDC__@@PEAUHWND__@@PEAPEAUHBRUSH__@@@Z
_TEXT	SEGMENT
this$ = 8
uMsg$ = 16
hDcCtl$ = 24
hWndCtl$ = 32
result$ = 40
?EventCtlColor@TWin@@UEAAHIPEAUHDC__@@PEAUHWND__@@PEAPEAUHBRUSH__@@@Z PROC ; TWin::EventCtlColor, COMDAT

; 564  : 	return	FALSE;

  00000	33 c0		 xor	 eax, eax

; 565  : }

  00002	c3		 ret	 0
?EventCtlColor@TWin@@UEAAHIPEAUHDC__@@PEAUHWND__@@PEAPEAUHBRUSH__@@@Z ENDP ; TWin::EventCtlColor
_TEXT	ENDS
; Function compile flags: /Ogtpy
; File f:\software1\\fastcopy\fastcopy325src\src\tlib\twin.cpp
;	COMDAT ?EventFocus@TWin@@UEAAHIPEAUHWND__@@@Z
_TEXT	SEGMENT
this$ = 8
uMsg$ = 16
hFocusWnd$ = 24
?EventFocus@TWin@@UEAAHIPEAUHWND__@@@Z PROC		; TWin::EventFocus, COMDAT

; 569  : 	return	FALSE;

  00000	33 c0		 xor	 eax, eax

; 570  : }

  00002	c3		 ret	 0
?EventFocus@TWin@@UEAAHIPEAUHWND__@@@Z ENDP		; TWin::EventFocus
_TEXT	ENDS
; Function compile flags: /Ogtpy
; File f:\software1\\fastcopy\fastcopy325src\src\tlib\twin.cpp
;	COMDAT ?EventScrollWrapper@TWin@@UEAAHIHHPEAUHWND__@@@Z
_TEXT	SEGMENT
si$1 = 48
__$ArrayPad$ = 80
this$ = 144
uMsg$ = 152
nCode$ = 160
nPos$ = 168
scrollBar$ = 176
?EventScrollWrapper@TWin@@UEAAHIHHPEAUHWND__@@@Z PROC	; TWin::EventScrollWrapper, COMDAT

; 513  : {

$LN9:
  00000	40 53		 push	 rbx
  00002	55		 push	 rbp
  00003	56		 push	 rsi
  00004	57		 push	 rdi
  00005	41 56		 push	 r14
  00007	48 83 ec 60	 sub	 rsp, 96			; 00000060H
  0000b	48 8b 05 00 00
	00 00		 mov	 rax, QWORD PTR __security_cookie
  00012	48 33 c4	 xor	 rax, rsp
  00015	48 89 44 24 50	 mov	 QWORD PTR __$ArrayPad$[rsp], rax

; 514  : 	if (scrollHack) {

  0001a	83 79 58 00	 cmp	 DWORD PTR [rcx+88], 0
  0001e	41 8b f9	 mov	 edi, r9d
  00021	4c 8b b4 24 b0
	00 00 00	 mov	 r14, QWORD PTR scrollBar$[rsp]
  00029	41 8b f0	 mov	 esi, r8d
  0002c	8b ea		 mov	 ebp, edx
  0002e	48 8b d9	 mov	 rbx, rcx
  00031	74 4a		 je	 SHORT $LN5@EventScrol
  00033	41 8d 40 fc	 lea	 eax, DWORD PTR [r8-4]
  00037	83 f8 01	 cmp	 eax, 1
  0003a	77 41		 ja	 SHORT $LN5@EventScrol

; 515  : 		// 32bit
; 516  : 		if (nCode == SB_THUMBTRACK || nCode == SB_THUMBPOSITION) {
; 517  : 			SCROLLINFO	si = { sizeof(si), SIF_TRACKPOS };
; 518  : 			if (::GetScrollInfo(hWnd, uMsg == WM_HSCROLL ? SB_HORZ : SB_VERT, &si)) {

  0003c	48 8b 49 60	 mov	 rcx, QWORD PTR [rcx+96]
  00040	4c 8d 44 24 30	 lea	 r8, QWORD PTR si$1[rsp]
  00045	33 c0		 xor	 eax, eax
  00047	c7 44 24 30 1c
	00 00 00	 mov	 DWORD PTR si$1[rsp], 28
  0004f	33 d2		 xor	 edx, edx
  00051	c7 44 24 34 10
	00 00 00	 mov	 DWORD PTR si$1[rsp+4], 16
  00059	81 fd 14 01 00
	00		 cmp	 ebp, 276		; 00000114H
  0005f	48 89 44 24 38	 mov	 QWORD PTR si$1[rsp+8], rax
  00064	48 89 44 24 40	 mov	 QWORD PTR si$1[rsp+16], rax
  00069	0f 95 c2	 setne	 dl
  0006c	89 44 24 48	 mov	 DWORD PTR si$1[rsp+24], eax
  00070	ff 15 00 00 00
	00		 call	 QWORD PTR __imp_GetScrollInfo
  00076	85 c0		 test	 eax, eax
  00078	0f 45 7c 24 48	 cmovne	 edi, DWORD PTR si$1[rsp+24]
$LN5@EventScrol:

; 519  : 				nPos = si.nTrackPos;
; 520  : 			}
; 521  : 		}
; 522  : 	}
; 523  : 	return	EventScroll(uMsg, nCode, nPos, scrollBar);

  0007d	48 8b 03	 mov	 rax, QWORD PTR [rbx]
  00080	44 8b cf	 mov	 r9d, edi
  00083	44 8b c6	 mov	 r8d, esi
  00086	4c 89 74 24 20	 mov	 QWORD PTR [rsp+32], r14
  0008b	8b d5		 mov	 edx, ebp
  0008d	48 8b cb	 mov	 rcx, rbx
  00090	ff 90 80 01 00
	00		 call	 QWORD PTR [rax+384]

; 524  : }

  00096	48 8b 4c 24 50	 mov	 rcx, QWORD PTR __$ArrayPad$[rsp]
  0009b	48 33 cc	 xor	 rcx, rsp
  0009e	e8 00 00 00 00	 call	 __security_check_cookie
  000a3	48 83 c4 60	 add	 rsp, 96			; 00000060H
  000a7	41 5e		 pop	 r14
  000a9	5f		 pop	 rdi
  000aa	5e		 pop	 rsi
  000ab	5d		 pop	 rbp
  000ac	5b		 pop	 rbx
  000ad	c3		 ret	 0
?EventScrollWrapper@TWin@@UEAAHIHHPEAUHWND__@@@Z ENDP	; TWin::EventScrollWrapper
_TEXT	ENDS
; Function compile flags: /Ogtpy
; File f:\software1\\fastcopy\fastcopy325src\src\tlib\twin.cpp
;	COMDAT ?EventScroll@TWin@@UEAAHIHHPEAUHWND__@@@Z
_TEXT	SEGMENT
this$ = 8
uMsg$ = 16
nCode$ = 24
nPos$ = 32
scrollBar$ = 40
?EventScroll@TWin@@UEAAHIHHPEAUHWND__@@@Z PROC		; TWin::EventScroll, COMDAT

; 528  : 	scrollHack = FALSE;

  00000	c7 41 58 00 00
	00 00		 mov	 DWORD PTR [rcx+88], 0

; 529  : 	return	FALSE;

  00007	33 c0		 xor	 eax, eax

; 530  : }

  00009	c3		 ret	 0
?EventScroll@TWin@@UEAAHIHHPEAUHWND__@@@Z ENDP		; TWin::EventScroll
_TEXT	ENDS
; Function compile flags: /Ogtpy
; File f:\software1\\fastcopy\fastcopy325src\src\tlib\twin.cpp
;	COMDAT ?EventPrint@TWin@@UEAAHIPEAUHDC__@@K@Z
_TEXT	SEGMENT
this$ = 8
uMsg$ = 16
hDc$ = 24
opt$ = 32
?EventPrint@TWin@@UEAAHIPEAUHDC__@@K@Z PROC		; TWin::EventPrint, COMDAT

; 429  : 	return	FALSE;

  00000	33 c0		 xor	 eax, eax

; 430  : }

  00002	c3		 ret	 0
?EventPrint@TWin@@UEAAHIPEAUHDC__@@K@Z ENDP		; TWin::EventPrint
_TEXT	ENDS
; Function compile flags: /Ogtpy
; File f:\software1\\fastcopy\fastcopy325src\src\tlib\twin.cpp
;	COMDAT ?EventApp@TWin@@UEAAHI_K_J@Z
_TEXT	SEGMENT
this$ = 8
uMsg$ = 16
wParam$ = 24
lParam$ = 32
?EventApp@TWin@@UEAAHI_K_J@Z PROC			; TWin::EventApp, COMDAT

; 574  : 	return	FALSE;

  00000	33 c0		 xor	 eax, eax

; 575  : }

  00002	c3		 ret	 0
?EventApp@TWin@@UEAAHI_K_J@Z ENDP			; TWin::EventApp
_TEXT	ENDS
; Function compile flags: /Ogtpy
; File f:\software1\\fastcopy\fastcopy325src\src\tlib\twin.cpp
;	COMDAT ?EventUser@TWin@@UEAAHI_K_J@Z
_TEXT	SEGMENT
this$ = 8
uMsg$ = 16
wParam$ = 24
lParam$ = 32
?EventUser@TWin@@UEAAHI_K_J@Z PROC			; TWin::EventUser, COMDAT

; 579  : 	return	FALSE;

  00000	33 c0		 xor	 eax, eax

; 580  : }

  00002	c3		 ret	 0
?EventUser@TWin@@UEAAHI_K_J@Z ENDP			; TWin::EventUser
_TEXT	ENDS
; Function compile flags: /Ogtpy
; File f:\software1\\fastcopy\fastcopy325src\src\tlib\twin.cpp
;	COMDAT ?EventSystem@TWin@@UEAAHI_K_J@Z
_TEXT	SEGMENT
this$ = 8
uMsg$ = 16
wParam$ = 24
lParam$ = 32
?EventSystem@TWin@@UEAAHI_K_J@Z PROC			; TWin::EventSystem, COMDAT

; 584  : 	return	FALSE;

  00000	33 c0		 xor	 eax, eax

; 585  : }

  00002	c3		 ret	 0
?EventSystem@TWin@@UEAAHI_K_J@Z ENDP			; TWin::EventSystem
_TEXT	ENDS
; Function compile flags: /Ogtpy
; File f:\software1\\fastcopy\fastcopy325src\src\tlib\twin.cpp
;	COMDAT ?GetDlgItemTextA@TWin@@UEAAIHPEADH@Z
_TEXT	SEGMENT
this$ = 8
ctlId$ = 16
buf$ = 24
len$ = 32
?GetDlgItemTextA@TWin@@UEAAIHPEADH@Z PROC		; TWin::GetDlgItemTextA, COMDAT

; 589  : 	return	::GetDlgItemText(hWnd, ctlId, buf, len);

  00000	48 8b 49 60	 mov	 rcx, QWORD PTR [rcx+96]
  00004	48 ff 25 00 00
	00 00		 rex_jmp QWORD PTR __imp_GetDlgItemTextA
?GetDlgItemTextA@TWin@@UEAAIHPEADH@Z ENDP		; TWin::GetDlgItemTextA
_TEXT	ENDS
; Function compile flags: /Ogtpy
; File f:\software1\\fastcopy\fastcopy325src\src\tlib\twin.cpp
;	COMDAT ?GetDlgItemTextW@TWin@@UEAAIHPEA_WH@Z
_TEXT	SEGMENT
this$ = 8
ctlId$ = 16
buf$ = 24
len$ = 32
?GetDlgItemTextW@TWin@@UEAAIHPEA_WH@Z PROC		; TWin::GetDlgItemTextW, COMDAT

; 594  : 	return	::GetDlgItemTextW(hWnd, ctlId, buf, len);

  00000	48 8b 49 60	 mov	 rcx, QWORD PTR [rcx+96]
  00004	48 ff 25 00 00
	00 00		 rex_jmp QWORD PTR __imp_GetDlgItemTextW
?GetDlgItemTextW@TWin@@UEAAIHPEA_WH@Z ENDP		; TWin::GetDlgItemTextW
_TEXT	ENDS
; Function compile flags: /Ogtpy
; File f:\software1\\fastcopy\fastcopy325src\src\tlib\twin.cpp
; File f:\software1\\fastcopy\fastcopy325src\src\tlib\tapi32u8.h
; File f:\software1\\fastcopy\fastcopy325src\src\tlib\twin.cpp
; File f:\software1\\fastcopy\fastcopy325src\src\tlib\tapi32u8.h
; File f:\software1\\fastcopy\fastcopy325src\src\tlib\twin.cpp
; File f:\software1\\fastcopy\fastcopy325src\src\tlib\tapi32u8.h
; File f:\software1\\fastcopy\fastcopy325src\src\tlib\twin.cpp
; File f:\software1\\fastcopy\fastcopy325src\src\tlib\tapi32u8.h
; File f:\software1\\fastcopy\fastcopy325src\src\tlib\twin.cpp
;	COMDAT ?GetDlgItemTextU8@TWin@@UEAAIHPEADH@Z
_TEXT	SEGMENT
$T1 = 32
wbuf$ = 40
this$ = 96
ctlId$ = 104
buf$ = 112
len$ = 120
?GetDlgItemTextU8@TWin@@UEAAIHPEADH@Z PROC		; TWin::GetDlgItemTextU8, COMDAT

; 935  : {

$LN28:
  00000	40 57		 push	 rdi
  00002	41 56		 push	 r14
  00004	41 57		 push	 r15
  00006	48 83 ec 40	 sub	 rsp, 64			; 00000040H
  0000a	48 c7 44 24 20
	fe ff ff ff	 mov	 QWORD PTR $T1[rsp], -2
  00013	48 89 5c 24 60	 mov	 QWORD PTR [rsp+96], rbx
  00018	48 89 6c 24 68	 mov	 QWORD PTR [rsp+104], rbp
  0001d	48 89 74 24 70	 mov	 QWORD PTR [rsp+112], rsi
  00022	49 63 f9	 movsxd	 rdi, r9d
  00025	49 8b f0	 mov	 rsi, r8
  00028	8b ea		 mov	 ebp, edx
  0002a	4c 8b f1	 mov	 r14, rcx
; File f:\software1\\fastcopy\fastcopy325src\src\tlib\tapi32u8.h

; 105  : 		if (_len) {

  0002d	49 83 cf ff	 or	 r15, -1
  00031	45 85 c9	 test	 r9d, r9d
  00034	74 23		 je	 SHORT $LN9@GetDlgItem

; 106  : 			str = new WCHAR [_len];

  00036	b8 02 00 00 00	 mov	 eax, 2
  0003b	48 f7 e7	 mul	 rdi
  0003e	49 0f 40 c7	 cmovo	 rax, r15
  00042	48 8b c8	 mov	 rcx, rax
  00045	e8 00 00 00 00	 call	 ??_U@YAPEAX_K@Z		; operator new[]
  0004a	48 8b d8	 mov	 rbx, rax
  0004d	48 89 44 24 28	 mov	 QWORD PTR wbuf$[rsp], rax

; 107  : 			*str=0;

  00052	33 c0		 xor	 eax, eax
  00054	66 89 03	 mov	 WORD PTR [rbx], ax

; 108  : 		} else {

  00057	eb 09		 jmp	 SHORT $LN10@GetDlgItem
$LN9@GetDlgItem:

; 109  : 			str=NULL;

  00059	33 c0		 xor	 eax, eax
  0005b	8b d8		 mov	 ebx, eax
  0005d	48 89 44 24 28	 mov	 QWORD PTR wbuf$[rsp], rax
$LN10@GetDlgItem:
; File f:\software1\\fastcopy\fastcopy325src\src\tlib\twin.cpp

; 938  : 	*buf = 0;

  00062	c6 06 00	 mov	 BYTE PTR [rsi], 0
; File f:\software1\\fastcopy\fastcopy325src\src\tlib\tapi32u8.h

; 165  : 		len = -1;

  00065	44 89 7c 24 30	 mov	 DWORD PTR wbuf$[rsp+8], r15d
; File f:\software1\\fastcopy\fastcopy325src\src\tlib\twin.cpp

; 939  : 	GetDlgItemTextW(ctlId, wbuf.Buf(), len);

  0006a	49 8b 06	 mov	 rax, QWORD PTR [r14]
  0006d	44 8b cf	 mov	 r9d, edi
  00070	4c 8b c3	 mov	 r8, rbx
  00073	8b d5		 mov	 edx, ebp
  00075	49 8b ce	 mov	 rcx, r14
  00078	ff 90 b0 01 00
	00		 call	 QWORD PTR [rax+432]
; File f:\software1\\fastcopy\fastcopy325src\src\tlib\tapi32u8.h

; 172  : 		return str ? str : L"";

  0007e	48 8d 0d 00 00
	00 00		 lea	 rcx, OFFSET FLAT:??_C@_11LOCGONAA@?$AA?$AA@
  00085	48 85 db	 test	 rbx, rbx
  00088	48 0f 45 cb	 cmovne	 rcx, rbx
; File f:\software1\\fastcopy\fastcopy325src\src\tlib\twin.cpp

; 941  : 	return	WtoU8(wbuf.s(), buf, len);

  0008c	44 8b c7	 mov	 r8d, edi
  0008f	48 8b d6	 mov	 rdx, rsi
  00092	e8 00 00 00 00	 call	 ?WtoU8@@YAHPEB_WPEADHH@Z ; WtoU8
  00097	8b f8		 mov	 edi, eax
; File f:\software1\\fastcopy\fastcopy325src\src\tlib\tapi32u8.h

; 114  : 		if (str) {

  00099	48 85 db	 test	 rbx, rbx
  0009c	74 0a		 je	 SHORT $LN25@GetDlgItem

; 115  : 			delete [] str;

  0009e	48 8b cb	 mov	 rcx, rbx
  000a1	e8 00 00 00 00	 call	 ??_V@YAXPEAX@Z		; operator delete[]
; File f:\software1\\fastcopy\fastcopy325src\src\tlib\twin.cpp

; 941  : 	return	WtoU8(wbuf.s(), buf, len);

  000a6	8b c7		 mov	 eax, edi
$LN25@GetDlgItem:

; 942  : }

  000a8	48 8b 5c 24 60	 mov	 rbx, QWORD PTR [rsp+96]
  000ad	48 8b 6c 24 68	 mov	 rbp, QWORD PTR [rsp+104]
  000b2	48 8b 74 24 70	 mov	 rsi, QWORD PTR [rsp+112]
  000b7	48 83 c4 40	 add	 rsp, 64			; 00000040H
  000bb	41 5f		 pop	 r15
  000bd	41 5e		 pop	 r14
  000bf	5f		 pop	 rdi
  000c0	c3		 ret	 0
?GetDlgItemTextU8@TWin@@UEAAIHPEADH@Z ENDP		; TWin::GetDlgItemTextU8
_TEXT	ENDS
;	COMDAT text$x
text$x	SEGMENT
$T1 = 32
wbuf$ = 40
this$ = 96
ctlId$ = 104
buf$ = 112
len$ = 120
?dtor$0@?0??GetDlgItemTextU8@TWin@@UEAAIHPEADH@Z@4HA PROC ; `TWin::GetDlgItemTextU8'::`1'::dtor$0
  00000	48 8d 8a 28 00
	00 00		 lea	 rcx, QWORD PTR wbuf$[rdx]
  00007	e9 00 00 00 00	 jmp	 ??1Wstr@@QEAA@XZ	; Wstr::~Wstr
?dtor$0@?0??GetDlgItemTextU8@TWin@@UEAAIHPEADH@Z@4HA ENDP ; `TWin::GetDlgItemTextU8'::`1'::dtor$0
text$x	ENDS
; Function compile flags: /Ogtpy
;	COMDAT text$x
text$x	SEGMENT
$T1 = 32
wbuf$ = 40
this$ = 96
ctlId$ = 104
buf$ = 112
len$ = 120
?dtor$0@?0??GetDlgItemTextU8@TWin@@UEAAIHPEADH@Z@4HA PROC ; `TWin::GetDlgItemTextU8'::`1'::dtor$0
  00000	48 8d 8a 28 00
	00 00		 lea	 rcx, QWORD PTR wbuf$[rdx]
  00007	e9 00 00 00 00	 jmp	 ??1Wstr@@QEAA@XZ	; Wstr::~Wstr
?dtor$0@?0??GetDlgItemTextU8@TWin@@UEAAIHPEADH@Z@4HA ENDP ; `TWin::GetDlgItemTextU8'::`1'::dtor$0
text$x	ENDS
; Function compile flags: /Ogtpy
; File f:\software1\\fastcopy\fastcopy325src\src\tlib\twin.cpp
;	COMDAT ?SetDlgItemTextA@TWin@@UEAAHHPEBD@Z
_TEXT	SEGMENT
this$ = 8
ctlId$ = 16
buf$ = 24
?SetDlgItemTextA@TWin@@UEAAHHPEBD@Z PROC		; TWin::SetDlgItemTextA, COMDAT

; 599  : 	return	::SetDlgItemText(hWnd, ctlId, buf);

  00000	48 8b 49 60	 mov	 rcx, QWORD PTR [rcx+96]
  00004	48 ff 25 00 00
	00 00		 rex_jmp QWORD PTR __imp_SetDlgItemTextA
?SetDlgItemTextA@TWin@@UEAAHHPEBD@Z ENDP		; TWin::SetDlgItemTextA
_TEXT	ENDS
; Function compile flags: /Ogtpy
; File f:\software1\\fastcopy\fastcopy325src\src\tlib\twin.cpp
;	COMDAT ?SetDlgItemTextW@TWin@@UEAAHHPEB_W@Z
_TEXT	SEGMENT
this$ = 8
ctlId$ = 16
buf$ = 24
?SetDlgItemTextW@TWin@@UEAAHHPEB_W@Z PROC		; TWin::SetDlgItemTextW, COMDAT

; 604  : 	return	::SetDlgItemTextW(hWnd, ctlId, buf);

  00000	48 8b 49 60	 mov	 rcx, QWORD PTR [rcx+96]
  00004	48 ff 25 00 00
	00 00		 rex_jmp QWORD PTR __imp_SetDlgItemTextW
?SetDlgItemTextW@TWin@@UEAAHHPEB_W@Z ENDP		; TWin::SetDlgItemTextW
_TEXT	ENDS
; Function compile flags: /Ogtpy
; File f:\software1\\fastcopy\fastcopy325src\src\tlib\twin.cpp
; File f:\software1\\fastcopy\fastcopy325src\src\tlib\tapi32u8.h
; File f:\software1\\fastcopy\fastcopy325src\src\tlib\twin.cpp
; File f:\software1\\fastcopy\fastcopy325src\src\tlib\tapi32u8.h
; File f:\software1\\fastcopy\fastcopy325src\src\tlib\twin.cpp
;	COMDAT ?SetDlgItemTextU8@TWin@@UEAAHHPEBD@Z
_TEXT	SEGMENT
this$ = 48
ctlId$ = 56
buf$ = 64
?SetDlgItemTextU8@TWin@@UEAAHHPEBD@Z PROC		; TWin::SetDlgItemTextU8, COMDAT

; 945  : {

$LN29:
  00000	48 89 5c 24 08	 mov	 QWORD PTR [rsp+8], rbx
  00005	48 89 74 24 10	 mov	 QWORD PTR [rsp+16], rsi
  0000a	57		 push	 rdi
  0000b	48 83 ec 20	 sub	 rsp, 32			; 00000020H
  0000f	8b fa		 mov	 edi, edx
  00011	48 8b f1	 mov	 rsi, rcx
; File f:\software1\\fastcopy\fastcopy325src\src\tlib\tapi32u8.h

; 100  : 		str = _str ? mode == BY_UTF8 ? U8toW(_str) : AtoW(_str) : NULL;

  00014	4d 85 c0	 test	 r8, r8
  00017	74 15		 je	 SHORT $LN12@SetDlgItem
  00019	49 8b c8	 mov	 rcx, r8
  0001c	e8 00 00 00 00	 call	 ?U8toW@@YAPEA_WPEBDH@Z	; U8toW
  00021	48 8b d8	 mov	 rbx, rax

; 172  : 		return str ? str : L"";

  00024	48 85 c0	 test	 rax, rax
  00027	74 07		 je	 SHORT $LN19@SetDlgItem
  00029	4c 8b c0	 mov	 r8, rax
  0002c	eb 09		 jmp	 SHORT $LN20@SetDlgItem
$LN12@SetDlgItem:

; 100  : 		str = _str ? mode == BY_UTF8 ? U8toW(_str) : AtoW(_str) : NULL;

  0002e	33 db		 xor	 ebx, ebx
$LN19@SetDlgItem:

; 172  : 		return str ? str : L"";

  00030	4c 8d 05 00 00
	00 00		 lea	 r8, OFFSET FLAT:??_C@_11LOCGONAA@?$AA?$AA@
$LN20@SetDlgItem:
; File f:\software1\\fastcopy\fastcopy325src\src\tlib\twin.cpp

; 948  : 	return	::SetDlgItemTextW(hWnd, ctlId, wbuf.s());

  00037	48 8b 4e 60	 mov	 rcx, QWORD PTR [rsi+96]
  0003b	8b d7		 mov	 edx, edi
  0003d	ff 15 00 00 00
	00		 call	 QWORD PTR __imp_SetDlgItemTextW
  00043	8b f8		 mov	 edi, eax
; File f:\software1\\fastcopy\fastcopy325src\src\tlib\tapi32u8.h

; 114  : 		if (str) {

  00045	48 85 db	 test	 rbx, rbx
  00048	74 0a		 je	 SHORT $LN25@SetDlgItem

; 115  : 			delete [] str;

  0004a	48 8b cb	 mov	 rcx, rbx
  0004d	e8 00 00 00 00	 call	 ??_V@YAXPEAX@Z		; operator delete[]
; File f:\software1\\fastcopy\fastcopy325src\src\tlib\twin.cpp

; 948  : 	return	::SetDlgItemTextW(hWnd, ctlId, wbuf.s());

  00052	8b c7		 mov	 eax, edi
$LN25@SetDlgItem:

; 949  : }

  00054	48 8b 5c 24 30	 mov	 rbx, QWORD PTR [rsp+48]
  00059	48 8b 74 24 38	 mov	 rsi, QWORD PTR [rsp+56]
  0005e	48 83 c4 20	 add	 rsp, 32			; 00000020H
  00062	5f		 pop	 rdi
  00063	c3		 ret	 0
?SetDlgItemTextU8@TWin@@UEAAHHPEBD@Z ENDP		; TWin::SetDlgItemTextU8
_TEXT	ENDS
; Function compile flags: /Ogtpy
; File f:\software1\\fastcopy\fastcopy325src\src\tlib\twin.cpp
;	COMDAT ?GetDlgItemInt@TWin@@UEAAHHPEAHH@Z
_TEXT	SEGMENT
this$ = 8
ctlId$ = 16
err$ = 24
sign$ = 32
?GetDlgItemInt@TWin@@UEAAHHPEAHH@Z PROC			; TWin::GetDlgItemInt, COMDAT

; 609  : 	return	(int)::GetDlgItemInt(hWnd, ctlId, err, sign);

  00000	48 8b 49 60	 mov	 rcx, QWORD PTR [rcx+96]
  00004	48 ff 25 00 00
	00 00		 rex_jmp QWORD PTR __imp_GetDlgItemInt
?GetDlgItemInt@TWin@@UEAAHHPEAHH@Z ENDP			; TWin::GetDlgItemInt
_TEXT	ENDS
; Function compile flags: /Ogtpy
; File f:\software1\\fastcopy\fastcopy325src\src\tlib\twin.cpp
;	COMDAT ?SetDlgItemInt@TWin@@UEAAHHHH@Z
_TEXT	SEGMENT
this$ = 8
ctlId$ = 16
val$ = 24
sign$ = 32
?SetDlgItemInt@TWin@@UEAAHHHH@Z PROC			; TWin::SetDlgItemInt, COMDAT

; 614  : 	return	::SetDlgItemInt(hWnd, ctlId, val, sign);

  00000	48 8b 49 60	 mov	 rcx, QWORD PTR [rcx+96]
  00004	48 ff 25 00 00
	00 00		 rex_jmp QWORD PTR __imp_SetDlgItemInt
?SetDlgItemInt@TWin@@UEAAHHHH@Z ENDP			; TWin::SetDlgItemInt
_TEXT	ENDS
; Function compile flags: /Ogtpy
; File f:\software1\\fastcopy\fastcopy325src\src\tlib\twin.cpp
;	COMDAT ?GetDlgItem@TWin@@UEAAPEAUHWND__@@H@Z
_TEXT	SEGMENT
this$ = 8
ctlId$ = 16
?GetDlgItem@TWin@@UEAAPEAUHWND__@@H@Z PROC		; TWin::GetDlgItem, COMDAT

; 619  : 	return	::GetDlgItem(hWnd, ctlId);

  00000	48 8b 49 60	 mov	 rcx, QWORD PTR [rcx+96]
  00004	48 ff 25 00 00
	00 00		 rex_jmp QWORD PTR __imp_GetDlgItem
?GetDlgItem@TWin@@UEAAPEAUHWND__@@H@Z ENDP		; TWin::GetDlgItem
_TEXT	ENDS
; Function compile flags: /Ogtpy
; File f:\software1\\fastcopy\fastcopy325src\src\tlib\twin.cpp
;	COMDAT ?CheckDlgButton@TWin@@UEAAHHI@Z
_TEXT	SEGMENT
this$ = 8
ctlId$ = 16
check$ = 24
?CheckDlgButton@TWin@@UEAAHHI@Z PROC			; TWin::CheckDlgButton, COMDAT

; 624  : 	return	::CheckDlgButton(hWnd, ctlId, check);

  00000	48 8b 49 60	 mov	 rcx, QWORD PTR [rcx+96]
  00004	48 ff 25 00 00
	00 00		 rex_jmp QWORD PTR __imp_CheckDlgButton
?CheckDlgButton@TWin@@UEAAHHI@Z ENDP			; TWin::CheckDlgButton
_TEXT	ENDS
; Function compile flags: /Ogtpy
; File f:\software1\\fastcopy\fastcopy325src\src\tlib\twin.cpp
;	COMDAT ?IsDlgButtonChecked@TWin@@UEAAIH@Z
_TEXT	SEGMENT
this$ = 8
ctlId$ = 16
?IsDlgButtonChecked@TWin@@UEAAIH@Z PROC			; TWin::IsDlgButtonChecked, COMDAT

; 629  : 	return	::IsDlgButtonChecked(hWnd, ctlId);

  00000	48 8b 49 60	 mov	 rcx, QWORD PTR [rcx+96]
  00004	48 ff 25 00 00
	00 00		 rex_jmp QWORD PTR __imp_IsDlgButtonChecked
?IsDlgButtonChecked@TWin@@UEAAIH@Z ENDP			; TWin::IsDlgButtonChecked
_TEXT	ENDS
; Function compile flags: /Ogtpy
; File f:\software1\\fastcopy\fastcopy325src\src\tlib\twin.cpp
;	COMDAT ?IsWindowVisible@TWin@@UEAAHXZ
_TEXT	SEGMENT
this$ = 8
?IsWindowVisible@TWin@@UEAAHXZ PROC			; TWin::IsWindowVisible, COMDAT

; 634  : 	return	::IsWindowVisible(hWnd);

  00000	48 8b 49 60	 mov	 rcx, QWORD PTR [rcx+96]
  00004	48 ff 25 00 00
	00 00		 rex_jmp QWORD PTR __imp_IsWindowVisible
?IsWindowVisible@TWin@@UEAAHXZ ENDP			; TWin::IsWindowVisible
_TEXT	ENDS
; Function compile flags: /Ogtpy
; File f:\software1\\fastcopy\fastcopy325src\src\tlib\twin.cpp
;	COMDAT ?EnableWindow@TWin@@UEAAHH@Z
_TEXT	SEGMENT
this$ = 8
is_enable$ = 16
?EnableWindow@TWin@@UEAAHH@Z PROC			; TWin::EnableWindow, COMDAT

; 639  : 	return	::EnableWindow(hWnd, is_enable);

  00000	48 8b 49 60	 mov	 rcx, QWORD PTR [rcx+96]
  00004	48 ff 25 00 00
	00 00		 rex_jmp QWORD PTR __imp_EnableWindow
?EnableWindow@TWin@@UEAAHH@Z ENDP			; TWin::EnableWindow
_TEXT	ENDS
; Function compile flags: /Ogtpy
; File f:\software1\\fastcopy\fastcopy325src\src\tlib\twin.cpp
;	COMDAT ?MessageBoxA@TWin@@UEAAHPEBD0I@Z
_TEXT	SEGMENT
this$ = 48
msg$ = 56
title$ = 64
style$ = 72
?MessageBoxA@TWin@@UEAAHPEBD0I@Z PROC			; TWin::MessageBoxA, COMDAT

; 643  : {

$LN4:
  00000	40 53		 push	 rbx
  00002	48 83 ec 20	 sub	 rsp, 32			; 00000020H

; 644  : 	modalCount++;

  00006	ff 41 70	 inc	 DWORD PTR [rcx+112]
  00009	48 8b d9	 mov	 rbx, rcx

; 645  : 	int ret = ::MessageBox(hWnd, msg, title, style);

  0000c	48 8b 49 60	 mov	 rcx, QWORD PTR [rcx+96]
  00010	ff 15 00 00 00
	00		 call	 QWORD PTR __imp_MessageBoxA

; 646  : 	modalCount--;

  00016	ff 4b 70	 dec	 DWORD PTR [rbx+112]

; 647  : 
; 648  : 	return	ret;
; 649  : }

  00019	48 83 c4 20	 add	 rsp, 32			; 00000020H
  0001d	5b		 pop	 rbx
  0001e	c3		 ret	 0
?MessageBoxA@TWin@@UEAAHPEBD0I@Z ENDP			; TWin::MessageBoxA
_TEXT	ENDS
; Function compile flags: /Ogtpy
; File f:\software1\\fastcopy\fastcopy325src\src\tlib\twin.cpp
;	COMDAT ?MessageBoxW@TWin@@UEAAHPEB_W0I@Z
_TEXT	SEGMENT
this$ = 48
msg$ = 56
title$ = 64
style$ = 72
?MessageBoxW@TWin@@UEAAHPEB_W0I@Z PROC			; TWin::MessageBoxW, COMDAT

; 652  : {

$LN4:
  00000	40 53		 push	 rbx
  00002	48 83 ec 20	 sub	 rsp, 32			; 00000020H

; 653  : 	modalCount++;

  00006	ff 41 70	 inc	 DWORD PTR [rcx+112]
  00009	48 8b d9	 mov	 rbx, rcx

; 654  : 	int ret = ::MessageBoxW(hWnd, msg, title, style);

  0000c	48 8b 49 60	 mov	 rcx, QWORD PTR [rcx+96]
  00010	ff 15 00 00 00
	00		 call	 QWORD PTR __imp_MessageBoxW

; 655  : 	modalCount--;

  00016	ff 4b 70	 dec	 DWORD PTR [rbx+112]

; 656  : 
; 657  : 	return	ret;
; 658  : }

  00019	48 83 c4 20	 add	 rsp, 32			; 00000020H
  0001d	5b		 pop	 rbx
  0001e	c3		 ret	 0
?MessageBoxW@TWin@@UEAAHPEB_W0I@Z ENDP			; TWin::MessageBoxW
_TEXT	ENDS
; Function compile flags: /Ogtpy
; File f:\software1\\fastcopy\fastcopy325src\src\tlib\twin.cpp
; File f:\software1\\fastcopy\fastcopy325src\src\tlib\tapi32u8.h
; File f:\software1\\fastcopy\fastcopy325src\src\tlib\twin.cpp
; File f:\software1\\fastcopy\fastcopy325src\src\tlib\tapi32u8.h
; File f:\software1\\fastcopy\fastcopy325src\src\tlib\twin.cpp
;	COMDAT ?MessageBoxU8@TWin@@UEAAHPEBD0I@Z
_TEXT	SEGMENT
$T1 = 32
wmsg$ = 40
wtitle$ = 56
this$ = 96
msg$ = 104
title$ = 112
style$ = 120
?MessageBoxU8@TWin@@UEAAHPEBD0I@Z PROC			; TWin::MessageBoxU8, COMDAT

; 952  : {

$LN52:
  00000	41 56		 push	 r14
  00002	48 83 ec 50	 sub	 rsp, 80			; 00000050H
  00006	48 c7 44 24 20
	fe ff ff ff	 mov	 QWORD PTR $T1[rsp], -2
  0000f	48 89 5c 24 60	 mov	 QWORD PTR [rsp+96], rbx
  00014	48 89 6c 24 68	 mov	 QWORD PTR [rsp+104], rbp
  00019	48 89 74 24 70	 mov	 QWORD PTR [rsp+112], rsi
  0001e	48 89 7c 24 78	 mov	 QWORD PTR [rsp+120], rdi
  00023	41 8b e9	 mov	 ebp, r9d
  00026	49 8b f0	 mov	 rsi, r8
  00029	4c 8b f1	 mov	 r14, rcx
; File f:\software1\\fastcopy\fastcopy325src\src\tlib\tapi32u8.h

; 100  : 		str = _str ? mode == BY_UTF8 ? U8toW(_str) : AtoW(_str) : NULL;

  0002c	33 ff		 xor	 edi, edi
  0002e	48 85 d2	 test	 rdx, rdx
  00031	74 12		 je	 SHORT $LN13@MessageBox
  00033	48 8b ca	 mov	 rcx, rdx
  00036	e8 00 00 00 00	 call	 ?U8toW@@YAPEA_WPEBDH@Z	; U8toW
  0003b	48 8b d8	 mov	 rbx, rax
  0003e	48 89 44 24 28	 mov	 QWORD PTR wmsg$[rsp], rax
  00043	eb 08		 jmp	 SHORT $LN14@MessageBox
$LN13@MessageBox:
  00045	48 8b df	 mov	 rbx, rdi
  00048	48 89 5c 24 28	 mov	 QWORD PTR wmsg$[rsp], rbx
$LN14@MessageBox:

; 101  : 		len = -1;

  0004d	c7 44 24 30 ff
	ff ff ff	 mov	 DWORD PTR wmsg$[rsp+8], -1

; 100  : 		str = _str ? mode == BY_UTF8 ? U8toW(_str) : AtoW(_str) : NULL;

  00055	48 85 f6	 test	 rsi, rsi
  00058	74 12		 je	 SHORT $LN26@MessageBox
  0005a	48 8b ce	 mov	 rcx, rsi
  0005d	e8 00 00 00 00	 call	 ?U8toW@@YAPEA_WPEBDH@Z	; U8toW
  00062	48 8b f8	 mov	 rdi, rax
  00065	48 89 44 24 38	 mov	 QWORD PTR wtitle$[rsp], rax
  0006a	eb 05		 jmp	 SHORT $LN27@MessageBox
$LN26@MessageBox:
  0006c	48 89 7c 24 38	 mov	 QWORD PTR wtitle$[rsp], rdi
$LN27@MessageBox:

; 101  : 		len = -1;

  00071	c7 44 24 40 ff
	ff ff ff	 mov	 DWORD PTR wtitle$[rsp+8], -1

; 172  : 		return str ? str : L"";

  00079	48 8d 15 00 00
	00 00		 lea	 rdx, OFFSET FLAT:??_C@_11LOCGONAA@?$AA?$AA@
  00080	4c 8b c2	 mov	 r8, rdx
  00083	48 85 ff	 test	 rdi, rdi
  00086	4c 0f 45 c7	 cmovne	 r8, rdi
  0008a	48 85 db	 test	 rbx, rbx
  0008d	48 0f 45 d3	 cmovne	 rdx, rbx
; File f:\software1\\fastcopy\fastcopy325src\src\tlib\twin.cpp

; 957  : 	return	MessageBoxW(wmsg.s(), wtitle.s(), style);

  00091	49 8b 06	 mov	 rax, QWORD PTR [r14]
  00094	44 8b cd	 mov	 r9d, ebp
  00097	49 8b ce	 mov	 rcx, r14
  0009a	ff 90 18 02 00
	00		 call	 QWORD PTR [rax+536]
  000a0	8b f0		 mov	 esi, eax
; File f:\software1\\fastcopy\fastcopy325src\src\tlib\tapi32u8.h

; 114  : 		if (str) {

  000a2	48 85 ff	 test	 rdi, rdi
  000a5	74 09		 je	 SHORT $LN43@MessageBox

; 115  : 			delete [] str;

  000a7	48 8b cf	 mov	 rcx, rdi
  000aa	e8 00 00 00 00	 call	 ??_V@YAXPEAX@Z		; operator delete[]
  000af	90		 npad	 1
$LN43@MessageBox:

; 114  : 		if (str) {

  000b0	48 85 db	 test	 rbx, rbx
  000b3	74 08		 je	 SHORT $LN51@MessageBox

; 115  : 			delete [] str;

  000b5	48 8b cb	 mov	 rcx, rbx
  000b8	e8 00 00 00 00	 call	 ??_V@YAXPEAX@Z		; operator delete[]
$LN51@MessageBox:
; File f:\software1\\fastcopy\fastcopy325src\src\tlib\twin.cpp

; 957  : 	return	MessageBoxW(wmsg.s(), wtitle.s(), style);

  000bd	8b c6		 mov	 eax, esi

; 958  : }

  000bf	48 8b 5c 24 60	 mov	 rbx, QWORD PTR [rsp+96]
  000c4	48 8b 6c 24 68	 mov	 rbp, QWORD PTR [rsp+104]
  000c9	48 8b 74 24 70	 mov	 rsi, QWORD PTR [rsp+112]
  000ce	48 8b 7c 24 78	 mov	 rdi, QWORD PTR [rsp+120]
  000d3	48 83 c4 50	 add	 rsp, 80			; 00000050H
  000d7	41 5e		 pop	 r14
  000d9	c3		 ret	 0
?MessageBoxU8@TWin@@UEAAHPEBD0I@Z ENDP			; TWin::MessageBoxU8
_TEXT	ENDS
;	COMDAT text$x
text$x	SEGMENT
$T1 = 32
wmsg$ = 40
wtitle$ = 56
this$ = 96
msg$ = 104
title$ = 112
style$ = 120
?dtor$0@?0??MessageBoxU8@TWin@@UEAAHPEBD0I@Z@4HA PROC	; `TWin::MessageBoxU8'::`1'::dtor$0
  00000	48 8d 8a 28 00
	00 00		 lea	 rcx, QWORD PTR wmsg$[rdx]
  00007	e9 00 00 00 00	 jmp	 ??1Wstr@@QEAA@XZ	; Wstr::~Wstr
?dtor$0@?0??MessageBoxU8@TWin@@UEAAHPEBD0I@Z@4HA ENDP	; `TWin::MessageBoxU8'::`1'::dtor$0
$T1 = 32
wmsg$ = 40
wtitle$ = 56
this$ = 96
msg$ = 104
title$ = 112
style$ = 120
?dtor$1@?0??MessageBoxU8@TWin@@UEAAHPEBD0I@Z@4HA PROC	; `TWin::MessageBoxU8'::`1'::dtor$1
  0000c	48 8d 8a 38 00
	00 00		 lea	 rcx, QWORD PTR wtitle$[rdx]
  00013	e9 00 00 00 00	 jmp	 ??1Wstr@@QEAA@XZ	; Wstr::~Wstr
?dtor$1@?0??MessageBoxU8@TWin@@UEAAHPEBD0I@Z@4HA ENDP	; `TWin::MessageBoxU8'::`1'::dtor$1
text$x	ENDS
; Function compile flags: /Ogtpy
;	COMDAT text$x
text$x	SEGMENT
$T1 = 32
wmsg$ = 40
wtitle$ = 56
this$ = 96
msg$ = 104
title$ = 112
style$ = 120
?dtor$0@?0??MessageBoxU8@TWin@@UEAAHPEBD0I@Z@4HA PROC	; `TWin::MessageBoxU8'::`1'::dtor$0
  00000	48 8d 8a 28 00
	00 00		 lea	 rcx, QWORD PTR wmsg$[rdx]
  00007	e9 00 00 00 00	 jmp	 ??1Wstr@@QEAA@XZ	; Wstr::~Wstr
?dtor$0@?0??MessageBoxU8@TWin@@UEAAHPEBD0I@Z@4HA ENDP	; `TWin::MessageBoxU8'::`1'::dtor$0
text$x	ENDS
; Function compile flags: /Ogtpy
;	COMDAT text$x
text$x	SEGMENT
$T1 = 32
wmsg$ = 40
wtitle$ = 56
this$ = 96
msg$ = 104
title$ = 112
style$ = 120
?dtor$1@?0??MessageBoxU8@TWin@@UEAAHPEBD0I@Z@4HA PROC	; `TWin::MessageBoxU8'::`1'::dtor$1
  0000c	48 8d 8a 38 00
	00 00		 lea	 rcx, QWORD PTR wtitle$[rdx]
  00013	e9 00 00 00 00	 jmp	 ??1Wstr@@QEAA@XZ	; Wstr::~Wstr
?dtor$1@?0??MessageBoxU8@TWin@@UEAAHPEBD0I@Z@4HA ENDP	; `TWin::MessageBoxU8'::`1'::dtor$1
text$x	ENDS
; Function compile flags: /Ogtpy
; File f:\software1\\fastcopy\fastcopy325src\src\tlib\twin.cpp
;	COMDAT ?BringWindowToTop@TWin@@UEAAHXZ
_TEXT	SEGMENT
this$ = 8
?BringWindowToTop@TWin@@UEAAHXZ PROC			; TWin::BringWindowToTop, COMDAT

; 662  : 	if (!hWnd) {

  00000	48 8b 49 60	 mov	 rcx, QWORD PTR [rcx+96]
  00004	48 85 c9	 test	 rcx, rcx
  00007	75 03		 jne	 SHORT $LN2@BringWindo

; 663  : 		return	FALSE;

  00009	33 c0		 xor	 eax, eax

; 666  : }

  0000b	c3		 ret	 0
$LN2@BringWindo:

; 664  : 	}
; 665  : 	return	::BringWindowToTop(hWnd);

  0000c	48 ff 25 00 00
	00 00		 rex_jmp QWORD PTR __imp_BringWindowToTop
?BringWindowToTop@TWin@@UEAAHXZ ENDP			; TWin::BringWindowToTop
_TEXT	ENDS
; Function compile flags: /Ogtpy
; File f:\software1\\fastcopy\fastcopy325src\src\tlib\twin.cpp
;	COMDAT ?SetForegroundWindow@TWin@@UEAAHXZ
_TEXT	SEGMENT
this$ = 8
?SetForegroundWindow@TWin@@UEAAHXZ PROC			; TWin::SetForegroundWindow, COMDAT

; 738  : 	if (!hWnd) {

  00000	48 8b 49 60	 mov	 rcx, QWORD PTR [rcx+96]
  00004	48 85 c9	 test	 rcx, rcx
  00007	75 03		 jne	 SHORT $LN2@SetForegro

; 739  : 		return	FALSE;

  00009	33 c0		 xor	 eax, eax

; 742  : }

  0000b	c3		 ret	 0
$LN2@SetForegro:

; 740  : 	}
; 741  : 	return	::SetForegroundWindow(hWnd);

  0000c	48 ff 25 00 00
	00 00		 rex_jmp QWORD PTR __imp_SetForegroundWindow
?SetForegroundWindow@TWin@@UEAAHXZ ENDP			; TWin::SetForegroundWindow
_TEXT	ENDS
; Function compile flags: /Ogtpy
; File f:\software1\\fastcopy\fastcopy325src\src\tlib\twin.cpp
;	COMDAT ?SetForceForegroundWindow@TWin@@UEAAHXZ
_TEXT	SEGMENT
svTmOut$ = 48
this$ = 48
?SetForceForegroundWindow@TWin@@UEAAHXZ PROC		; TWin::SetForceForegroundWindow, COMDAT

; 745  : {

$LN8:
  00000	40 56		 push	 rsi
  00002	48 83 ec 20	 sub	 rsp, 32			; 00000020H
  00006	48 8b f1	 mov	 rsi, rcx

; 746  : 	if (!hWnd) {

  00009	48 8b 49 60	 mov	 rcx, QWORD PTR [rcx+96]
  0000d	48 85 c9	 test	 rcx, rcx
  00010	75 08		 jne	 SHORT $LN2@SetForceFo

; 747  : 		return	FALSE;

  00012	33 c0		 xor	 eax, eax

; 767  : }

  00014	48 83 c4 20	 add	 rsp, 32			; 00000020H
  00018	5e		 pop	 rsi
  00019	c3		 ret	 0
$LN2@SetForceFo:

; 748  : 	}
; 749  : 	DWORD	foreId, targId, svTmOut;
; 750  : 
; 751  : 	if (IsWinVista()) {

  0001a	8b 05 00 00 00
	00		 mov	 eax, DWORD PTR ?TWinVersion@@3KA ; TWinVersion
  00020	48 89 5c 24 38	 mov	 QWORD PTR [rsp+56], rbx
  00025	48 89 7c 24 40	 mov	 QWORD PTR [rsp+64], rdi
  0002a	3c 06		 cmp	 al, 6
  0002c	72 0c		 jb	 SHORT $LN3@SetForceFo
  0002e	3d 00 00 00 80	 cmp	 eax, -2147483648	; 80000000H
  00033	73 05		 jae	 SHORT $LN3@SetForceFo

; 752  : 		TSwitchToThisWindow(hWnd, TRUE);

  00035	e8 00 00 00 00	 call	 ?TSwitchToThisWindow@@YAXPEAUHWND__@@H@Z ; TSwitchToThisWindow
$LN3@SetForceFo:

; 753  : 	}
; 754  : 
; 755  : 	foreId = ::GetWindowThreadProcessId(::GetForegroundWindow(), NULL);

  0003a	ff 15 00 00 00
	00		 call	 QWORD PTR __imp_GetForegroundWindow
  00040	48 8b c8	 mov	 rcx, rax
  00043	33 d2		 xor	 edx, edx
  00045	ff 15 00 00 00
	00		 call	 QWORD PTR __imp_GetWindowThreadProcessId

; 756  : 	targId = ::GetWindowThreadProcessId(hWnd, NULL);

  0004b	48 8b 4e 60	 mov	 rcx, QWORD PTR [rsi+96]
  0004f	33 d2		 xor	 edx, edx
  00051	8b d8		 mov	 ebx, eax
  00053	ff 15 00 00 00
	00		 call	 QWORD PTR __imp_GetWindowThreadProcessId
  00059	8b f8		 mov	 edi, eax

; 757  : 	if (foreId != targId)

  0005b	3b d8		 cmp	 ebx, eax
  0005d	74 10		 je	 SHORT $LN4@SetForceFo

; 758  : 		::AttachThreadInput(targId, foreId, TRUE);

  0005f	41 b8 01 00 00
	00		 mov	 r8d, 1
  00065	8b d3		 mov	 edx, ebx
  00067	8b c8		 mov	 ecx, eax
  00069	ff 15 00 00 00
	00		 call	 QWORD PTR __imp_AttachThreadInput
$LN4@SetForceFo:

; 759  : 	::SystemParametersInfo(SPI_GETFOREGROUNDLOCKTIMEOUT, 0, (void *)&svTmOut, 0);

  0006f	45 33 c9	 xor	 r9d, r9d
  00072	4c 8d 44 24 30	 lea	 r8, QWORD PTR svTmOut$[rsp]
  00077	33 d2		 xor	 edx, edx
  00079	b9 00 20 00 00	 mov	 ecx, 8192		; 00002000H
  0007e	ff 15 00 00 00
	00		 call	 QWORD PTR __imp_SystemParametersInfoA

; 760  : 	::SystemParametersInfo(SPI_SETFOREGROUNDLOCKTIMEOUT, 0, 0, 0);

  00084	45 33 c9	 xor	 r9d, r9d
  00087	45 33 c0	 xor	 r8d, r8d
  0008a	33 d2		 xor	 edx, edx
  0008c	b9 01 20 00 00	 mov	 ecx, 8193		; 00002001H
  00091	ff 15 00 00 00
	00		 call	 QWORD PTR __imp_SystemParametersInfoA

; 761  : 	BOOL	ret = ::SetForegroundWindow(hWnd);

  00097	48 8b 4e 60	 mov	 rcx, QWORD PTR [rsi+96]
  0009b	ff 15 00 00 00
	00		 call	 QWORD PTR __imp_SetForegroundWindow

; 762  : 	::SystemParametersInfo(SPI_SETFOREGROUNDLOCKTIMEOUT, 0, (void *)(DWORD_PTR)svTmOut, 0);

  000a1	44 8b 44 24 30	 mov	 r8d, DWORD PTR svTmOut$[rsp]
  000a6	45 33 c9	 xor	 r9d, r9d
  000a9	33 d2		 xor	 edx, edx
  000ab	b9 01 20 00 00	 mov	 ecx, 8193		; 00002001H
  000b0	8b f0		 mov	 esi, eax
  000b2	ff 15 00 00 00
	00		 call	 QWORD PTR __imp_SystemParametersInfoA

; 763  : 	if (foreId != targId)

  000b8	3b df		 cmp	 ebx, edi
  000ba	74 0d		 je	 SHORT $LN5@SetForceFo

; 764  : 		::AttachThreadInput(targId, foreId, FALSE);

  000bc	45 33 c0	 xor	 r8d, r8d
  000bf	8b d3		 mov	 edx, ebx
  000c1	8b cf		 mov	 ecx, edi
  000c3	ff 15 00 00 00
	00		 call	 QWORD PTR __imp_AttachThreadInput
$LN5@SetForceFo:

; 765  : 
; 766  : 	return	ret;

  000c9	48 8b 7c 24 40	 mov	 rdi, QWORD PTR [rsp+64]
  000ce	8b c6		 mov	 eax, esi
  000d0	48 8b 5c 24 38	 mov	 rbx, QWORD PTR [rsp+56]

; 767  : }

  000d5	48 83 c4 20	 add	 rsp, 32			; 00000020H
  000d9	5e		 pop	 rsi
  000da	c3		 ret	 0
?SetForceForegroundWindow@TWin@@UEAAHXZ ENDP		; TWin::SetForceForegroundWindow
_TEXT	ENDS
; Function compile flags: /Ogtpy
; File f:\software1\\fastcopy\fastcopy325src\src\tlib\twin.cpp
;	COMDAT ?ShowWindow@TWin@@UEAAHH@Z
_TEXT	SEGMENT
this$ = 8
mode$ = 16
?ShowWindow@TWin@@UEAAHH@Z PROC				; TWin::ShowWindow, COMDAT

; 730  : 	if (!hWnd) {

  00000	48 8b 49 60	 mov	 rcx, QWORD PTR [rcx+96]
  00004	48 85 c9	 test	 rcx, rcx
  00007	75 03		 jne	 SHORT $LN2@ShowWindow

; 731  : 		return	FALSE;

  00009	33 c0		 xor	 eax, eax

; 734  : }

  0000b	c3		 ret	 0
$LN2@ShowWindow:

; 732  : 	}
; 733  : 	return	::ShowWindow(hWnd, mode);

  0000c	48 ff 25 00 00
	00 00		 rex_jmp QWORD PTR __imp_ShowWindow
?ShowWindow@TWin@@UEAAHH@Z ENDP				; TWin::ShowWindow
_TEXT	ENDS
; Function compile flags: /Ogtpy
; File f:\software1\\fastcopy\fastcopy325src\src\tlib\twin.cpp
;	COMDAT ?PostMessageA@TWin@@UEAAHI_K_J@Z
_TEXT	SEGMENT
this$ = 8
uMsg$ = 16
wParam$ = 24
lParam$ = 32
?PostMessageA@TWin@@UEAAHI_K_J@Z PROC			; TWin::PostMessageA, COMDAT

; 670  : 	if (!hWnd) {

  00000	48 8b 49 60	 mov	 rcx, QWORD PTR [rcx+96]
  00004	48 85 c9	 test	 rcx, rcx
  00007	75 03		 jne	 SHORT $LN2@PostMessag

; 671  : 		return	FALSE;

  00009	33 c0		 xor	 eax, eax

; 674  : }

  0000b	c3		 ret	 0
$LN2@PostMessag:

; 672  : 	}
; 673  : 	return	::PostMessage(hWnd, uMsg, wParam, lParam);

  0000c	48 ff 25 00 00
	00 00		 rex_jmp QWORD PTR __imp_PostMessageA
?PostMessageA@TWin@@UEAAHI_K_J@Z ENDP			; TWin::PostMessageA
_TEXT	ENDS
; Function compile flags: /Ogtpy
; File f:\software1\\fastcopy\fastcopy325src\src\tlib\twin.cpp
;	COMDAT ?PostMessageW@TWin@@UEAAHI_K_J@Z
_TEXT	SEGMENT
this$ = 8
uMsg$ = 16
wParam$ = 24
lParam$ = 32
?PostMessageW@TWin@@UEAAHI_K_J@Z PROC			; TWin::PostMessageW, COMDAT

; 678  : 	if (!hWnd) {

  00000	48 8b 49 60	 mov	 rcx, QWORD PTR [rcx+96]
  00004	48 85 c9	 test	 rcx, rcx
  00007	75 03		 jne	 SHORT $LN2@PostMessag

; 679  : 		return	FALSE;

  00009	33 c0		 xor	 eax, eax

; 682  : }

  0000b	c3		 ret	 0
$LN2@PostMessag:

; 680  : 	}
; 681  : 	return	::PostMessageW(hWnd, uMsg, wParam, lParam);

  0000c	48 ff 25 00 00
	00 00		 rex_jmp QWORD PTR __imp_PostMessageW
?PostMessageW@TWin@@UEAAHI_K_J@Z ENDP			; TWin::PostMessageW
_TEXT	ENDS
; Function compile flags: /Ogtpy
; File f:\software1\\fastcopy\fastcopy325src\src\tlib\twin.cpp
;	COMDAT ?SendMessageA@TWin@@UEAA_JI_K_J@Z
_TEXT	SEGMENT
this$ = 8
uMsg$ = 16
wParam$ = 24
lParam$ = 32
?SendMessageA@TWin@@UEAA_JI_K_J@Z PROC			; TWin::SendMessageA, COMDAT

; 686  : 	if (!hWnd) {

  00000	48 8b 49 60	 mov	 rcx, QWORD PTR [rcx+96]
  00004	48 85 c9	 test	 rcx, rcx
  00007	75 03		 jne	 SHORT $LN2@SendMessag

; 687  : 		return	FALSE;

  00009	33 c0		 xor	 eax, eax

; 690  : }

  0000b	c3		 ret	 0
$LN2@SendMessag:

; 688  : 	}
; 689  : 	return	::SendMessage(hWnd, uMsg, wParam, lParam);

  0000c	48 ff 25 00 00
	00 00		 rex_jmp QWORD PTR __imp_SendMessageA
?SendMessageA@TWin@@UEAA_JI_K_J@Z ENDP			; TWin::SendMessageA
_TEXT	ENDS
; Function compile flags: /Ogtpy
; File f:\software1\\fastcopy\fastcopy325src\src\tlib\twin.cpp
;	COMDAT ?SendMessageW@TWin@@UEAA_JI_K_J@Z
_TEXT	SEGMENT
this$ = 8
uMsg$ = 16
wParam$ = 24
lParam$ = 32
?SendMessageW@TWin@@UEAA_JI_K_J@Z PROC			; TWin::SendMessageW, COMDAT

; 694  : 	if (!hWnd) {

  00000	48 8b 49 60	 mov	 rcx, QWORD PTR [rcx+96]
  00004	48 85 c9	 test	 rcx, rcx
  00007	75 03		 jne	 SHORT $LN2@SendMessag

; 695  : 		return	FALSE;

  00009	33 c0		 xor	 eax, eax

; 698  : }

  0000b	c3		 ret	 0
$LN2@SendMessag:

; 696  : 	}
; 697  : 	return	::SendMessageW(hWnd, uMsg, wParam, lParam);

  0000c	48 ff 25 00 00
	00 00		 rex_jmp QWORD PTR __imp_SendMessageW
?SendMessageW@TWin@@UEAA_JI_K_J@Z ENDP			; TWin::SendMessageW
_TEXT	ENDS
; Function compile flags: /Ogtpy
; File f:\software1\\fastcopy\fastcopy325src\src\tlib\twin.cpp
;	COMDAT ?SendDlgItemMessageA@TWin@@UEAA_JHI_K_J@Z
_TEXT	SEGMENT
this$ = 8
idCtl$ = 16
uMsg$ = 24
wParam$ = 32
lParam$ = 40
?SendDlgItemMessageA@TWin@@UEAA_JHI_K_J@Z PROC		; TWin::SendDlgItemMessageA, COMDAT

; 702  : 	return	::SendDlgItemMessage(hWnd, idCtl, uMsg, wParam, lParam);

  00000	48 8b 49 60	 mov	 rcx, QWORD PTR [rcx+96]
  00004	48 ff 25 00 00
	00 00		 rex_jmp QWORD PTR __imp_SendDlgItemMessageA
?SendDlgItemMessageA@TWin@@UEAA_JHI_K_J@Z ENDP		; TWin::SendDlgItemMessageA
_TEXT	ENDS
; Function compile flags: /Ogtpy
; File f:\software1\\fastcopy\fastcopy325src\src\tlib\twin.cpp
;	COMDAT ?SendDlgItemMessageW@TWin@@UEAA_JHI_K_J@Z
_TEXT	SEGMENT
this$ = 8
idCtl$ = 16
uMsg$ = 24
wParam$ = 32
lParam$ = 40
?SendDlgItemMessageW@TWin@@UEAA_JHI_K_J@Z PROC		; TWin::SendDlgItemMessageW, COMDAT

; 707  : 	return	::SendDlgItemMessageW(hWnd, idCtl, uMsg, wParam, lParam);

  00000	48 8b 49 60	 mov	 rcx, QWORD PTR [rcx+96]
  00004	48 ff 25 00 00
	00 00		 rex_jmp QWORD PTR __imp_SendDlgItemMessageW
?SendDlgItemMessageW@TWin@@UEAA_JHI_K_J@Z ENDP		; TWin::SendDlgItemMessageW
_TEXT	ENDS
; Function compile flags: /Ogtpy
; File f:\software1\\fastcopy\fastcopy325src\src\tlib\twin.cpp
;	COMDAT ?GetWindowRect@TWin@@UEAAHPEAUtagRECT@@@Z
_TEXT	SEGMENT
this$ = 8
_rect$ = 16
?GetWindowRect@TWin@@UEAAHPEAUtagRECT@@@Z PROC		; TWin::GetWindowRect, COMDAT

; 712  : 	return	::GetWindowRect(hWnd, _rect ? _rect : &rect);

  00000	48 85 d2	 test	 rdx, rdx
  00003	75 04		 jne	 SHORT $LN4@GetWindowR
  00005	48 8d 51 20	 lea	 rdx, QWORD PTR [rcx+32]
$LN4@GetWindowR:
  00009	48 8b 49 60	 mov	 rcx, QWORD PTR [rcx+96]
  0000d	48 ff 25 00 00
	00 00		 rex_jmp QWORD PTR __imp_GetWindowRect
?GetWindowRect@TWin@@UEAAHPEAUtagRECT@@@Z ENDP		; TWin::GetWindowRect
_TEXT	ENDS
; Function compile flags: /Ogtpy
; File f:\software1\\fastcopy\fastcopy325src\src\tlib\twin.cpp
;	COMDAT ?GetClientRect@TWin@@UEAAHPEAUtagRECT@@@Z
_TEXT	SEGMENT
this$ = 8
rc$ = 16
?GetClientRect@TWin@@UEAAHPEAUtagRECT@@@Z PROC		; TWin::GetClientRect, COMDAT

; 717  : 	return	::GetClientRect(hWnd, rc);

  00000	48 8b 49 60	 mov	 rcx, QWORD PTR [rcx+96]
  00004	48 ff 25 00 00
	00 00		 rex_jmp QWORD PTR __imp_GetClientRect
?GetClientRect@TWin@@UEAAHPEAUtagRECT@@@Z ENDP		; TWin::GetClientRect
_TEXT	ENDS
; Function compile flags: /Ogtpy
; File f:\software1\\fastcopy\fastcopy325src\src\tlib\twin.cpp
;	COMDAT ?SetWindowPos@TWin@@UEAAHPEAUHWND__@@HHHHI@Z
_TEXT	SEGMENT
this$ = 8
hInsAfter$ = 16
x$ = 24
y$ = 32
cx$ = 40
cy$ = 48
fuFlags$ = 56
?SetWindowPos@TWin@@UEAAHPEAUHWND__@@HHHHI@Z PROC	; TWin::SetWindowPos, COMDAT

; 722  : 	if (!hWnd) {

  00000	48 8b 49 60	 mov	 rcx, QWORD PTR [rcx+96]
  00004	48 85 c9	 test	 rcx, rcx
  00007	75 03		 jne	 SHORT $LN2@SetWindowP

; 723  : 		return	FALSE;

  00009	33 c0		 xor	 eax, eax

; 726  : }

  0000b	c3		 ret	 0
$LN2@SetWindowP:

; 724  : 	}
; 725  : 	return	::SetWindowPos(hWnd, hInsAfter, x, y, cx, cy, fuFlags);

  0000c	48 ff 25 00 00
	00 00		 rex_jmp QWORD PTR __imp_SetWindowPos
?SetWindowPos@TWin@@UEAAHPEAUHWND__@@HHHHI@Z ENDP	; TWin::SetWindowPos
_TEXT	ENDS
; Function compile flags: /Ogtpy
; File f:\software1\\fastcopy\fastcopy325src\src\tlib\twin.cpp
;	COMDAT ?SetActiveWindow@TWin@@UEAAPEAUHWND__@@XZ
_TEXT	SEGMENT
this$ = 8
?SetActiveWindow@TWin@@UEAAPEAUHWND__@@XZ PROC		; TWin::SetActiveWindow, COMDAT

; 771  : 	if (!hWnd) {

  00000	48 8b 49 60	 mov	 rcx, QWORD PTR [rcx+96]
  00004	48 85 c9	 test	 rcx, rcx
  00007	75 03		 jne	 SHORT $LN2@SetActiveW

; 772  : 		return	FALSE;

  00009	33 c0		 xor	 eax, eax

; 775  : }

  0000b	c3		 ret	 0
$LN2@SetActiveW:

; 773  : 	}
; 774  : 	return	::SetActiveWindow(hWnd);

  0000c	48 ff 25 00 00
	00 00		 rex_jmp QWORD PTR __imp_SetActiveWindow
?SetActiveWindow@TWin@@UEAAPEAUHWND__@@XZ ENDP		; TWin::SetActiveWindow
_TEXT	ENDS
; Function compile flags: /Ogtpy
; File f:\software1\\fastcopy\fastcopy325src\src\tlib\twin.cpp
;	COMDAT ?GetWindowTextA@TWin@@UEAAHPEADH@Z
_TEXT	SEGMENT
this$ = 8
text$ = 16
size$ = 24
?GetWindowTextA@TWin@@UEAAHPEADH@Z PROC			; TWin::GetWindowTextA, COMDAT

; 779  : 	return	::GetWindowText(hWnd, text, size);

  00000	48 8b 49 60	 mov	 rcx, QWORD PTR [rcx+96]
  00004	48 ff 25 00 00
	00 00		 rex_jmp QWORD PTR __imp_GetWindowTextA
?GetWindowTextA@TWin@@UEAAHPEADH@Z ENDP			; TWin::GetWindowTextA
_TEXT	ENDS
; Function compile flags: /Ogtpy
; File f:\software1\\fastcopy\fastcopy325src\src\tlib\twin.cpp
;	COMDAT ?SetWindowTextA@TWin@@UEAAHPEBD@Z
_TEXT	SEGMENT
this$ = 8
text$ = 16
?SetWindowTextA@TWin@@UEAAHPEBD@Z PROC			; TWin::SetWindowTextA, COMDAT

; 799  : 	return	::SetWindowText(hWnd, text);

  00000	48 8b 49 60	 mov	 rcx, QWORD PTR [rcx+96]
  00004	48 ff 25 00 00
	00 00		 rex_jmp QWORD PTR __imp_SetWindowTextA
?SetWindowTextA@TWin@@UEAAHPEBD@Z ENDP			; TWin::SetWindowTextA
_TEXT	ENDS
; Function compile flags: /Ogtpy
; File f:\software1\\fastcopy\fastcopy325src\src\tlib\twin.cpp
;	COMDAT ?GetWindowTextW@TWin@@UEAAHPEA_WH@Z
_TEXT	SEGMENT
this$ = 8
text$ = 16
size$ = 24
?GetWindowTextW@TWin@@UEAAHPEA_WH@Z PROC		; TWin::GetWindowTextW, COMDAT

; 784  : 	return	::GetWindowTextW(hWnd, text, size);

  00000	48 8b 49 60	 mov	 rcx, QWORD PTR [rcx+96]
  00004	48 ff 25 00 00
	00 00		 rex_jmp QWORD PTR __imp_GetWindowTextW
?GetWindowTextW@TWin@@UEAAHPEA_WH@Z ENDP		; TWin::GetWindowTextW
_TEXT	ENDS
; Function compile flags: /Ogtpy
; File f:\software1\\fastcopy\fastcopy325src\src\tlib\twin.cpp
; File f:\software1\\fastcopy\fastcopy325src\src\tlib\tapi32u8.h
; File f:\software1\\fastcopy\fastcopy325src\src\tlib\twin.cpp
; File f:\software1\\fastcopy\fastcopy325src\src\tlib\tapi32u8.h
; File f:\software1\\fastcopy\fastcopy325src\src\tlib\twin.cpp
; File f:\software1\\fastcopy\fastcopy325src\src\tlib\tapi32u8.h
; File f:\software1\\fastcopy\fastcopy325src\src\tlib\twin.cpp
;	COMDAT ?GetWindowTextU8@TWin@@UEAAHPEADH@Z
_TEXT	SEGMENT
this$ = 48
text$ = 56
len$ = 64
?GetWindowTextU8@TWin@@UEAAHPEADH@Z PROC		; TWin::GetWindowTextU8, COMDAT

; 961  : {

$LN38:
  00000	48 89 5c 24 08	 mov	 QWORD PTR [rsp+8], rbx
  00005	48 89 6c 24 10	 mov	 QWORD PTR [rsp+16], rbp
  0000a	48 89 74 24 18	 mov	 QWORD PTR [rsp+24], rsi
  0000f	48 89 7c 24 20	 mov	 QWORD PTR [rsp+32], rdi
  00014	41 56		 push	 r14
  00016	48 83 ec 20	 sub	 rsp, 32			; 00000020H
; File f:\software1\\fastcopy\fastcopy325src\src\tlib\tapi32u8.h

; 105  : 		if (_len) {

  0001a	48 83 ce ff	 or	 rsi, -1
; File f:\software1\\fastcopy\fastcopy325src\src\tlib\twin.cpp

; 961  : {

  0001e	49 63 f8	 movsxd	 rdi, r8d
  00021	48 8b ea	 mov	 rbp, rdx
  00024	4c 8b f1	 mov	 r14, rcx
; File f:\software1\\fastcopy\fastcopy325src\src\tlib\tapi32u8.h

; 105  : 		if (_len) {

  00027	45 85 c0	 test	 r8d, r8d
  0002a	74 1e		 je	 SHORT $LN11@GetWindowT

; 106  : 			str = new WCHAR [_len];

  0002c	b8 02 00 00 00	 mov	 eax, 2
  00031	48 f7 e7	 mul	 rdi
  00034	48 0f 40 c6	 cmovo	 rax, rsi
  00038	48 8b c8	 mov	 rcx, rax
  0003b	e8 00 00 00 00	 call	 ??_U@YAPEAX_K@Z		; operator new[]
  00040	48 8b d8	 mov	 rbx, rax

; 107  : 			*str=0;

  00043	33 c0		 xor	 eax, eax
  00045	66 89 03	 mov	 WORD PTR [rbx], ax

; 108  : 		} else {

  00048	eb 04		 jmp	 SHORT $LN12@GetWindowT
$LN11@GetWindowT:

; 109  : 			str=NULL;

  0004a	33 c0		 xor	 eax, eax
  0004c	8b d8		 mov	 ebx, eax
$LN12@GetWindowT:
; File f:\software1\\fastcopy\fastcopy325src\src\tlib\twin.cpp

; 964  : 	wbuf[0] = 0;

  0004e	66 89 03	 mov	 WORD PTR [rbx], ax

; 965  : 	if (::GetWindowTextW(hWnd, wbuf.Buf(), len) < 0) return -1;

  00051	44 8b c7	 mov	 r8d, edi
  00054	49 8b 4e 60	 mov	 rcx, QWORD PTR [r14+96]
  00058	48 8b d3	 mov	 rdx, rbx
  0005b	ff 15 00 00 00
	00		 call	 QWORD PTR __imp_GetWindowTextW
  00061	85 c0		 test	 eax, eax
  00063	78 10		 js	 SHORT $LN5@GetWindowT

; 966  : 
; 967  : 	return	WtoU8(wbuf.s(), text, len);

  00065	44 8b c7	 mov	 r8d, edi
  00068	48 8b d5	 mov	 rdx, rbp
  0006b	48 8b cb	 mov	 rcx, rbx
  0006e	e8 00 00 00 00	 call	 ?WtoU8@@YAHPEB_WPEADHH@Z ; WtoU8
  00073	8b f0		 mov	 esi, eax
$LN5@GetWindowT:
; File f:\software1\\fastcopy\fastcopy325src\src\tlib\tapi32u8.h

; 115  : 			delete [] str;

  00075	48 8b cb	 mov	 rcx, rbx
  00078	e8 00 00 00 00	 call	 ??_V@YAXPEAX@Z		; operator delete[]
; File f:\software1\\fastcopy\fastcopy325src\src\tlib\twin.cpp

; 968  : }

  0007d	48 8b 5c 24 30	 mov	 rbx, QWORD PTR [rsp+48]
  00082	8b c6		 mov	 eax, esi
  00084	48 8b 74 24 40	 mov	 rsi, QWORD PTR [rsp+64]
  00089	48 8b 6c 24 38	 mov	 rbp, QWORD PTR [rsp+56]
  0008e	48 8b 7c 24 48	 mov	 rdi, QWORD PTR [rsp+72]
  00093	48 83 c4 20	 add	 rsp, 32			; 00000020H
  00097	41 5e		 pop	 r14
  00099	c3		 ret	 0
?GetWindowTextU8@TWin@@UEAAHPEADH@Z ENDP		; TWin::GetWindowTextU8
_TEXT	ENDS
; Function compile flags: /Ogtpy
; File f:\software1\\fastcopy\fastcopy325src\src\tlib\twin.cpp
;	COMDAT ?SetWindowTextW@TWin@@UEAAHPEB_W@Z
_TEXT	SEGMENT
this$ = 8
text$ = 16
?SetWindowTextW@TWin@@UEAAHPEB_W@Z PROC			; TWin::SetWindowTextW, COMDAT

; 789  : 	return	::SetWindowTextW(hWnd, text);

  00000	48 8b 49 60	 mov	 rcx, QWORD PTR [rcx+96]
  00004	48 ff 25 00 00
	00 00		 rex_jmp QWORD PTR __imp_SetWindowTextW
?SetWindowTextW@TWin@@UEAAHPEB_W@Z ENDP			; TWin::SetWindowTextW
_TEXT	ENDS
; Function compile flags: /Ogtpy
; File f:\software1\\fastcopy\fastcopy325src\src\tlib\twin.cpp
; File f:\software1\\fastcopy\fastcopy325src\src\tlib\tapi32u8.h
; File f:\software1\\fastcopy\fastcopy325src\src\tlib\twin.cpp
; File f:\software1\\fastcopy\fastcopy325src\src\tlib\tapi32u8.h
; File f:\software1\\fastcopy\fastcopy325src\src\tlib\twin.cpp
;	COMDAT ?SetWindowTextU8@TWin@@UEAAHPEBD@Z
_TEXT	SEGMENT
this$ = 48
text$ = 56
?SetWindowTextU8@TWin@@UEAAHPEBD@Z PROC			; TWin::SetWindowTextU8, COMDAT

; 971  : {

$LN29:
  00000	48 89 5c 24 08	 mov	 QWORD PTR [rsp+8], rbx
  00005	57		 push	 rdi
  00006	48 83 ec 20	 sub	 rsp, 32			; 00000020H
  0000a	48 8b f9	 mov	 rdi, rcx
; File f:\software1\\fastcopy\fastcopy325src\src\tlib\tapi32u8.h

; 100  : 		str = _str ? mode == BY_UTF8 ? U8toW(_str) : AtoW(_str) : NULL;

  0000d	48 85 d2	 test	 rdx, rdx
  00010	74 15		 je	 SHORT $LN12@SetWindowT
  00012	48 8b ca	 mov	 rcx, rdx
  00015	e8 00 00 00 00	 call	 ?U8toW@@YAPEA_WPEBDH@Z	; U8toW
  0001a	48 8b d8	 mov	 rbx, rax

; 172  : 		return str ? str : L"";

  0001d	48 85 c0	 test	 rax, rax
  00020	74 07		 je	 SHORT $LN19@SetWindowT
  00022	48 8b d0	 mov	 rdx, rax
  00025	eb 09		 jmp	 SHORT $LN20@SetWindowT
$LN12@SetWindowT:

; 100  : 		str = _str ? mode == BY_UTF8 ? U8toW(_str) : AtoW(_str) : NULL;

  00027	33 db		 xor	 ebx, ebx
$LN19@SetWindowT:

; 172  : 		return str ? str : L"";

  00029	48 8d 15 00 00
	00 00		 lea	 rdx, OFFSET FLAT:??_C@_11LOCGONAA@?$AA?$AA@
$LN20@SetWindowT:
; File f:\software1\\fastcopy\fastcopy325src\src\tlib\twin.cpp

; 974  : 	return	::SetWindowTextW(hWnd, wbuf.s());

  00030	48 8b 4f 60	 mov	 rcx, QWORD PTR [rdi+96]
  00034	ff 15 00 00 00
	00		 call	 QWORD PTR __imp_SetWindowTextW
  0003a	8b f8		 mov	 edi, eax
; File f:\software1\\fastcopy\fastcopy325src\src\tlib\tapi32u8.h

; 114  : 		if (str) {

  0003c	48 85 db	 test	 rbx, rbx
  0003f	74 0a		 je	 SHORT $LN25@SetWindowT

; 115  : 			delete [] str;

  00041	48 8b cb	 mov	 rcx, rbx
  00044	e8 00 00 00 00	 call	 ??_V@YAXPEAX@Z		; operator delete[]
; File f:\software1\\fastcopy\fastcopy325src\src\tlib\twin.cpp

; 974  : 	return	::SetWindowTextW(hWnd, wbuf.s());

  00049	8b c7		 mov	 eax, edi
$LN25@SetWindowT:

; 975  : }

  0004b	48 8b 5c 24 30	 mov	 rbx, QWORD PTR [rsp+48]
  00050	48 83 c4 20	 add	 rsp, 32			; 00000020H
  00054	5f		 pop	 rdi
  00055	c3		 ret	 0
?SetWindowTextU8@TWin@@UEAAHPEBD@Z ENDP			; TWin::SetWindowTextU8
_TEXT	ENDS
; Function compile flags: /Ogtpy
; File f:\software1\\fastcopy\fastcopy325src\src\tlib\twin.cpp
;	COMDAT ?GetWindowTextLengthW@TWin@@UEAAHXZ
_TEXT	SEGMENT
this$ = 8
?GetWindowTextLengthW@TWin@@UEAAHXZ PROC		; TWin::GetWindowTextLengthW, COMDAT

; 794  : 	return	::GetWindowTextLengthW(hWnd);

  00000	48 8b 49 60	 mov	 rcx, QWORD PTR [rcx+96]
  00004	48 ff 25 00 00
	00 00		 rex_jmp QWORD PTR __imp_GetWindowTextLengthW
?GetWindowTextLengthW@TWin@@UEAAHXZ ENDP		; TWin::GetWindowTextLengthW
_TEXT	ENDS
; Function compile flags: /Ogtpy
; File f:\software1\\fastcopy\fastcopy325src\src\tlib\twin.cpp
; File f:\software1\\fastcopy\fastcopy325src\src\tlib\tapi32u8.h
; File f:\software1\\fastcopy\fastcopy325src\src\tlib\twin.cpp
; File f:\software1\\fastcopy\fastcopy325src\src\tlib\tapi32u8.h
; File f:\software1\\fastcopy\fastcopy325src\src\tlib\twin.cpp
; File f:\software1\\fastcopy\fastcopy325src\src\tlib\tapi32u8.h
; File f:\software1\\fastcopy\fastcopy325src\src\tlib\twin.cpp
;	COMDAT ?GetWindowTextLengthU8@TWin@@UEAAHXZ
_TEXT	SEGMENT
this$ = 48
?GetWindowTextLengthU8@TWin@@UEAAHXZ PROC		; TWin::GetWindowTextLengthU8, COMDAT

; 978  : {

$LN37:
  00000	48 89 5c 24 18	 mov	 QWORD PTR [rsp+24], rbx
  00005	57		 push	 rdi
  00006	48 83 ec 20	 sub	 rsp, 32			; 00000020H
  0000a	48 89 6c 24 30	 mov	 QWORD PTR [rsp+48], rbp
  0000f	48 8b e9	 mov	 rbp, rcx

; 979  : 	int		len = ::GetWindowTextLengthW(hWnd);

  00012	48 8b 49 60	 mov	 rcx, QWORD PTR [rcx+96]
  00016	48 89 74 24 38	 mov	 QWORD PTR [rsp+56], rsi
  0001b	ff 15 00 00 00
	00		 call	 QWORD PTR __imp_GetWindowTextLengthW

; 980  : 	Wstr	wbuf(len + 1);

  00021	8d 70 01	 lea	 esi, DWORD PTR [rax+1]
; File f:\software1\\fastcopy\fastcopy325src\src\tlib\tapi32u8.h

; 105  : 		if (_len) {

  00024	85 f6		 test	 esi, esi
  00026	74 28		 je	 SHORT $LN11@GetWindowT

; 106  : 			str = new WCHAR [_len];

  00028	48 c7 c1 ff ff
	ff ff		 mov	 rcx, -1
  0002f	48 63 d6	 movsxd	 rdx, esi
  00032	b8 02 00 00 00	 mov	 eax, 2
  00037	48 f7 e2	 mul	 rdx
  0003a	48 0f 40 c1	 cmovo	 rax, rcx
  0003e	48 8b c8	 mov	 rcx, rax
  00041	e8 00 00 00 00	 call	 ??_U@YAPEAX_K@Z		; operator new[]

; 107  : 			*str=0;

  00046	33 ff		 xor	 edi, edi
  00048	48 8b d8	 mov	 rbx, rax
  0004b	66 89 38	 mov	 WORD PTR [rax], di

; 108  : 		} else {

  0004e	eb 04		 jmp	 SHORT $LN12@GetWindowT
$LN11@GetWindowT:

; 109  : 			str=NULL;

  00050	33 ff		 xor	 edi, edi
  00052	8b df		 mov	 ebx, edi
$LN12@GetWindowT:
; File f:\software1\\fastcopy\fastcopy325src\src\tlib\twin.cpp

; 982  : 	if (::GetWindowTextW(hWnd, wbuf.Buf(), len + 1) <= 0) return 0;

  00054	48 8b 4d 60	 mov	 rcx, QWORD PTR [rbp+96]
  00058	44 8b c6	 mov	 r8d, esi
  0005b	48 8b d3	 mov	 rdx, rbx
  0005e	ff 15 00 00 00
	00		 call	 QWORD PTR __imp_GetWindowTextW
  00064	48 8b 74 24 38	 mov	 rsi, QWORD PTR [rsp+56]
  00069	48 8b 6c 24 30	 mov	 rbp, QWORD PTR [rsp+48]
  0006e	85 c0		 test	 eax, eax
  00070	7e 1a		 jle	 SHORT $LN5@GetWindowT
; File f:\software1\\fastcopy\fastcopy325src\src\tlib\tapi32u8.h

; 172  : 		return str ? str : L"";

  00072	48 85 db	 test	 rbx, rbx
  00075	48 8d 0d 00 00
	00 00		 lea	 rcx, OFFSET FLAT:??_C@_11LOCGONAA@?$AA?$AA@
  0007c	48 0f 45 cb	 cmovne	 rcx, rbx
; File f:\software1\\fastcopy\fastcopy325src\src\tlib\twin.cpp

; 984  : 	return	WtoU8(wbuf.s(), NULL, 0);

  00080	45 33 c0	 xor	 r8d, r8d
  00083	33 d2		 xor	 edx, edx
  00085	e8 00 00 00 00	 call	 ?WtoU8@@YAHPEB_WPEADHH@Z ; WtoU8
  0008a	8b f8		 mov	 edi, eax
$LN5@GetWindowT:
; File f:\software1\\fastcopy\fastcopy325src\src\tlib\tapi32u8.h

; 114  : 		if (str) {

  0008c	48 85 db	 test	 rbx, rbx
  0008f	74 08		 je	 SHORT $LN35@GetWindowT

; 115  : 			delete [] str;

  00091	48 8b cb	 mov	 rcx, rbx
  00094	e8 00 00 00 00	 call	 ??_V@YAXPEAX@Z		; operator delete[]
$LN35@GetWindowT:
; File f:\software1\\fastcopy\fastcopy325src\src\tlib\twin.cpp

; 984  : 	return	WtoU8(wbuf.s(), NULL, 0);

  00099	8b c7		 mov	 eax, edi

; 985  : }

  0009b	48 8b 5c 24 40	 mov	 rbx, QWORD PTR [rsp+64]
  000a0	48 83 c4 20	 add	 rsp, 32			; 00000020H
  000a4	5f		 pop	 rdi
  000a5	c3		 ret	 0
?GetWindowTextLengthU8@TWin@@UEAAHXZ ENDP		; TWin::GetWindowTextLengthU8
_TEXT	ENDS
; Function compile flags: /Ogtpy
; File f:\software1\\fastcopy\fastcopy325src\src\tlib\twin.cpp
;	COMDAT ?InvalidateRect@TWin@@UEAAHPEBUtagRECT@@H@Z
_TEXT	SEGMENT
this$ = 8
rc$ = 16
fErase$ = 24
?InvalidateRect@TWin@@UEAAHPEBUtagRECT@@H@Z PROC	; TWin::InvalidateRect, COMDAT

; 989  : 	if (!hWnd) {

  00000	48 8b 49 60	 mov	 rcx, QWORD PTR [rcx+96]
  00004	48 85 c9	 test	 rcx, rcx
  00007	75 03		 jne	 SHORT $LN2@Invalidate

; 990  : 		return	FALSE;

  00009	33 c0		 xor	 eax, eax

; 993  : }

  0000b	c3		 ret	 0
$LN2@Invalidate:

; 991  : 	}
; 992  : 	return	::InvalidateRect(hWnd, rc, fErase);

  0000c	48 ff 25 00 00
	00 00		 rex_jmp QWORD PTR __imp_InvalidateRect
?InvalidateRect@TWin@@UEAAHPEBUtagRECT@@H@Z ENDP	; TWin::InvalidateRect
_TEXT	ENDS
; Function compile flags: /Ogtpy
; File f:\software1\\fastcopy\fastcopy325src\src\tlib\twin.cpp
;	COMDAT ?SetFocus@TWin@@UEAAPEAUHWND__@@XZ
_TEXT	SEGMENT
this$ = 8
?SetFocus@TWin@@UEAAPEAUHWND__@@XZ PROC			; TWin::SetFocus, COMDAT

; 997  : 	if (!hWnd) {

  00000	48 8b 49 60	 mov	 rcx, QWORD PTR [rcx+96]
  00004	48 85 c9	 test	 rcx, rcx
  00007	75 03		 jne	 SHORT $LN2@SetFocus

; 998  : 		return	NULL;

  00009	33 c0		 xor	 eax, eax

; 1001 : }

  0000b	c3		 ret	 0
$LN2@SetFocus:

; 999  : 	}
; 1000 : 	return	::SetFocus(hWnd);

  0000c	48 ff 25 00 00
	00 00		 rex_jmp QWORD PTR __imp_SetFocus
?SetFocus@TWin@@UEAAPEAUHWND__@@XZ ENDP			; TWin::SetFocus
_TEXT	ENDS
; Function compile flags: /Ogtpy
; File f:\software1\\fastcopy\fastcopy325src\src\tlib\twin.cpp
;	COMDAT ?SetWindowLongPtrA@TWin@@UEAA_JH_J@Z
_TEXT	SEGMENT
this$ = 8
index$ = 16
val$ = 24
?SetWindowLongPtrA@TWin@@UEAA_JH_J@Z PROC		; TWin::SetWindowLongPtrA, COMDAT

; 804  : 	if (!hWnd) {

  00000	48 8b 49 60	 mov	 rcx, QWORD PTR [rcx+96]
  00004	48 85 c9	 test	 rcx, rcx
  00007	75 03		 jne	 SHORT $LN2@SetWindowL

; 805  : 		return	0;

  00009	33 c0		 xor	 eax, eax

; 808  : }

  0000b	c3		 ret	 0
$LN2@SetWindowL:

; 806  : 	}
; 807  : 	return	::SetWindowLong(hWnd, index, val);

  0000c	48 ff 25 00 00
	00 00		 rex_jmp QWORD PTR __imp_SetWindowLongPtrA
?SetWindowLongPtrA@TWin@@UEAA_JH_J@Z ENDP		; TWin::SetWindowLongPtrA
_TEXT	ENDS
; Function compile flags: /Ogtpy
; File f:\software1\\fastcopy\fastcopy325src\src\tlib\twin.cpp
;	COMDAT ?SetWindowWord@TWin@@UEAAGHG@Z
_TEXT	SEGMENT
this$ = 8
index$ = 16
val$ = 24
?SetWindowWord@TWin@@UEAAGHG@Z PROC			; TWin::SetWindowWord, COMDAT

; 812  : 	if (!hWnd) {

  00000	48 8b 49 60	 mov	 rcx, QWORD PTR [rcx+96]
  00004	48 85 c9	 test	 rcx, rcx
  00007	75 03		 jne	 SHORT $LN2@SetWindowW

; 813  : 		return	0;

  00009	33 c0		 xor	 eax, eax

; 816  : }

  0000b	c3		 ret	 0
$LN2@SetWindowW:

; 814  : 	}
; 815  : 	return	::SetWindowWord(hWnd, index, val);

  0000c	48 ff 25 00 00
	00 00		 rex_jmp QWORD PTR __imp_SetWindowWord
?SetWindowWord@TWin@@UEAAGHG@Z ENDP			; TWin::SetWindowWord
_TEXT	ENDS
; Function compile flags: /Ogtpy
; File f:\software1\\fastcopy\fastcopy325src\src\tlib\twin.cpp
;	COMDAT ?GetWindowLongPtrA@TWin@@UEAA_JH@Z
_TEXT	SEGMENT
this$ = 8
index$ = 16
?GetWindowLongPtrA@TWin@@UEAA_JH@Z PROC			; TWin::GetWindowLongPtrA, COMDAT

; 820  : 	if (!hWnd) {

  00000	48 8b 49 60	 mov	 rcx, QWORD PTR [rcx+96]
  00004	48 85 c9	 test	 rcx, rcx
  00007	75 03		 jne	 SHORT $LN2@GetWindowL

; 821  : 		return	0;

  00009	33 c0		 xor	 eax, eax

; 824  : }

  0000b	c3		 ret	 0
$LN2@GetWindowL:

; 822  : 	}
; 823  : 	return	::GetWindowLong(hWnd, index);

  0000c	48 ff 25 00 00
	00 00		 rex_jmp QWORD PTR __imp_GetWindowLongPtrA
?GetWindowLongPtrA@TWin@@UEAA_JH@Z ENDP			; TWin::GetWindowLongPtrA
_TEXT	ENDS
; Function compile flags: /Ogtpy
; File f:\software1\\fastcopy\fastcopy325src\src\tlib\twin.cpp
;	COMDAT ?GetWindowWord@TWin@@UEAAGH@Z
_TEXT	SEGMENT
this$ = 8
index$ = 16
?GetWindowWord@TWin@@UEAAGH@Z PROC			; TWin::GetWindowWord, COMDAT

; 828  : 	return	::GetWindowWord(hWnd, index);

  00000	48 8b 49 60	 mov	 rcx, QWORD PTR [rcx+96]
  00004	48 ff 25 00 00
	00 00		 rex_jmp QWORD PTR __imp_GetWindowWord
?GetWindowWord@TWin@@UEAAGH@Z ENDP			; TWin::GetWindowWord
_TEXT	ENDS
; Function compile flags: /Ogtpy
; File f:\software1\\fastcopy\fastcopy325src\src\tlib\twin.cpp
;	COMDAT ?SetTimer@TWin@@UEAA_K_KIP6AXPEAUHWND__@@I0K@Z@Z
_TEXT	SEGMENT
this$ = 8
idTimer$ = 16
uTimeout$ = 24
proc$ = 32
?SetTimer@TWin@@UEAA_K_KIP6AXPEAUHWND__@@I0K@Z@Z PROC	; TWin::SetTimer, COMDAT

; 833  : 	if (!hWnd) {

  00000	48 8b 49 60	 mov	 rcx, QWORD PTR [rcx+96]
  00004	48 85 c9	 test	 rcx, rcx
  00007	75 03		 jne	 SHORT $LN2@SetTimer

; 834  : 		return	0;

  00009	33 c0		 xor	 eax, eax

; 837  : }

  0000b	c3		 ret	 0
$LN2@SetTimer:

; 835  : 	}
; 836  : 	return	::SetTimer(hWnd, idTimer, uTimeout, proc);

  0000c	48 ff 25 00 00
	00 00		 rex_jmp QWORD PTR __imp_SetTimer
?SetTimer@TWin@@UEAA_K_KIP6AXPEAUHWND__@@I0K@Z@Z ENDP	; TWin::SetTimer
_TEXT	ENDS
; Function compile flags: /Ogtpy
; File f:\software1\\fastcopy\fastcopy325src\src\tlib\twin.cpp
;	COMDAT ?KillTimer@TWin@@UEAAH_K@Z
_TEXT	SEGMENT
this$ = 8
idTimer$ = 16
?KillTimer@TWin@@UEAAH_K@Z PROC				; TWin::KillTimer, COMDAT

; 841  : 	if (!hWnd) {

  00000	48 8b 49 60	 mov	 rcx, QWORD PTR [rcx+96]
  00004	48 85 c9	 test	 rcx, rcx
  00007	75 03		 jne	 SHORT $LN2@KillTimer

; 842  : 		return	FALSE;

  00009	33 c0		 xor	 eax, eax

; 845  : }

  0000b	c3		 ret	 0
$LN2@KillTimer:

; 843  : 	}
; 844  : 	return	::KillTimer(hWnd, idTimer);

  0000c	48 ff 25 00 00
	00 00		 rex_jmp QWORD PTR __imp_KillTimer
?KillTimer@TWin@@UEAAH_K@Z ENDP				; TWin::KillTimer
_TEXT	ENDS
; Function compile flags: /Ogtpy
; File f:\software1\\fastcopy\fastcopy325src\src\tlib\twin.cpp
;	COMDAT ?MoveWindow@TWin@@UEAAHHHHHH@Z
_TEXT	SEGMENT
this$ = 8
x$ = 16
y$ = 24
cx$ = 32
cy$ = 40
bRepaint$ = 48
?MoveWindow@TWin@@UEAAHHHHHH@Z PROC			; TWin::MoveWindow, COMDAT

; 849  : 	if (!hWnd) {

  00000	48 8b 49 60	 mov	 rcx, QWORD PTR [rcx+96]
  00004	48 85 c9	 test	 rcx, rcx
  00007	75 03		 jne	 SHORT $LN2@MoveWindow

; 850  : 		return	FALSE;

  00009	33 c0		 xor	 eax, eax

; 853  : }

  0000b	c3		 ret	 0
$LN2@MoveWindow:

; 851  : 	}
; 852  : 	return	::MoveWindow(hWnd, x, y, cx, cy, bRepaint);

  0000c	48 ff 25 00 00
	00 00		 rex_jmp QWORD PTR __imp_MoveWindow
?MoveWindow@TWin@@UEAAHHHHHH@Z ENDP			; TWin::MoveWindow
_TEXT	ENDS
; Function compile flags: /Ogtpy
; File f:\software1\\fastcopy\fastcopy325src\src\tlib\twin.cpp
;	COMDAT ?FitMoveWindow@TWin@@UEAAHHH@Z
_TEXT	SEGMENT
rc$ = 64
__$ArrayPad$ = 80
this$ = 160
x$ = 168
y$ = 176
?FitMoveWindow@TWin@@UEAAHHH@Z PROC			; TWin::FitMoveWindow, COMDAT

; 887  : {

$LN9:
  00000	40 53		 push	 rbx
  00002	56		 push	 rsi
  00003	57		 push	 rdi
  00004	48 81 ec 80 00
	00 00		 sub	 rsp, 128		; 00000080H
  0000b	48 8b 05 00 00
	00 00		 mov	 rax, QWORD PTR __security_cookie
  00012	48 33 c4	 xor	 rax, rsp
  00015	48 89 44 24 50	 mov	 QWORD PTR __$ArrayPad$[rsp], rax

; 888  : 	if (!hWnd) {

  0001a	48 83 79 60 00	 cmp	 QWORD PTR [rcx+96], 0
  0001f	41 8b d8	 mov	 ebx, r8d
  00022	8b fa		 mov	 edi, edx
  00024	48 8b f1	 mov	 rsi, rcx
  00027	75 07		 jne	 SHORT $LN2@FitMoveWin

; 889  : 		return	FALSE;

  00029	33 c0		 xor	 eax, eax
  0002b	e9 e0 00 00 00	 jmp	 $LN1@FitMoveWin
$LN2@FitMoveWin:

; 890  : 	}
; 891  : 	RECT	rc;
; 892  : 	GetWindowRect(&rc);

  00030	48 8b 01	 mov	 rax, QWORD PTR [rcx]
  00033	48 8d 54 24 40	 lea	 rdx, QWORD PTR rc$[rsp]
  00038	48 89 ac 24 b8
	00 00 00	 mov	 QWORD PTR [rsp+184], rbp
  00040	4c 89 64 24 78	 mov	 QWORD PTR [rsp+120], r12
  00045	4c 89 6c 24 70	 mov	 QWORD PTR [rsp+112], r13
  0004a	4c 89 74 24 68	 mov	 QWORD PTR [rsp+104], r14
  0004f	4c 89 7c 24 60	 mov	 QWORD PTR [rsp+96], r15
  00054	ff 90 78 02 00
	00		 call	 QWORD PTR [rax+632]

; 893  : 	int		cx = rc.right - rc.left;

  0005a	44 8b 7c 24 48	 mov	 r15d, DWORD PTR rc$[rsp+8]

; 894  : 	int		cy = rc.bottom - rc.top;
; 895  : 
; 896  : 	int	start_x = ::GetSystemMetrics(SM_XVIRTUALSCREEN);

  0005f	b9 4c 00 00 00	 mov	 ecx, 76			; 0000004cH
  00064	8b 6c 24 4c	 mov	 ebp, DWORD PTR rc$[rsp+12]
  00068	44 2b 7c 24 40	 sub	 r15d, DWORD PTR rc$[rsp]
  0006d	2b 6c 24 44	 sub	 ebp, DWORD PTR rc$[rsp+4]
  00071	ff 15 00 00 00
	00		 call	 QWORD PTR __imp_GetSystemMetrics

; 897  : 	int	start_y = ::GetSystemMetrics(SM_YVIRTUALSCREEN);

  00077	b9 4d 00 00 00	 mov	 ecx, 77			; 0000004dH
  0007c	44 8b f0	 mov	 r14d, eax
  0007f	ff 15 00 00 00
	00		 call	 QWORD PTR __imp_GetSystemMetrics

; 898  : 	int	end_x = start_x + ::GetSystemMetrics(SM_CXVIRTUALSCREEN);

  00085	b9 4e 00 00 00	 mov	 ecx, 78			; 0000004eH
  0008a	44 8b e8	 mov	 r13d, eax
  0008d	ff 15 00 00 00
	00		 call	 QWORD PTR __imp_GetSystemMetrics

; 899  : 	int	end_y = start_y + ::GetSystemMetrics(SM_CYVIRTUALSCREEN);

  00093	b9 4f 00 00 00	 mov	 ecx, 79			; 0000004fH
  00098	45 8d 24 06	 lea	 r12d, DWORD PTR [r14+rax]
  0009c	ff 15 00 00 00
	00		 call	 QWORD PTR __imp_GetSystemMetrics

; 900  : 
; 901  : 	if (x + cx > end_x) x = end_x - cx;

  000a2	42 8d 0c 3f	 lea	 ecx, DWORD PTR [rdi+r15]
  000a6	42 8d 14 28	 lea	 edx, DWORD PTR [rax+r13]
  000aa	41 3b cc	 cmp	 ecx, r12d
  000ad	7e 06		 jle	 SHORT $LN3@FitMoveWin
  000af	41 8b fc	 mov	 edi, r12d
  000b2	41 2b ff	 sub	 edi, r15d
$LN3@FitMoveWin:

; 902  : 	if (x < start_x)    x = start_x;
; 903  : 	if (y + cy > end_y) y = end_y - cy;

  000b5	4c 8b 7c 24 60	 mov	 r15, QWORD PTR [rsp+96]
  000ba	8d 04 2b	 lea	 eax, DWORD PTR [rbx+rbp]
  000bd	4c 8b 64 24 78	 mov	 r12, QWORD PTR [rsp+120]
  000c2	41 3b fe	 cmp	 edi, r14d
  000c5	41 0f 4c fe	 cmovl	 edi, r14d
  000c9	4c 8b 74 24 68	 mov	 r14, QWORD PTR [rsp+104]
  000ce	3b c2		 cmp	 eax, edx
  000d0	7e 04		 jle	 SHORT $LN5@FitMoveWin
  000d2	8b da		 mov	 ebx, edx
  000d4	2b dd		 sub	 ebx, ebp
$LN5@FitMoveWin:

; 904  : 	if (y < start_y)    y = start_y;
; 905  : 
; 906  : 	return	SetWindowPos(NULL, x, y, 0, 0, SWP_NOSIZE|SWP_NOREDRAW|SWP_NOZORDER);

  000d6	48 8b 06	 mov	 rax, QWORD PTR [rsi]
  000d9	41 3b dd	 cmp	 ebx, r13d
  000dc	c7 44 24 30 0d
	00 00 00	 mov	 DWORD PTR [rsp+48], 13
  000e4	44 8b c7	 mov	 r8d, edi
  000e7	41 0f 4c dd	 cmovl	 ebx, r13d
  000eb	33 c9		 xor	 ecx, ecx
  000ed	89 4c 24 28	 mov	 DWORD PTR [rsp+40], ecx
  000f1	44 8b cb	 mov	 r9d, ebx
  000f4	89 4c 24 20	 mov	 DWORD PTR [rsp+32], ecx
  000f8	33 d2		 xor	 edx, edx
  000fa	48 8b ce	 mov	 rcx, rsi
  000fd	ff 90 88 02 00
	00		 call	 QWORD PTR [rax+648]
  00103	4c 8b 6c 24 70	 mov	 r13, QWORD PTR [rsp+112]
  00108	48 8b ac 24 b8
	00 00 00	 mov	 rbp, QWORD PTR [rsp+184]
$LN1@FitMoveWin:

; 907  : }

  00110	48 8b 4c 24 50	 mov	 rcx, QWORD PTR __$ArrayPad$[rsp]
  00115	48 33 cc	 xor	 rcx, rsp
  00118	e8 00 00 00 00	 call	 __security_check_cookie
  0011d	48 81 c4 80 00
	00 00		 add	 rsp, 128		; 00000080H
  00124	5f		 pop	 rdi
  00125	5e		 pop	 rsi
  00126	5b		 pop	 rbx
  00127	c3		 ret	 0
?FitMoveWindow@TWin@@UEAAHHH@Z ENDP			; TWin::FitMoveWindow
_TEXT	ENDS
; Function compile flags: /Ogtpy
; File f:\software1\\fastcopy\fastcopy325src\src\tlib\twin.cpp
;	COMDAT ?Sleep@TWin@@UEAAHI@Z
_TEXT	SEGMENT
msg$ = 32
this$ = 96
mSec$ = 104
?Sleep@TWin@@UEAAHI@Z PROC				; TWin::Sleep, COMDAT

; 370  : {

$LN20:
  00000	40 53		 push	 rbx
  00002	48 83 ec 50	 sub	 rsp, 80			; 00000050H
  00006	48 8b d9	 mov	 rbx, rcx

; 371  : 	if (mSec == 0 || sleepBusy)

  00009	85 d2		 test	 edx, edx
  0000b	0f 84 cf 00 00
	00		 je	 $LN5@Sleep
  00011	83 79 50 00	 cmp	 DWORD PTR [rcx+80], 0
  00015	0f 85 c5 00 00
	00		 jne	 $LN5@Sleep

; 373  : 
; 374  : 	if (!SetTimer(TLIB_SLEEPTIMER, mSec))

  0001b	48 8b 01	 mov	 rax, QWORD PTR [rcx]
  0001e	44 8b c2	 mov	 r8d, edx
  00021	45 33 c9	 xor	 r9d, r9d
  00024	ba 00 7d 00 00	 mov	 edx, 32000		; 00007d00H
  00029	ff 90 08 03 00
	00		 call	 QWORD PTR [rax+776]
  0002f	48 85 c0	 test	 rax, rax
  00032	75 06		 jne	 SHORT $LN6@Sleep

; 393  : 
; 394  : 	return	TRUE;
; 395  : }

  00034	48 83 c4 50	 add	 rsp, 80			; 00000050H
  00038	5b		 pop	 rbx
  00039	c3		 ret	 0
$LN6@Sleep:

; 375  : 		return	FALSE;
; 376  : 	sleepBusy = TRUE;
; 377  : 
; 378  : 	MSG		msg;
; 379  : 	while (::GetMessage(&msg, 0, 0, 0))

  0003a	45 33 c9	 xor	 r9d, r9d
  0003d	c7 43 50 01 00
	00 00		 mov	 DWORD PTR [rbx+80], 1
  00044	45 33 c0	 xor	 r8d, r8d
  00047	48 8d 4c 24 20	 lea	 rcx, QWORD PTR msg$[rsp]
  0004c	33 d2		 xor	 edx, edx
  0004e	ff 15 00 00 00
	00		 call	 QWORD PTR __imp_GetMessageA
  00054	85 c0		 test	 eax, eax
  00056	0f 84 7d 00 00
	00		 je	 $LN18@Sleep
  0005c	0f 1f 40 00	 npad	 4
$LL2@Sleep:

; 380  : 	{
; 381  : 		if (msg.hwnd == hWnd && msg.wParam == TLIB_SLEEPTIMER)

  00060	48 8b 43 60	 mov	 rax, QWORD PTR [rbx+96]
  00064	48 39 44 24 20	 cmp	 QWORD PTR msg$[rsp], rax
  00069	75 0b		 jne	 SHORT $LN7@Sleep
  0006b	48 81 7c 24 30
	00 7d 00 00	 cmp	 QWORD PTR msg$[rsp+16], 32000 ; 00007d00H
  00074	74 51		 je	 SHORT $LN14@Sleep
$LN7@Sleep:

; 384  : 			break;
; 385  : 		}
; 386  : 		if (TApp::GetApp()->PreProcMsg(&msg))

  00076	48 8b 0d 00 00
	00 00		 mov	 rcx, QWORD PTR ?tapp@TApp@@1PEAV1@EA ; TApp::tapp
  0007d	48 8d 54 24 20	 lea	 rdx, QWORD PTR msg$[rsp]
  00082	48 8b 01	 mov	 rax, QWORD PTR [rcx]
  00085	ff 50 20	 call	 QWORD PTR [rax+32]
  00088	85 c0		 test	 eax, eax
  0008a	75 16		 jne	 SHORT $LN15@Sleep

; 387  : 			continue;
; 388  : 
; 389  : 		::TranslateMessage(&msg);

  0008c	48 8d 4c 24 20	 lea	 rcx, QWORD PTR msg$[rsp]
  00091	ff 15 00 00 00
	00		 call	 QWORD PTR __imp_TranslateMessage

; 390  : 		::DispatchMessage(&msg);

  00097	48 8d 4c 24 20	 lea	 rcx, QWORD PTR msg$[rsp]
  0009c	ff 15 00 00 00
	00		 call	 QWORD PTR __imp_DispatchMessageA
$LN15@Sleep:

; 375  : 		return	FALSE;
; 376  : 	sleepBusy = TRUE;
; 377  : 
; 378  : 	MSG		msg;
; 379  : 	while (::GetMessage(&msg, 0, 0, 0))

  000a2	45 33 c9	 xor	 r9d, r9d
  000a5	48 8d 4c 24 20	 lea	 rcx, QWORD PTR msg$[rsp]
  000aa	45 33 c0	 xor	 r8d, r8d
  000ad	33 d2		 xor	 edx, edx
  000af	ff 15 00 00 00
	00		 call	 QWORD PTR __imp_GetMessageA
  000b5	85 c0		 test	 eax, eax
  000b7	75 a7		 jne	 SHORT $LL2@Sleep

; 391  : 	}
; 392  : 	sleepBusy = FALSE;

  000b9	89 43 50	 mov	 DWORD PTR [rbx+80], eax

; 372  : 		return	TRUE;

  000bc	b8 01 00 00 00	 mov	 eax, 1

; 393  : 
; 394  : 	return	TRUE;
; 395  : }

  000c1	48 83 c4 50	 add	 rsp, 80			; 00000050H
  000c5	5b		 pop	 rbx
  000c6	c3		 ret	 0
$LN14@Sleep:

; 382  : 		{
; 383  : 			KillTimer(TLIB_SLEEPTIMER);

  000c7	4c 8b 03	 mov	 r8, QWORD PTR [rbx]
  000ca	ba 00 7d 00 00	 mov	 edx, 32000		; 00007d00H
  000cf	48 8b cb	 mov	 rcx, rbx
  000d2	41 ff 90 10 03
	00 00		 call	 QWORD PTR [r8+784]
$LN18@Sleep:

; 391  : 	}
; 392  : 	sleepBusy = FALSE;

  000d9	c7 43 50 00 00
	00 00		 mov	 DWORD PTR [rbx+80], 0
$LN5@Sleep:

; 372  : 		return	TRUE;

  000e0	b8 01 00 00 00	 mov	 eax, 1

; 393  : 
; 394  : 	return	TRUE;
; 395  : }

  000e5	48 83 c4 50	 add	 rsp, 80			; 00000050H
  000e9	5b		 pop	 rbx
  000ea	c3		 ret	 0
?Sleep@TWin@@UEAAHI@Z ENDP				; TWin::Sleep
_TEXT	ENDS
; Function compile flags: /Ogtpy
; File f:\software1\\fastcopy\fastcopy325src\src\tlib\twin.cpp
;	COMDAT ?Idle@TWin@@UEAAHXZ
_TEXT	SEGMENT
msg$ = 48
this$ = 112
?Idle@TWin@@UEAAHXZ PROC				; TWin::Idle, COMDAT

; 910  : {

$LN9:
  00000	48 83 ec 68	 sub	 rsp, 104		; 00000068H

; 911  : 	MSG		msg;
; 912  : 
; 913  : 	if (::PeekMessage(&msg, NULL, 0, 0, PM_REMOVE))

  00004	45 33 c9	 xor	 r9d, r9d
  00007	c7 44 24 20 01
	00 00 00	 mov	 DWORD PTR [rsp+32], 1
  0000f	45 33 c0	 xor	 r8d, r8d
  00012	48 8d 4c 24 30	 lea	 rcx, QWORD PTR msg$[rsp]
  00017	33 d2		 xor	 edx, edx
  00019	ff 15 00 00 00
	00		 call	 QWORD PTR __imp_PeekMessageA
  0001f	85 c0		 test	 eax, eax
  00021	74 37		 je	 SHORT $LN2@Idle

; 914  : 	{
; 915  : 		if (TApp::GetApp()->PreProcMsg(&msg))

  00023	48 8b 0d 00 00
	00 00		 mov	 rcx, QWORD PTR ?tapp@TApp@@1PEAV1@EA ; TApp::tapp
  0002a	48 8d 54 24 30	 lea	 rdx, QWORD PTR msg$[rsp]
  0002f	4c 8b 01	 mov	 r8, QWORD PTR [rcx]
  00032	41 ff 50 20	 call	 QWORD PTR [r8+32]
  00036	85 c0		 test	 eax, eax
  00038	75 16		 jne	 SHORT $LN7@Idle

; 916  : 			return	TRUE;
; 917  : 
; 918  : 		::TranslateMessage(&msg);

  0003a	48 8d 4c 24 30	 lea	 rcx, QWORD PTR msg$[rsp]
  0003f	ff 15 00 00 00
	00		 call	 QWORD PTR __imp_TranslateMessage

; 919  : 		::DispatchMessage(&msg);

  00045	48 8d 4c 24 30	 lea	 rcx, QWORD PTR msg$[rsp]
  0004a	ff 15 00 00 00
	00		 call	 QWORD PTR __imp_DispatchMessageA
$LN7@Idle:

; 920  : 		return	TRUE;

  00050	b8 01 00 00 00	 mov	 eax, 1

; 924  : }

  00055	48 83 c4 68	 add	 rsp, 104		; 00000068H
  00059	c3		 ret	 0
$LN2@Idle:

; 921  : 	}
; 922  : 
; 923  : 	return	FALSE;

  0005a	33 c0		 xor	 eax, eax

; 924  : }

  0005c	48 83 c4 68	 add	 rsp, 104		; 00000068H
  00060	c3		 ret	 0
?Idle@TWin@@UEAAHXZ ENDP				; TWin::Idle
_TEXT	ENDS
; Function compile flags: /Ogtpy
; File f:\software1\\fastcopy\fastcopy325src\src\tlib\twin.cpp
;	COMDAT ?MoveCenter@TWin@@UEAAHH@Z
_TEXT	SEGMENT
screen_rect$ = 64
pt$1 = 80
minfo$2 = 88
__$ArrayPad$ = 128
this$ = 176
use_cursor_screen$ = 184
?MoveCenter@TWin@@UEAAHH@Z PROC				; TWin::MoveCenter, COMDAT

; 856  : {

$LN7:
  00000	48 89 5c 24 10	 mov	 QWORD PTR [rsp+16], rbx
  00005	48 89 6c 24 18	 mov	 QWORD PTR [rsp+24], rbp
  0000a	56		 push	 rsi
  0000b	57		 push	 rdi
  0000c	41 56		 push	 r14
  0000e	48 81 ec 90 00
	00 00		 sub	 rsp, 144		; 00000090H
  00015	48 8b 05 00 00
	00 00		 mov	 rax, QWORD PTR __security_cookie
  0001c	48 33 c4	 xor	 rax, rsp
  0001f	48 89 84 24 80
	00 00 00	 mov	 QWORD PTR __$ArrayPad$[rsp], rax

; 857  : 	RECT	screen_rect = { 0, 0,

  00027	33 ed		 xor	 ebp, ebp
  00029	4c 8b f1	 mov	 r14, rcx
  0002c	8b da		 mov	 ebx, edx
  0002e	48 89 6c 24 40	 mov	 QWORD PTR screen_rect$[rsp], rbp
  00033	8b fd		 mov	 edi, ebp

; 858  : 		::GetSystemMetrics(SM_CXFULLSCREEN),

  00035	8d 4d 10	 lea	 ecx, QWORD PTR [rbp+16]
  00038	ff 15 00 00 00
	00		 call	 QWORD PTR __imp_GetSystemMetrics

; 859  : 		::GetSystemMetrics(SM_CYFULLSCREEN) };

  0003e	8d 4d 11	 lea	 ecx, QWORD PTR [rbp+17]
  00041	89 44 24 48	 mov	 DWORD PTR screen_rect$[rsp+8], eax
  00045	8b f0		 mov	 esi, eax
  00047	ff 15 00 00 00
	00		 call	 QWORD PTR __imp_GetSystemMetrics
  0004d	89 44 24 4c	 mov	 DWORD PTR screen_rect$[rsp+12], eax

; 860  : 
; 861  : 	if (use_cursor_screen) {

  00051	85 db		 test	 ebx, ebx
  00053	74 67		 je	 SHORT $LN4@MoveCenter

; 862  : 		POINT		pt = {0, 0};
; 863  : 		::GetCursorPos(&pt);

  00055	48 8d 4c 24 50	 lea	 rcx, QWORD PTR pt$1[rsp]
  0005a	48 89 6c 24 50	 mov	 QWORD PTR pt$1[rsp], rbp
  0005f	ff 15 00 00 00
	00		 call	 QWORD PTR __imp_GetCursorPos

; 864  : 		HMONITOR	hMon = ::MonitorFromPoint(pt, MONITOR_DEFAULTTONEAREST);

  00065	48 8b 4c 24 50	 mov	 rcx, QWORD PTR pt$1[rsp]
  0006a	8d 55 02	 lea	 edx, QWORD PTR [rbp+2]
  0006d	ff 15 00 00 00
	00		 call	 QWORD PTR __imp_MonitorFromPoint

; 865  : 
; 866  : 		if (hMon) {

  00073	48 85 c0	 test	 rax, rax
  00076	74 44		 je	 SHORT $LN4@MoveCenter

; 867  : 			MONITORINFO	minfo;
; 868  : 			minfo.cbSize = sizeof(minfo);
; 869  : 
; 870  : 			if (::GetMonitorInfoW(hMon, &minfo) &&
; 871  : 				(minfo.rcMonitor.right - minfo.rcMonitor.left) > 0 &&

  00078	48 8d 54 24 58	 lea	 rdx, QWORD PTR minfo$2[rsp]
  0007d	c7 44 24 58 28
	00 00 00	 mov	 DWORD PTR minfo$2[rsp], 40 ; 00000028H
  00085	48 8b c8	 mov	 rcx, rax
  00088	ff 15 00 00 00
	00		 call	 QWORD PTR __imp_GetMonitorInfoW
  0008e	85 c0		 test	 eax, eax
  00090	74 2a		 je	 SHORT $LN4@MoveCenter
  00092	8b 44 24 64	 mov	 eax, DWORD PTR minfo$2[rsp+12]
  00096	2b 44 24 5c	 sub	 eax, DWORD PTR minfo$2[rsp+4]
  0009a	85 c0		 test	 eax, eax
  0009c	7e 1e		 jle	 SHORT $LN4@MoveCenter
  0009e	8b 44 24 68	 mov	 eax, DWORD PTR minfo$2[rsp+16]
  000a2	2b 44 24 60	 sub	 eax, DWORD PTR minfo$2[rsp+8]
  000a6	85 c0		 test	 eax, eax
  000a8	7e 12		 jle	 SHORT $LN4@MoveCenter

; 872  : 				(minfo.rcMonitor.bottom - minfo.rcMonitor.top) > 0) {
; 873  : 				screen_rect = minfo.rcMonitor;

  000aa	0f 10 44 24 5c	 movups	 xmm0, XMMWORD PTR minfo$2[rsp+4]
  000af	0f 11 44 24 40	 movups	 XMMWORD PTR screen_rect$[rsp], xmm0
  000b4	8b 74 24 48	 mov	 esi, DWORD PTR screen_rect$[rsp+8]
  000b8	8b 7c 24 40	 mov	 edi, DWORD PTR screen_rect$[rsp]
$LN4@MoveCenter:

; 874  : 			}
; 875  : 		}
; 876  : 	}
; 877  : 
; 878  : 	long x = screen_rect.left + ((screen_rect.right - screen_rect.left)

  000bc	41 8b 46 20	 mov	 eax, DWORD PTR [r14+32]

; 879  : 			- (rect.right - rect.left)) / 2;
; 880  : 	long y = screen_rect.top + ((screen_rect.bottom - screen_rect.top)
; 881  : 			- (rect.bottom - rect.top)) / 2;
; 882  : 
; 883  : 	return	SetWindowPos(NULL, x, y, 0, 0, SWP_NOSIZE|SWP_NOZORDER|SWP_NOACTIVATE);

  000c0	49 8b ce	 mov	 rcx, r14
  000c3	41 2b 46 28	 sub	 eax, DWORD PTR [r14+40]
  000c7	4c 8b 4c 24 40	 mov	 r9, QWORD PTR screen_rect$[rsp]
  000cc	2b c7		 sub	 eax, edi
  000ce	4d 8b 16	 mov	 r10, QWORD PTR [r14]
  000d1	03 c6		 add	 eax, esi
  000d3	99		 cdq
  000d4	49 c1 e9 20	 shr	 r9, 32			; 00000020H
  000d8	2b c2		 sub	 eax, edx
  000da	c7 44 24 30 15
	00 00 00	 mov	 DWORD PTR [rsp+48], 21
  000e2	d1 f8		 sar	 eax, 1
  000e4	89 6c 24 28	 mov	 DWORD PTR [rsp+40], ebp
  000e8	89 6c 24 20	 mov	 DWORD PTR [rsp+32], ebp
  000ec	44 8d 04 07	 lea	 r8d, DWORD PTR [rdi+rax]
  000f0	48 8b 44 24 48	 mov	 rax, QWORD PTR screen_rect$[rsp+8]
  000f5	48 c1 e8 20	 shr	 rax, 32			; 00000020H
  000f9	41 2b 46 2c	 sub	 eax, DWORD PTR [r14+44]
  000fd	41 03 46 24	 add	 eax, DWORD PTR [r14+36]
  00101	41 2b c1	 sub	 eax, r9d
  00104	99		 cdq
  00105	2b c2		 sub	 eax, edx
  00107	33 d2		 xor	 edx, edx
  00109	d1 f8		 sar	 eax, 1
  0010b	44 03 c8	 add	 r9d, eax
  0010e	41 ff 92 88 02
	00 00		 call	 QWORD PTR [r10+648]

; 884  : }

  00115	48 8b 8c 24 80
	00 00 00	 mov	 rcx, QWORD PTR __$ArrayPad$[rsp]
  0011d	48 33 cc	 xor	 rcx, rsp
  00120	e8 00 00 00 00	 call	 __security_check_cookie
  00125	4c 8d 9c 24 90
	00 00 00	 lea	 r11, QWORD PTR [rsp+144]
  0012d	49 8b 5b 28	 mov	 rbx, QWORD PTR [r11+40]
  00131	49 8b 6b 30	 mov	 rbp, QWORD PTR [r11+48]
  00135	49 8b e3	 mov	 rsp, r11
  00138	41 5e		 pop	 r14
  0013a	5f		 pop	 rdi
  0013b	5e		 pop	 rsi
  0013c	c3		 ret	 0
?MoveCenter@TWin@@UEAAHH@Z ENDP				; TWin::MoveCenter
_TEXT	ENDS
; Function compile flags: /Ogtpy
; File f:\software1\\fastcopy\fastcopy325src\src\tlib\twin.cpp
;	COMDAT ?PreProcMsg@TWin@@UEAAHPEAUtagMSG@@@Z
_TEXT	SEGMENT
this$ = 8
msg$ = 16
?PreProcMsg@TWin@@UEAAHPEAUtagMSG@@@Z PROC		; TWin::PreProcMsg, COMDAT

; 316  : 	if (hWnd && hAccel) {

  00000	48 8b 41 60	 mov	 rax, QWORD PTR [rcx+96]
  00004	4c 8b c2	 mov	 r8, rdx
  00007	48 85 c0	 test	 rax, rax
  0000a	74 13		 je	 SHORT $LN2@PreProcMsg
  0000c	48 8b 51 40	 mov	 rdx, QWORD PTR [rcx+64]
  00010	48 85 d2	 test	 rdx, rdx
  00013	74 0a		 je	 SHORT $LN2@PreProcMsg

; 317  : 		return	::TranslateAccelerator(hWnd, hAccel, msg);

  00015	48 8b c8	 mov	 rcx, rax
  00018	48 ff 25 00 00
	00 00		 rex_jmp QWORD PTR __imp_TranslateAcceleratorA
$LN2@PreProcMsg:

; 318  : 	}
; 319  : 
; 320  : 	return	FALSE;

  0001f	33 c0		 xor	 eax, eax

; 321  : }

  00021	c3		 ret	 0
?PreProcMsg@TWin@@UEAAHPEAUtagMSG@@@Z ENDP		; TWin::PreProcMsg
_TEXT	ENDS
; Function compile flags: /Ogtpy
; File f:\software1\\fastcopy\fastcopy325src\src\tlib\twin.cpp
; File f:\software1\\fastcopy\fastcopy325src\src\tlib\tlib.h
; File f:\software1\\fastcopy\fastcopy325src\src\tlib\twin.cpp
;	COMDAT ?WinProc@TWin@@UEAA_JI_K_J@Z
_TEXT	SEGMENT
result$ = 48
this$ = 80
uMsg$ = 88
wParam$ = 96
lParam$ = 104
?WinProc@TWin@@UEAA_JI_K_J@Z PROC			; TWin::WinProc, COMDAT

; 84   : {

$LN73:
  00000	48 89 5c 24 08	 mov	 QWORD PTR [rsp+8], rbx
  00005	48 89 6c 24 10	 mov	 QWORD PTR [rsp+16], rbp
  0000a	48 89 74 24 18	 mov	 QWORD PTR [rsp+24], rsi
  0000f	57		 push	 rdi
  00010	48 83 ec 40	 sub	 rsp, 64			; 00000040H

; 85   : 	BOOL	done = FALSE;
; 86   : 	LRESULT	result = 0;

  00014	48 c7 44 24 30
	00 00 00 00	 mov	 QWORD PTR result$[rsp], 0
  0001d	49 8b f1	 mov	 rsi, r9
  00020	49 8b e8	 mov	 rbp, r8
  00023	8b fa		 mov	 edi, edx
  00025	48 8b d9	 mov	 rbx, rcx

; 87   : 
; 88   : 	switch(uMsg)

  00028	81 fa 01 01 00
	00		 cmp	 edx, 257		; 00000101H
  0002e	0f 87 00 03 00
	00		 ja	 $LN55@WinProc
  00034	81 fa 00 01 00
	00		 cmp	 edx, 256		; 00000100H
  0003a	0f 83 e4 02 00
	00		 jae	 $LN40@WinProc
  00040	8d 42 ff	 lea	 eax, DWORD PTR [rdx-1]
  00043	3d a5 00 00 00	 cmp	 eax, 165		; 000000a5H
  00048	0f 87 10 05 00
	00		 ja	 $LN47@WinProc
  0004e	48 8d 15 00 00
	00 00		 lea	 rdx, OFFSET FLAT:__ImageBase
  00055	0f b6 84 02 00
	00 00 00	 movzx	 eax, BYTE PTR $LN69@WinProc[rdx+rax]
  0005d	8b 8c 82 00 00
	00 00		 mov	 ecx, DWORD PTR $LN70@WinProc[rdx+rax*4]
  00064	48 03 ca	 add	 rcx, rdx
  00067	ff e1		 jmp	 rcx
$LN4@WinProc:

; 89   : 	{
; 90   : 	case WM_CREATE:
; 91   : 		GetWindowRect(&orgRect);

  00069	48 8b 03	 mov	 rax, QWORD PTR [rbx]
  0006c	48 8d 53 30	 lea	 rdx, QWORD PTR [rbx+48]
  00070	48 8b cb	 mov	 rcx, rbx
  00073	ff 90 78 02 00
	00		 call	 QWORD PTR [rax+632]

; 92   : 		done = EvCreate(lParam);

  00079	48 8b 03	 mov	 rax, QWORD PTR [rbx]
  0007c	48 8b d6	 mov	 rdx, rsi
  0007f	48 8b cb	 mov	 rcx, rbx
  00082	ff 50 50	 call	 QWORD PTR [rax+80]
  00085	8b c8		 mov	 ecx, eax

; 93   : 		break;

  00087	e9 3c 05 00 00	 jmp	 $LN51@WinProc
$LN5@WinProc:

; 94   : 
; 95   : 	case WM_CLOSE:
; 96   : 		done = EvClose();

  0008c	48 8b 03	 mov	 rax, QWORD PTR [rbx]
  0008f	48 8b cb	 mov	 rcx, rbx
  00092	ff 50 58	 call	 QWORD PTR [rax+88]
  00095	8b c8		 mov	 ecx, eax

; 97   : 		break;

  00097	e9 2c 05 00 00	 jmp	 $LN51@WinProc
$LN9@WinProc:

; 110  : 
; 111  : 	case WM_DESTROY:
; 112  : 		done = EvDestroy();

  0009c	48 8b 03	 mov	 rax, QWORD PTR [rbx]
  0009f	48 8b cb	 mov	 rcx, rbx
  000a2	ff 50 60	 call	 QWORD PTR [rax+96]
  000a5	8b c8		 mov	 ecx, eax

; 113  : 		break;

  000a7	e9 1c 05 00 00	 jmp	 $LN51@WinProc
$LN10@WinProc:

; 114  : 
; 115  : 	case WM_NCDESTROY:
; 116  : 		if (!::IsIconic(hWnd)) {

  000ac	48 8b 4b 60	 mov	 rcx, QWORD PTR [rbx+96]
  000b0	ff 15 00 00 00
	00		 call	 QWORD PTR __imp_IsIconic
  000b6	85 c0		 test	 eax, eax
  000b8	75 10		 jne	 SHORT $LN11@WinProc

; 117  : 			GetWindowRect(&rect);

  000ba	48 8b 03	 mov	 rax, QWORD PTR [rbx]
  000bd	48 8d 53 20	 lea	 rdx, QWORD PTR [rbx+32]
  000c1	48 8b cb	 mov	 rcx, rbx
  000c4	ff 90 78 02 00
	00		 call	 QWORD PTR [rax+632]
$LN11@WinProc:

; 118  : 		}
; 119  : 		if (!EvNcDestroy()) {// hWnd0

  000ca	48 8b 03	 mov	 rax, QWORD PTR [rbx]
  000cd	48 8b cb	 mov	 rcx, rbx
  000d0	ff 50 68	 call	 QWORD PTR [rax+104]
  000d3	85 c0		 test	 eax, eax
  000d5	75 14		 jne	 SHORT $LN12@WinProc

; 120  : 			DefWindowProc(uMsg, wParam, lParam);

  000d7	48 8b 03	 mov	 rax, QWORD PTR [rbx]
  000da	4c 8b ce	 mov	 r9, rsi
  000dd	4c 8b c5	 mov	 r8, rbp
  000e0	8b d7		 mov	 edx, edi
  000e2	48 8b cb	 mov	 rcx, rbx
  000e5	ff 90 68 03 00
	00		 call	 QWORD PTR [rax+872]
$LN12@WinProc:

; 121  : 		}
; 122  : 		done = TRUE;
; 123  : 		TApp::GetApp()->DelWin(this);

  000eb	48 8b 05 00 00
	00 00		 mov	 rax, QWORD PTR ?tapp@TApp@@1PEAV1@EA ; TApp::tapp
; File f:\software1\\fastcopy\fastcopy325src\src\tlib\tlib.h

; 649  : 	void	DelWin(TWin *win) { hash->UnRegister(win); }

  000f2	48 8b d3	 mov	 rdx, rbx
  000f5	48 8b 48 08	 mov	 rcx, QWORD PTR [rax+8]
  000f9	48 8b 01	 mov	 rax, QWORD PTR [rcx]
  000fc	ff 50 28	 call	 QWORD PTR [rax+40]
; File f:\software1\\fastcopy\fastcopy325src\src\tlib\twin.cpp

; 302  : 	return	done ? result : DefWindowProc(uMsg, wParam, lParam);

  000ff	48 8b 44 24 30	 mov	 rax, QWORD PTR result$[rsp]
  00104	48 c7 43 60 00
	00 00 00	 mov	 QWORD PTR [rbx+96], 0
  0010c	e9 bd 01 00 00	 jmp	 $LN60@WinProc
$LN13@WinProc:

; 124  : 		hWnd = 0;
; 125  : 		break;
; 126  : 
; 127  : 	case WM_QUERYENDSESSION:
; 128  : 		result = EvQueryEndSession((BOOL)wParam, (BOOL)lParam);

  00111	48 8b 03	 mov	 rax, QWORD PTR [rbx]
  00114	44 8b c6	 mov	 r8d, esi
  00117	8b d5		 mov	 edx, ebp
  00119	48 8b cb	 mov	 rcx, rbx
  0011c	ff 50 70	 call	 QWORD PTR [rax+112]
  0011f	48 63 c8	 movsxd	 rcx, eax
  00122	48 89 4c 24 30	 mov	 QWORD PTR result$[rsp], rcx

; 302  : 	return	done ? result : DefWindowProc(uMsg, wParam, lParam);

  00127	48 8b c1	 mov	 rax, rcx
  0012a	e9 9f 01 00 00	 jmp	 $LN60@WinProc
$LN14@WinProc:

; 129  : 		done = TRUE;
; 130  : 		break;
; 131  : 
; 132  : 	case WM_ENDSESSION:
; 133  : 		done = EvEndSession((BOOL)wParam, (BOOL)lParam);

  0012f	48 8b 03	 mov	 rax, QWORD PTR [rbx]
  00132	44 8b c6	 mov	 r8d, esi
  00135	8b d5		 mov	 edx, ebp
  00137	48 8b cb	 mov	 rcx, rbx
  0013a	ff 50 78	 call	 QWORD PTR [rax+120]
  0013d	8b c8		 mov	 ecx, eax

; 134  : 		break;

  0013f	e9 84 04 00 00	 jmp	 $LN51@WinProc
$LN16@WinProc:

; 139  : 
; 140  : 	case WM_QUERYOPEN:
; 141  : 		result = EvQueryOpen();

  00144	48 8b 03	 mov	 rax, QWORD PTR [rbx]
  00147	48 8b cb	 mov	 rcx, rbx
  0014a	ff 90 88 00 00
	00		 call	 QWORD PTR [rax+136]
  00150	48 63 c8	 movsxd	 rcx, eax
  00153	48 89 4c 24 30	 mov	 QWORD PTR result$[rsp], rcx

; 302  : 	return	done ? result : DefWindowProc(uMsg, wParam, lParam);

  00158	48 8b c1	 mov	 rax, rcx
  0015b	e9 6e 01 00 00	 jmp	 $LN60@WinProc
$LN17@WinProc:

; 142  : 		done = TRUE;
; 143  : 		break;
; 144  : 
; 145  : 	case WM_PAINT:
; 146  : 		done = EvPaint();

  00160	48 8b 03	 mov	 rax, QWORD PTR [rbx]
  00163	48 8b cb	 mov	 rcx, rbx
  00166	ff 90 90 00 00
	00		 call	 QWORD PTR [rax+144]
  0016c	8b c8		 mov	 ecx, eax

; 147  : 		break;

  0016e	e9 55 04 00 00	 jmp	 $LN51@WinProc
$LN18@WinProc:

; 148  : 
; 149  : 	case WM_NCPAINT:
; 150  : 		done = EvNcPaint((HRGN)wParam);

  00173	48 8b 03	 mov	 rax, QWORD PTR [rbx]
  00176	48 8b d5	 mov	 rdx, rbp
  00179	48 8b cb	 mov	 rcx, rbx
  0017c	ff 90 98 00 00
	00		 call	 QWORD PTR [rax+152]
  00182	8b c8		 mov	 ecx, eax

; 151  : 		break;

  00184	e9 3f 04 00 00	 jmp	 $LN51@WinProc
$LN20@WinProc:

; 157  : 
; 158  : 	case WM_SIZE:
; 159  : 		done = EvSize((UINT)wParam, LOWORD(lParam), HIWORD(lParam));

  00189	4c 8b 13	 mov	 r10, QWORD PTR [rbx]
  0018c	44 0f b7 c6	 movzx	 r8d, si
  00190	49 c1 e9 10	 shr	 r9, 16
  00194	8b d5		 mov	 edx, ebp
  00196	48 8b cb	 mov	 rcx, rbx
  00199	41 ff 92 a0 00
	00 00		 call	 QWORD PTR [r10+160]
  001a0	8b c8		 mov	 ecx, eax

; 160  : 		break;

  001a2	e9 21 04 00 00	 jmp	 $LN51@WinProc
$LN21@WinProc:

; 161  : 
; 162  : 	case WM_MOVE:
; 163  : 		done = EvMove(LOWORD(lParam), HIWORD(lParam));

  001a7	4c 8b 0b	 mov	 r9, QWORD PTR [rbx]
  001aa	48 8b c6	 mov	 rax, rsi
  001ad	48 c1 e8 10	 shr	 rax, 16
  001b1	48 8b cb	 mov	 rcx, rbx
  001b4	44 0f b7 c0	 movzx	 r8d, ax
  001b8	0f b7 d6	 movzx	 edx, si
  001bb	41 ff 91 a8 00
	00 00		 call	 QWORD PTR [r9+168]
  001c2	8b c8		 mov	 ecx, eax

; 164  : 		break;

  001c4	e9 ff 03 00 00	 jmp	 $LN51@WinProc
$LN22@WinProc:

; 165  : 
; 166  : 	case WM_SHOWWINDOW:
; 167  : 		done = EvShowWindow((BOOL)wParam, (int)lParam);

  001c9	48 8b 03	 mov	 rax, QWORD PTR [rbx]
  001cc	44 8b c6	 mov	 r8d, esi
  001cf	8b d5		 mov	 edx, ebp
  001d1	48 8b cb	 mov	 rcx, rbx
  001d4	ff 90 b0 00 00
	00		 call	 QWORD PTR [rax+176]
  001da	8b c8		 mov	 ecx, eax

; 168  : 		break;

  001dc	e9 e7 03 00 00	 jmp	 $LN51@WinProc
$LN23@WinProc:

; 169  : 
; 170  : 	case WM_GETMINMAXINFO:
; 171  : 		done = EvGetMinMaxInfo((MINMAXINFO *)lParam);

  001e1	48 8b 03	 mov	 rax, QWORD PTR [rbx]
  001e4	48 8b d6	 mov	 rdx, rsi
  001e7	48 8b cb	 mov	 rcx, rbx
  001ea	ff 90 b8 00 00
	00		 call	 QWORD PTR [rax+184]
  001f0	8b c8		 mov	 ecx, eax

; 172  : 		break;

  001f2	e9 d1 03 00 00	 jmp	 $LN51@WinProc
$LN24@WinProc:

; 173  : 
; 174  : 	case WM_SETCURSOR:
; 175  : 		result = done = EvSetCursor((HWND)wParam, LOWORD(lParam), HIWORD(lParam));

  001f7	4c 8b 13	 mov	 r10, QWORD PTR [rbx]
  001fa	44 0f b7 c6	 movzx	 r8d, si
  001fe	49 c1 e9 10	 shr	 r9, 16
  00202	48 8b d5	 mov	 rdx, rbp
  00205	48 8b cb	 mov	 rcx, rbx
  00208	41 ff 92 c8 00
	00 00		 call	 QWORD PTR [r10+200]

; 176  : 		break;

  0020f	e9 ac 03 00 00	 jmp	 $LN71@WinProc
$LN26@WinProc:

; 181  : 
; 182  : 	case WM_NCHITTEST:
; 183  : 		done = EvNcHitTest(MAKEPOINTS(lParam), &result);

  00214	48 8b 03	 mov	 rax, QWORD PTR [rbx]
  00217	4c 8d 44 24 30	 lea	 r8, QWORD PTR result$[rsp]
  0021c	8b d6		 mov	 edx, esi
  0021e	48 8b cb	 mov	 rcx, rbx
  00221	ff 90 d8 00 00
	00		 call	 QWORD PTR [rax+216]
  00227	8b c8		 mov	 ecx, eax

; 184  : 		break;

  00229	e9 9a 03 00 00	 jmp	 $LN51@WinProc
$LN27@WinProc:

; 185  : 
; 186  : 	case WM_MEASUREITEM:
; 187  : 		result = done = EvMeasureItem((UINT)wParam, (LPMEASUREITEMSTRUCT)lParam);

  0022e	48 8b 03	 mov	 rax, QWORD PTR [rbx]
  00231	4c 8b c6	 mov	 r8, rsi
  00234	8b d5		 mov	 edx, ebp
  00236	48 8b cb	 mov	 rcx, rbx
  00239	ff 90 e0 00 00
	00		 call	 QWORD PTR [rax+224]

; 188  : 		break;

  0023f	e9 7c 03 00 00	 jmp	 $LN71@WinProc
$LN28@WinProc:

; 189  : 
; 190  : 	case WM_DRAWITEM:
; 191  : 		result = done = EvDrawItem((UINT)wParam, (LPDRAWITEMSTRUCT)lParam);

  00244	48 8b 03	 mov	 rax, QWORD PTR [rbx]
  00247	4c 8b c6	 mov	 r8, rsi
  0024a	8b d5		 mov	 edx, ebp
  0024c	48 8b cb	 mov	 rcx, rbx
  0024f	ff 90 e8 00 00
	00		 call	 QWORD PTR [rax+232]

; 192  : 		break;

  00255	e9 66 03 00 00	 jmp	 $LN71@WinProc
$LN29@WinProc:

; 193  : 
; 194  : 	case WM_NOTIFY:
; 195  : 		result = done = EvNotify((UINT)wParam, (LPNMHDR)lParam);

  0025a	48 8b 03	 mov	 rax, QWORD PTR [rbx]
  0025d	4c 8b c6	 mov	 r8, rsi
  00260	8b d5		 mov	 edx, ebp
  00262	48 8b cb	 mov	 rcx, rbx
  00265	ff 90 00 01 00
	00		 call	 QWORD PTR [rax+256]

; 196  : 		break;

  0026b	e9 50 03 00 00	 jmp	 $LN71@WinProc
$LN30@WinProc:

; 197  : 
; 198  : 	case WM_CONTEXTMENU:
; 199  : 		result = done = EvContextMenu((HWND)wParam, MAKEPOINTS(lParam));

  00270	48 8b 03	 mov	 rax, QWORD PTR [rbx]
  00273	44 8b c6	 mov	 r8d, esi
  00276	48 8b d5	 mov	 rdx, rbp
  00279	48 8b cb	 mov	 rcx, rbx
  0027c	ff 90 08 01 00
	00		 call	 QWORD PTR [rax+264]

; 200  : 		break;

  00282	e9 39 03 00 00	 jmp	 $LN71@WinProc
$LN32@WinProc:

; 204  : 		break;
; 205  : 
; 206  : 	case WM_ACTIVATEAPP:
; 207  : 		done = EvActivateApp((BOOL)wParam, (DWORD)lParam);

  00287	48 8b 03	 mov	 rax, QWORD PTR [rbx]
  0028a	44 8b c6	 mov	 r8d, esi
  0028d	8b d5		 mov	 edx, ebp
  0028f	48 8b cb	 mov	 rcx, rbx
  00292	ff 90 18 01 00
	00		 call	 QWORD PTR [rax+280]
  00298	8b c8		 mov	 ecx, eax

; 208  : 		break;

  0029a	e9 29 03 00 00	 jmp	 $LN51@WinProc
$LN33@WinProc:

; 209  : 
; 210  : 	case WM_ACTIVATE:
; 211  : 		EvActivate(LOWORD(wParam), HIWORD(wParam), (HWND)lParam);

  0029f	4c 8b 13	 mov	 r10, QWORD PTR [rbx]
  002a2	48 8b c5	 mov	 rax, rbp
  002a5	48 c1 e8 10	 shr	 rax, 16
  002a9	48 8b cb	 mov	 rcx, rbx
  002ac	44 0f b7 c0	 movzx	 r8d, ax
  002b0	0f b7 d5	 movzx	 edx, bp
  002b3	41 ff 92 20 01
	00 00		 call	 QWORD PTR [r10+288]
$LN59@WinProc:

; 302  : 	return	done ? result : DefWindowProc(uMsg, wParam, lParam);

  002ba	48 8b 03	 mov	 rax, QWORD PTR [rbx]
  002bd	4c 8b ce	 mov	 r9, rsi
  002c0	4c 8b c5	 mov	 r8, rbp
  002c3	8b d7		 mov	 edx, edi
  002c5	48 8b cb	 mov	 rcx, rbx
  002c8	ff 90 68 03 00
	00		 call	 QWORD PTR [rax+872]
$LN60@WinProc:

; 303  : }

  002ce	48 8b 5c 24 50	 mov	 rbx, QWORD PTR [rsp+80]
  002d3	48 8b 6c 24 58	 mov	 rbp, QWORD PTR [rsp+88]
  002d8	48 8b 74 24 60	 mov	 rsi, QWORD PTR [rsp+96]
  002dd	48 83 c4 40	 add	 rsp, 64			; 00000040H
  002e1	5f		 pop	 rdi
  002e2	c3		 ret	 0
$LN36@WinProc:

; 221  : 
; 222  : 	case WM_WINDOWPOSCHANGING:
; 223  : 		done = EvWindowPosChanging((WINDOWPOS *)lParam);

  002e3	48 8b 03	 mov	 rax, QWORD PTR [rbx]
  002e6	48 8b d6	 mov	 rdx, rsi
  002e9	48 8b cb	 mov	 rcx, rbx
  002ec	ff 90 38 01 00
	00		 call	 QWORD PTR [rax+312]
  002f2	8b c8		 mov	 ecx, eax

; 224  : 		break;

  002f4	e9 cf 02 00 00	 jmp	 $LN51@WinProc
$LN37@WinProc:

; 225  : 
; 226  : 	case WM_WINDOWPOSCHANGED:
; 227  : 		done = EvWindowPosChanged((WINDOWPOS *)lParam);

  002f9	48 8b 03	 mov	 rax, QWORD PTR [rbx]
  002fc	48 8b d6	 mov	 rdx, rsi
  002ff	48 8b cb	 mov	 rcx, rbx
  00302	ff 90 30 01 00
	00		 call	 QWORD PTR [rax+304]
  00308	8b c8		 mov	 ecx, eax

; 228  : 		break;

  0030a	e9 b9 02 00 00	 jmp	 $LN51@WinProc
$LN46@WinProc:

; 283  : 
; 284  : 	case WM_KILLFOCUS:
; 285  : 	case WM_SETFOCUS:
; 286  : 		done = EventFocus(uMsg, (HWND)wParam);

  0030f	48 8b 03	 mov	 rax, QWORD PTR [rbx]
  00312	8b d7		 mov	 edx, edi
  00314	48 8b cb	 mov	 rcx, rbx
  00317	ff 90 70 01 00
	00		 call	 QWORD PTR [rax+368]
  0031d	8b c8		 mov	 ecx, eax

; 287  : 		break;

  0031f	e9 a4 02 00 00	 jmp	 $LN51@WinProc
$LN40@WinProc:

; 249  : 
; 250  : 	case WM_KEYUP:
; 251  : 	case WM_KEYDOWN:
; 252  : 		done = EventKey(uMsg, (int)wParam, (LONG)lParam);

  00324	48 8b 01	 mov	 rax, QWORD PTR [rcx]
  00327	ff 90 50 01 00
	00		 call	 QWORD PTR [rax+336]
  0032d	8b c8		 mov	 ecx, eax

; 253  : 		break;

  0032f	e9 94 02 00 00	 jmp	 $LN51@WinProc
$LN55@WinProc:

; 87   : 
; 88   : 	switch(uMsg)

  00334	81 ff 11 01 00
	00		 cmp	 edi, 273		; 00000111H
  0033a	77 39		 ja	 SHORT $LN56@WinProc
  0033c	74 22		 je	 SHORT $LN6@WinProc
  0033e	81 ff 02 01 00
	00		 cmp	 edi, 258		; 00000102H
  00344	0f 85 14 02 00
	00		 jne	 $LN47@WinProc

; 217  : 
; 218  : 	case WM_CHAR:
; 219  : 		done = EvChar((WCHAR)wParam, lParam);

  0034a	48 8b 01	 mov	 rax, QWORD PTR [rcx]
  0034d	4c 8b c6	 mov	 r8, rsi
  00350	0f b7 d5	 movzx	 edx, bp
  00353	ff 90 28 01 00
	00		 call	 QWORD PTR [rax+296]
  00359	8b c8		 mov	 ecx, eax

; 220  : 		break;

  0035b	e9 68 02 00 00	 jmp	 $LN51@WinProc
$LN6@WinProc:

; 98   : 
; 99   : 	case WM_COMMAND:
; 100  : 		done = EvCommand(HIWORD(wParam), LOWORD(wParam), lParam);

  00360	4c 8b 11	 mov	 r10, QWORD PTR [rcx]
  00363	48 8b d5	 mov	 rdx, rbp
  00366	48 c1 ea 10	 shr	 rdx, 16
  0036a	41 ff 52 40	 call	 QWORD PTR [r10+64]
  0036e	8b c8		 mov	 ecx, eax

; 101  : 		break;

  00370	e9 53 02 00 00	 jmp	 $LN51@WinProc
$LN56@WinProc:

; 87   : 
; 88   : 	switch(uMsg)

  00375	81 ff 06 02 00
	00		 cmp	 edi, 518		; 00000206H
  0037b	0f 87 27 01 00
	00		 ja	 $LN57@WinProc
  00381	81 ff 01 02 00
	00		 cmp	 edi, 513		; 00000201H
  00387	0f 83 06 01 00
	00		 jae	 $LN39@WinProc
  0038d	8d 82 ee fe ff
	ff		 lea	 eax, DWORD PTR [rdx-274]
  00393	3d ee 00 00 00	 cmp	 eax, 238		; 000000eeH
  00398	0f 87 c0 01 00
	00		 ja	 $LN47@WinProc
  0039e	48 8d 15 00 00
	00 00		 lea	 rdx, OFFSET FLAT:__ImageBase
  003a5	0f b6 84 02 00
	00 00 00	 movzx	 eax, BYTE PTR $LN67@WinProc[rdx+rax]
  003ad	8b 8c 82 00 00
	00 00		 mov	 ecx, DWORD PTR $LN68@WinProc[rdx+rax*4]
  003b4	48 03 ca	 add	 rcx, rdx
  003b7	ff e1		 jmp	 rcx
$LN7@WinProc:

; 102  : 
; 103  : 	case WM_SYSCOMMAND:
; 104  : 		done = EvSysCommand(wParam, MAKEPOINTS(lParam));

  003b9	48 8b 03	 mov	 rax, QWORD PTR [rbx]
  003bc	44 8b c6	 mov	 r8d, esi
  003bf	48 8b d5	 mov	 rdx, rbp
  003c2	48 8b cb	 mov	 rcx, rbx
  003c5	ff 50 48	 call	 QWORD PTR [rax+72]
  003c8	8b c8		 mov	 ecx, eax

; 105  : 		break;

  003ca	e9 f9 01 00 00	 jmp	 $LN51@WinProc
$LN8@WinProc:

; 106  : 
; 107  : 	case WM_TIMER:
; 108  : 		done = EvTimer(wParam, (TIMERPROC)lParam);

  003cf	48 8b 03	 mov	 rax, QWORD PTR [rbx]
  003d2	4c 8b c6	 mov	 r8, rsi
  003d5	48 8b d5	 mov	 rdx, rbp
  003d8	48 8b cb	 mov	 rcx, rbx
  003db	ff 90 c0 00 00
	00		 call	 QWORD PTR [rax+192]
  003e1	8b c8		 mov	 ecx, eax

; 109  : 		break;

  003e3	e9 e0 01 00 00	 jmp	 $LN51@WinProc
$LN25@WinProc:

; 177  : 
; 178  : 	case WM_MOUSEMOVE:
; 179  : 		done = EvMouseMove((UINT)wParam, MAKEPOINTS(lParam));

  003e8	48 8b 03	 mov	 rax, QWORD PTR [rbx]
  003eb	44 8b c6	 mov	 r8d, esi
  003ee	8b d5		 mov	 edx, ebp
  003f0	48 8b cb	 mov	 rcx, rbx
  003f3	ff 90 d0 00 00
	00		 call	 QWORD PTR [rax+208]
  003f9	8b c8		 mov	 ecx, eax

; 180  : 		break;

  003fb	e9 c8 01 00 00	 jmp	 $LN51@WinProc
$LN41@WinProc:

; 254  : 
; 255  : 	case WM_HSCROLL:
; 256  : 	case WM_VSCROLL:
; 257  : 		done = EventScrollWrapper(uMsg, LOWORD(wParam), HIWORD(wParam), (HWND)lParam);

  00400	4c 8b 13	 mov	 r10, QWORD PTR [rbx]
  00403	48 8b c5	 mov	 rax, rbp
  00406	48 c1 e8 10	 shr	 rax, 16
  0040a	8b d7		 mov	 edx, edi
  0040c	44 0f b7 c8	 movzx	 r9d, ax
  00410	48 8b cb	 mov	 rcx, rbx
  00413	44 0f b7 c5	 movzx	 r8d, bp
  00417	48 89 74 24 20	 mov	 QWORD PTR [rsp+32], rsi
  0041c	41 ff 92 78 01
	00 00		 call	 QWORD PTR [r10+376]
  00423	8b c8		 mov	 ecx, eax

; 258  : 		break;

  00425	e9 9e 01 00 00	 jmp	 $LN51@WinProc
$LN43@WinProc:

; 264  : 
; 265  : 	case WM_INITMENU:
; 266  : 	case WM_INITMENUPOPUP:
; 267  : 		done = EventInitMenu(uMsg, (HMENU)wParam, LOWORD(lParam), (BOOL)HIWORD(lParam));

  0042a	4c 8b 13	 mov	 r10, QWORD PTR [rbx]
  0042d	48 8b c6	 mov	 rax, rsi
  00430	48 c1 e8 10	 shr	 rax, 16
  00434	8b d7		 mov	 edx, edi
  00436	0f b7 c8	 movzx	 ecx, ax
  00439	89 4c 24 20	 mov	 DWORD PTR [rsp+32], ecx
  0043d	48 8b cb	 mov	 rcx, rbx
  00440	44 0f b7 ce	 movzx	 r9d, si
  00444	41 ff 92 60 01
	00 00		 call	 QWORD PTR [r10+352]
  0044b	8b c8		 mov	 ecx, eax

; 268  : 		break;

  0044d	e9 76 01 00 00	 jmp	 $LN51@WinProc
$LN44@WinProc:

; 269  : 
; 270  : 	case WM_MENUSELECT:
; 271  : 		done = EvMenuSelect(LOWORD(wParam), HIWORD(wParam), (HMENU)lParam);

  00452	4c 8b 13	 mov	 r10, QWORD PTR [rbx]
  00455	48 8b c5	 mov	 rax, rbp
  00458	48 c1 e8 10	 shr	 rax, 16
  0045c	48 8b cb	 mov	 rcx, rbx
  0045f	44 0f b7 c0	 movzx	 r8d, ax
  00463	0f b7 d5	 movzx	 edx, bp
  00466	41 ff 92 f0 00
	00 00		 call	 QWORD PTR [r10+240]
  0046d	8b c8		 mov	 ecx, eax

; 272  : 		break;

  0046f	e9 54 01 00 00	 jmp	 $LN51@WinProc
$LN45@WinProc:

; 273  : 
; 274  : 	case WM_CTLCOLORBTN:
; 275  : 	case WM_CTLCOLORDLG:
; 276  : 	case WM_CTLCOLOREDIT:
; 277  : 	case WM_CTLCOLORLISTBOX:
; 278  : 	case WM_CTLCOLORMSGBOX:
; 279  : 	case WM_CTLCOLORSCROLLBAR:
; 280  : 	case WM_CTLCOLORSTATIC:
; 281  : 		done = EventCtlColor(uMsg, (HDC)wParam, (HWND)lParam, (HBRUSH *)&result);

  00474	48 8b 03	 mov	 rax, QWORD PTR [rbx]
  00477	48 8d 4c 24 30	 lea	 rcx, QWORD PTR result$[rsp]
  0047c	48 89 4c 24 20	 mov	 QWORD PTR [rsp+32], rcx
  00481	8b d7		 mov	 edx, edi
  00483	48 8b cb	 mov	 rcx, rbx
  00486	ff 90 68 01 00
	00		 call	 QWORD PTR [rax+360]
  0048c	8b c8		 mov	 ecx, eax

; 282  : 		break;

  0048e	e9 35 01 00 00	 jmp	 $LN51@WinProc
$LN39@WinProc:

; 234  : 
; 235  : 	case WM_LBUTTONUP:
; 236  : 	case WM_RBUTTONUP:
; 237  : 	case WM_NCLBUTTONUP:
; 238  : 	case WM_NCRBUTTONUP:
; 239  : 	case WM_LBUTTONDOWN:
; 240  : 	case WM_RBUTTONDOWN:
; 241  : 	case WM_NCLBUTTONDOWN:
; 242  : 	case WM_NCRBUTTONDOWN:
; 243  : 	case WM_LBUTTONDBLCLK:
; 244  : 	case WM_RBUTTONDBLCLK:
; 245  : 	case WM_NCLBUTTONDBLCLK:
; 246  : 	case WM_NCRBUTTONDBLCLK:
; 247  : 		done = EventButton(uMsg, (int)wParam, MAKEPOINTS(lParam));

  00493	48 8b 03	 mov	 rax, QWORD PTR [rbx]
  00496	8b d7		 mov	 edx, edi
  00498	48 8b cb	 mov	 rcx, rbx
  0049b	ff 90 48 01 00
	00		 call	 QWORD PTR [rax+328]
  004a1	8b c8		 mov	 ecx, eax

; 248  : 		break;

  004a3	e9 20 01 00 00	 jmp	 $LN51@WinProc
$LN57@WinProc:

; 87   : 
; 88   : 	switch(uMsg)

  004a8	81 ff 33 02 00
	00		 cmp	 edi, 563		; 00000233H
  004ae	0f 87 87 00 00
	00		 ja	 $LN58@WinProc
  004b4	74 72		 je	 SHORT $LN34@WinProc
  004b6	81 ff 0a 02 00
	00		 cmp	 edi, 522		; 0000020aH
  004bc	74 46		 je	 SHORT $LN38@WinProc
  004be	81 ff 10 02 00
	00		 cmp	 edi, 528		; 00000210H
  004c4	0f 86 94 00 00
	00		 jbe	 $LN47@WinProc
  004ca	81 ff 12 02 00
	00		 cmp	 edi, 530		; 00000212H
  004d0	76 22		 jbe	 SHORT $LN42@WinProc
  004d2	81 ff 18 02 00
	00		 cmp	 edi, 536		; 00000218H
  004d8	0f 85 80 00 00
	00		 jne	 $LN47@WinProc

; 135  : 
; 136  : 	case WM_POWERBROADCAST:
; 137  : 		done = EvPowerBroadcast(wParam, lParam);

  004de	48 8b 01	 mov	 rax, QWORD PTR [rcx]
  004e1	4c 8b c6	 mov	 r8, rsi
  004e4	48 8b d5	 mov	 rdx, rbp
  004e7	ff 90 80 00 00
	00		 call	 QWORD PTR [rax+128]
  004ed	8b c8		 mov	 ecx, eax

; 138  : 		break;

  004ef	e9 d4 00 00 00	 jmp	 $LN51@WinProc
$LN42@WinProc:

; 259  : 
; 260  : 	case WM_ENTERMENULOOP:
; 261  : 	case WM_EXITMENULOOP:
; 262  : 		done = EventMenuLoop(uMsg, (BOOL)wParam);

  004f4	48 8b 01	 mov	 rax, QWORD PTR [rcx]
  004f7	ff 90 58 01 00
	00		 call	 QWORD PTR [rax+344]
  004fd	8b c8		 mov	 ecx, eax

; 263  : 		break;

  004ff	e9 c4 00 00 00	 jmp	 $LN51@WinProc
$LN38@WinProc:

; 229  : 
; 230  : 	case WM_MOUSEWHEEL:
; 231  : 		done = EvMouseWheel(GET_KEYSTATE_WPARAM(wParam), GET_WHEEL_DELTA_WPARAM(wParam),

  00504	4c 8b 11	 mov	 r10, QWORD PTR [rcx]
  00507	48 8b c6	 mov	 rax, rsi
  0050a	48 c1 e8 10	 shr	 rax, 16
  0050e	0f b7 d5	 movzx	 edx, bp
  00511	49 c1 e8 10	 shr	 r8, 16
  00515	66 89 44 24 20	 mov	 WORD PTR [rsp+32], ax
  0051a	41 ff 92 40 01
	00 00		 call	 QWORD PTR [r10+320]
  00521	8b c8		 mov	 ecx, eax

; 232  : 			GET_X_LPARAM(lParam), GET_Y_LPARAM(lParam));
; 233  : 		break;

  00523	e9 a0 00 00 00	 jmp	 $LN51@WinProc
$LN34@WinProc:

; 212  : 		break;
; 213  : 
; 214  : 	case WM_DROPFILES:
; 215  : 		done = EvDropFiles((HDROP)wParam);

  00528	48 8b 01	 mov	 rax, QWORD PTR [rcx]
  0052b	48 8b d5	 mov	 rdx, rbp
  0052e	ff 90 f8 00 00
	00		 call	 QWORD PTR [rax+248]
  00534	8b c8		 mov	 ecx, eax

; 216  : 		break;

  00536	e9 8d 00 00 00	 jmp	 $LN51@WinProc
$LN58@WinProc:

; 87   : 
; 88   : 	switch(uMsg)

  0053b	81 ff 12 03 00
	00		 cmp	 edi, 786		; 00000312H
  00541	74 72		 je	 SHORT $LN31@WinProc
  00543	8d 82 e9 fc ff
	ff		 lea	 eax, DWORD PTR [rdx-791]
  00549	83 f8 01	 cmp	 eax, 1
  0054c	77 10		 ja	 SHORT $LN47@WinProc

; 152  : 
; 153  : 	case WM_PRINT:
; 154  : 	case WM_PRINTCLIENT:
; 155  : 		done = EventPrint(uMsg, (HDC)wParam, (DWORD)lParam);

  0054e	48 8b 01	 mov	 rax, QWORD PTR [rcx]
  00551	ff 90 88 01 00
	00		 call	 QWORD PTR [rax+392]

; 156  : 		return	0;

  00557	33 c0		 xor	 eax, eax
  00559	e9 70 fd ff ff	 jmp	 $LN60@WinProc
$LN47@WinProc:

; 288  : 
; 289  : 	default:
; 290  : 		if (uMsg >= WM_APP && uMsg <= 0xBFFF) {

  0055e	8d 87 00 80 ff
	ff		 lea	 eax, DWORD PTR [rdi-32768]
  00564	3d ff 3f 00 00	 cmp	 eax, 16383		; 00003fffH
  00569	77 10		 ja	 SHORT $LN48@WinProc

; 291  : 			result = done = EventApp(uMsg, wParam, lParam);

  0056b	48 8b 03	 mov	 rax, QWORD PTR [rbx]
  0056e	8b d7		 mov	 edx, edi
  00570	48 8b cb	 mov	 rcx, rbx
  00573	ff 90 90 01 00
	00		 call	 QWORD PTR [rax+400]
  00579	eb 45		 jmp	 SHORT $LN71@WinProc
$LN48@WinProc:
  0057b	8d 87 00 fc ff
	ff		 lea	 eax, DWORD PTR [rdi-1024]
  00581	3d ff 7b 00 00	 cmp	 eax, 31743		; 00007bffH
  00586	76 1d		 jbe	 SHORT $LN52@WinProc
  00588	8d 87 00 40 ff
	ff		 lea	 eax, DWORD PTR [rdi-49152]
  0058e	3d ff 3f 00 00	 cmp	 eax, 16383		; 00003fffH
  00593	76 10		 jbe	 SHORT $LN52@WinProc

; 297  : 			result = done = EventSystem(uMsg, wParam, lParam);

  00595	48 8b 03	 mov	 rax, QWORD PTR [rbx]
  00598	8b d7		 mov	 edx, edi
  0059a	48 8b cb	 mov	 rcx, rbx
  0059d	ff 90 a0 01 00
	00		 call	 QWORD PTR [rax+416]
  005a3	eb 1b		 jmp	 SHORT $LN71@WinProc
$LN52@WinProc:

; 292  : 		}
; 293  : 		else if (uMsg >= WM_USER && uMsg < WM_APP || uMsg >= 0xC000 && uMsg <= 0xFFFF) {
; 294  : 			result = done = EventUser(uMsg, wParam, lParam);

  005a5	48 8b 03	 mov	 rax, QWORD PTR [rbx]
  005a8	8b d7		 mov	 edx, edi
  005aa	48 8b cb	 mov	 rcx, rbx
  005ad	ff 90 98 01 00
	00		 call	 QWORD PTR [rax+408]

; 295  : 		}
; 296  : 		else {

  005b3	eb 0b		 jmp	 SHORT $LN71@WinProc
$LN31@WinProc:

; 201  : 
; 202  : 	case WM_HOTKEY:
; 203  : 		result = done = EvHotKey((int)wParam);

  005b5	48 8b 01	 mov	 rax, QWORD PTR [rcx]
  005b8	8b d5		 mov	 edx, ebp
  005ba	ff 90 10 01 00
	00		 call	 QWORD PTR [rax+272]
$LN71@WinProc:
  005c0	48 63 c8	 movsxd	 rcx, eax
  005c3	48 89 4c 24 30	 mov	 QWORD PTR result$[rsp], rcx
$LN51@WinProc:

; 302  : 	return	done ? result : DefWindowProc(uMsg, wParam, lParam);

  005c8	85 c9		 test	 ecx, ecx
  005ca	0f 84 ea fc ff
	ff		 je	 $LN59@WinProc
  005d0	48 8b 44 24 30	 mov	 rax, QWORD PTR result$[rsp]
  005d5	e9 f4 fc ff ff	 jmp	 $LN60@WinProc
  005da	66 90		 npad	 2
$LN70@WinProc:

; 303  : }

  005dc	00 00 00 00	 DD	 $LN4@WinProc
  005e0	00 00 00 00	 DD	 $LN9@WinProc
  005e4	00 00 00 00	 DD	 $LN21@WinProc
  005e8	00 00 00 00	 DD	 $LN20@WinProc
  005ec	00 00 00 00	 DD	 $LN33@WinProc
  005f0	00 00 00 00	 DD	 $LN46@WinProc
  005f4	00 00 00 00	 DD	 $LN17@WinProc
  005f8	00 00 00 00	 DD	 $LN5@WinProc
  005fc	00 00 00 00	 DD	 $LN13@WinProc
  00600	00 00 00 00	 DD	 $LN16@WinProc
  00604	00 00 00 00	 DD	 $LN14@WinProc
  00608	00 00 00 00	 DD	 $LN22@WinProc
  0060c	00 00 00 00	 DD	 $LN32@WinProc
  00610	00 00 00 00	 DD	 $LN24@WinProc
  00614	00 00 00 00	 DD	 $LN23@WinProc
  00618	00 00 00 00	 DD	 $LN28@WinProc
  0061c	00 00 00 00	 DD	 $LN27@WinProc
  00620	00 00 00 00	 DD	 $LN36@WinProc
  00624	00 00 00 00	 DD	 $LN37@WinProc
  00628	00 00 00 00	 DD	 $LN29@WinProc
  0062c	00 00 00 00	 DD	 $LN30@WinProc
  00630	00 00 00 00	 DD	 $LN10@WinProc
  00634	00 00 00 00	 DD	 $LN26@WinProc
  00638	00 00 00 00	 DD	 $LN18@WinProc
  0063c	00 00 00 00	 DD	 $LN39@WinProc
  00640	00 00 00 00	 DD	 $LN47@WinProc
$LN69@WinProc:
  00644	00		 DB	 0
  00645	01		 DB	 1
  00646	02		 DB	 2
  00647	19		 DB	 25
  00648	03		 DB	 3
  00649	04		 DB	 4
  0064a	05		 DB	 5
  0064b	05		 DB	 5
  0064c	19		 DB	 25
  0064d	19		 DB	 25
  0064e	19		 DB	 25
  0064f	19		 DB	 25
  00650	19		 DB	 25
  00651	19		 DB	 25
  00652	06		 DB	 6
  00653	07		 DB	 7
  00654	08		 DB	 8
  00655	19		 DB	 25
  00656	09		 DB	 9
  00657	19		 DB	 25
  00658	19		 DB	 25
  00659	0a		 DB	 10
  0065a	19		 DB	 25
  0065b	0b		 DB	 11
  0065c	19		 DB	 25
  0065d	19		 DB	 25
  0065e	19		 DB	 25
  0065f	0c		 DB	 12
  00660	19		 DB	 25
  00661	19		 DB	 25
  00662	19		 DB	 25
  00663	0d		 DB	 13
  00664	19		 DB	 25
  00665	19		 DB	 25
  00666	19		 DB	 25
  00667	0e		 DB	 14
  00668	19		 DB	 25
  00669	19		 DB	 25
  0066a	19		 DB	 25
  0066b	19		 DB	 25
  0066c	19		 DB	 25
  0066d	19		 DB	 25
  0066e	0f		 DB	 15
  0066f	10		 DB	 16
  00670	19		 DB	 25
  00671	19		 DB	 25
  00672	19		 DB	 25
  00673	19		 DB	 25
  00674	19		 DB	 25
  00675	19		 DB	 25
  00676	19		 DB	 25
  00677	19		 DB	 25
  00678	19		 DB	 25
  00679	19		 DB	 25
  0067a	19		 DB	 25
  0067b	19		 DB	 25
  0067c	19		 DB	 25
  0067d	19		 DB	 25
  0067e	19		 DB	 25
  0067f	19		 DB	 25
  00680	19		 DB	 25
  00681	19		 DB	 25
  00682	19		 DB	 25
  00683	19		 DB	 25
  00684	19		 DB	 25
  00685	19		 DB	 25
  00686	19		 DB	 25
  00687	19		 DB	 25
  00688	19		 DB	 25
  00689	11		 DB	 17
  0068a	12		 DB	 18
  0068b	19		 DB	 25
  0068c	19		 DB	 25
  0068d	19		 DB	 25
  0068e	19		 DB	 25
  0068f	19		 DB	 25
  00690	19		 DB	 25
  00691	13		 DB	 19
  00692	19		 DB	 25
  00693	19		 DB	 25
  00694	19		 DB	 25
  00695	19		 DB	 25
  00696	19		 DB	 25
  00697	19		 DB	 25
  00698	19		 DB	 25
  00699	19		 DB	 25
  0069a	19		 DB	 25
  0069b	19		 DB	 25
  0069c	19		 DB	 25
  0069d	19		 DB	 25
  0069e	19		 DB	 25
  0069f	19		 DB	 25
  006a0	19		 DB	 25
  006a1	19		 DB	 25
  006a2	19		 DB	 25
  006a3	19		 DB	 25
  006a4	19		 DB	 25
  006a5	19		 DB	 25
  006a6	19		 DB	 25
  006a7	19		 DB	 25
  006a8	19		 DB	 25
  006a9	19		 DB	 25
  006aa	19		 DB	 25
  006ab	19		 DB	 25
  006ac	19		 DB	 25
  006ad	19		 DB	 25
  006ae	19		 DB	 25
  006af	19		 DB	 25
  006b0	19		 DB	 25
  006b1	19		 DB	 25
  006b2	19		 DB	 25
  006b3	19		 DB	 25
  006b4	19		 DB	 25
  006b5	19		 DB	 25
  006b6	19		 DB	 25
  006b7	19		 DB	 25
  006b8	19		 DB	 25
  006b9	19		 DB	 25
  006ba	19		 DB	 25
  006bb	19		 DB	 25
  006bc	19		 DB	 25
  006bd	19		 DB	 25
  006be	14		 DB	 20
  006bf	19		 DB	 25
  006c0	19		 DB	 25
  006c1	19		 DB	 25
  006c2	19		 DB	 25
  006c3	19		 DB	 25
  006c4	19		 DB	 25
  006c5	15		 DB	 21
  006c6	19		 DB	 25
  006c7	16		 DB	 22
  006c8	17		 DB	 23
  006c9	19		 DB	 25
  006ca	19		 DB	 25
  006cb	19		 DB	 25
  006cc	19		 DB	 25
  006cd	19		 DB	 25
  006ce	19		 DB	 25
  006cf	19		 DB	 25
  006d0	19		 DB	 25
  006d1	19		 DB	 25
  006d2	19		 DB	 25
  006d3	19		 DB	 25
  006d4	19		 DB	 25
  006d5	19		 DB	 25
  006d6	19		 DB	 25
  006d7	19		 DB	 25
  006d8	19		 DB	 25
  006d9	19		 DB	 25
  006da	19		 DB	 25
  006db	19		 DB	 25
  006dc	19		 DB	 25
  006dd	19		 DB	 25
  006de	19		 DB	 25
  006df	19		 DB	 25
  006e0	19		 DB	 25
  006e1	19		 DB	 25
  006e2	19		 DB	 25
  006e3	19		 DB	 25
  006e4	18		 DB	 24
  006e5	18		 DB	 24
  006e6	18		 DB	 24
  006e7	18		 DB	 24
  006e8	18		 DB	 24
  006e9	18		 DB	 24
  006ea	66 90		 npad	 2
$LN68@WinProc:
  006ec	00 00 00 00	 DD	 $LN7@WinProc
  006f0	00 00 00 00	 DD	 $LN8@WinProc
  006f4	00 00 00 00	 DD	 $LN41@WinProc
  006f8	00 00 00 00	 DD	 $LN43@WinProc
  006fc	00 00 00 00	 DD	 $LN44@WinProc
  00700	00 00 00 00	 DD	 $LN45@WinProc
  00704	00 00 00 00	 DD	 $LN25@WinProc
  00708	00 00 00 00	 DD	 $LN47@WinProc
$LN67@WinProc:
  0070c	00		 DB	 0
  0070d	01		 DB	 1
  0070e	02		 DB	 2
  0070f	02		 DB	 2
  00710	03		 DB	 3
  00711	03		 DB	 3
  00712	07		 DB	 7
  00713	07		 DB	 7
  00714	07		 DB	 7
  00715	07		 DB	 7
  00716	07		 DB	 7
  00717	07		 DB	 7
  00718	07		 DB	 7
  00719	04		 DB	 4
  0071a	07		 DB	 7
  0071b	07		 DB	 7
  0071c	07		 DB	 7
  0071d	07		 DB	 7
  0071e	07		 DB	 7
  0071f	07		 DB	 7
  00720	07		 DB	 7
  00721	07		 DB	 7
  00722	07		 DB	 7
  00723	07		 DB	 7
  00724	07		 DB	 7
  00725	07		 DB	 7
  00726	07		 DB	 7
  00727	07		 DB	 7
  00728	07		 DB	 7
  00729	07		 DB	 7
  0072a	07		 DB	 7
  0072b	07		 DB	 7
  0072c	05		 DB	 5
  0072d	05		 DB	 5
  0072e	05		 DB	 5
  0072f	05		 DB	 5
  00730	05		 DB	 5
  00731	05		 DB	 5
  00732	05		 DB	 5
  00733	07		 DB	 7
  00734	07		 DB	 7
  00735	07		 DB	 7
  00736	07		 DB	 7
  00737	07		 DB	 7
  00738	07		 DB	 7
  00739	07		 DB	 7
  0073a	07		 DB	 7
  0073b	07		 DB	 7
  0073c	07		 DB	 7
  0073d	07		 DB	 7
  0073e	07		 DB	 7
  0073f	07		 DB	 7
  00740	07		 DB	 7
  00741	07		 DB	 7
  00742	07		 DB	 7
  00743	07		 DB	 7
  00744	07		 DB	 7
  00745	07		 DB	 7
  00746	07		 DB	 7
  00747	07		 DB	 7
  00748	07		 DB	 7
  00749	07		 DB	 7
  0074a	07		 DB	 7
  0074b	07		 DB	 7
  0074c	07		 DB	 7
  0074d	07		 DB	 7
  0074e	07		 DB	 7
  0074f	07		 DB	 7
  00750	07		 DB	 7
  00751	07		 DB	 7
  00752	07		 DB	 7
  00753	07		 DB	 7
  00754	07		 DB	 7
  00755	07		 DB	 7
  00756	07		 DB	 7
  00757	07		 DB	 7
  00758	07		 DB	 7
  00759	07		 DB	 7
  0075a	07		 DB	 7
  0075b	07		 DB	 7
  0075c	07		 DB	 7
  0075d	07		 DB	 7
  0075e	07		 DB	 7
  0075f	07		 DB	 7
  00760	07		 DB	 7
  00761	07		 DB	 7
  00762	07		 DB	 7
  00763	07		 DB	 7
  00764	07		 DB	 7
  00765	07		 DB	 7
  00766	07		 DB	 7
  00767	07		 DB	 7
  00768	07		 DB	 7
  00769	07		 DB	 7
  0076a	07		 DB	 7
  0076b	07		 DB	 7
  0076c	07		 DB	 7
  0076d	07		 DB	 7
  0076e	07		 DB	 7
  0076f	07		 DB	 7
  00770	07		 DB	 7
  00771	07		 DB	 7
  00772	07		 DB	 7
  00773	07		 DB	 7
  00774	07		 DB	 7
  00775	07		 DB	 7
  00776	07		 DB	 7
  00777	07		 DB	 7
  00778	07		 DB	 7
  00779	07		 DB	 7
  0077a	07		 DB	 7
  0077b	07		 DB	 7
  0077c	07		 DB	 7
  0077d	07		 DB	 7
  0077e	07		 DB	 7
  0077f	07		 DB	 7
  00780	07		 DB	 7
  00781	07		 DB	 7
  00782	07		 DB	 7
  00783	07		 DB	 7
  00784	07		 DB	 7
  00785	07		 DB	 7
  00786	07		 DB	 7
  00787	07		 DB	 7
  00788	07		 DB	 7
  00789	07		 DB	 7
  0078a	07		 DB	 7
  0078b	07		 DB	 7
  0078c	07		 DB	 7
  0078d	07		 DB	 7
  0078e	07		 DB	 7
  0078f	07		 DB	 7
  00790	07		 DB	 7
  00791	07		 DB	 7
  00792	07		 DB	 7
  00793	07		 DB	 7
  00794	07		 DB	 7
  00795	07		 DB	 7
  00796	07		 DB	 7
  00797	07		 DB	 7
  00798	07		 DB	 7
  00799	07		 DB	 7
  0079a	07		 DB	 7
  0079b	07		 DB	 7
  0079c	07		 DB	 7
  0079d	07		 DB	 7
  0079e	07		 DB	 7
  0079f	07		 DB	 7
  007a0	07		 DB	 7
  007a1	07		 DB	 7
  007a2	07		 DB	 7
  007a3	07		 DB	 7
  007a4	07		 DB	 7
  007a5	07		 DB	 7
  007a6	07		 DB	 7
  007a7	07		 DB	 7
  007a8	07		 DB	 7
  007a9	07		 DB	 7
  007aa	07		 DB	 7
  007ab	07		 DB	 7
  007ac	07		 DB	 7
  007ad	07		 DB	 7
  007ae	07		 DB	 7
  007af	07		 DB	 7
  007b0	07		 DB	 7
  007b1	07		 DB	 7
  007b2	07		 DB	 7
  007b3	07		 DB	 7
  007b4	07		 DB	 7
  007b5	07		 DB	 7
  007b6	07		 DB	 7
  007b7	07		 DB	 7
  007b8	07		 DB	 7
  007b9	07		 DB	 7
  007ba	07		 DB	 7
  007bb	07		 DB	 7
  007bc	07		 DB	 7
  007bd	07		 DB	 7
  007be	07		 DB	 7
  007bf	07		 DB	 7
  007c0	07		 DB	 7
  007c1	07		 DB	 7
  007c2	07		 DB	 7
  007c3	07		 DB	 7
  007c4	07		 DB	 7
  007c5	07		 DB	 7
  007c6	07		 DB	 7
  007c7	07		 DB	 7
  007c8	07		 DB	 7
  007c9	07		 DB	 7
  007ca	07		 DB	 7
  007cb	07		 DB	 7
  007cc	07		 DB	 7
  007cd	07		 DB	 7
  007ce	07		 DB	 7
  007cf	07		 DB	 7
  007d0	07		 DB	 7
  007d1	07		 DB	 7
  007d2	07		 DB	 7
  007d3	07		 DB	 7
  007d4	07		 DB	 7
  007d5	07		 DB	 7
  007d6	07		 DB	 7
  007d7	07		 DB	 7
  007d8	07		 DB	 7
  007d9	07		 DB	 7
  007da	07		 DB	 7
  007db	07		 DB	 7
  007dc	07		 DB	 7
  007dd	07		 DB	 7
  007de	07		 DB	 7
  007df	07		 DB	 7
  007e0	07		 DB	 7
  007e1	07		 DB	 7
  007e2	07		 DB	 7
  007e3	07		 DB	 7
  007e4	07		 DB	 7
  007e5	07		 DB	 7
  007e6	07		 DB	 7
  007e7	07		 DB	 7
  007e8	07		 DB	 7
  007e9	07		 DB	 7
  007ea	07		 DB	 7
  007eb	07		 DB	 7
  007ec	07		 DB	 7
  007ed	07		 DB	 7
  007ee	07		 DB	 7
  007ef	07		 DB	 7
  007f0	07		 DB	 7
  007f1	07		 DB	 7
  007f2	07		 DB	 7
  007f3	07		 DB	 7
  007f4	07		 DB	 7
  007f5	07		 DB	 7
  007f6	07		 DB	 7
  007f7	07		 DB	 7
  007f8	07		 DB	 7
  007f9	07		 DB	 7
  007fa	06		 DB	 6
?WinProc@TWin@@UEAA_JI_K_J@Z ENDP			; TWin::WinProc
_TEXT	ENDS
; Function compile flags: /Ogtpy
; File f:\software1\\fastcopy\fastcopy325src\src\tlib\twin.cpp
;	COMDAT ?DefWindowProcA@TWin@@UEAA_JI_K_J@Z
_TEXT	SEGMENT
this$ = 8
uMsg$ = 16
wParam$ = 24
lParam$ = 32
?DefWindowProcA@TWin@@UEAA_JI_K_J@Z PROC		; TWin::DefWindowProcA, COMDAT

; 307  : 	if (!hWnd) {

  00000	48 8b 41 60	 mov	 rax, QWORD PTR [rcx+96]
  00004	48 85 c0	 test	 rax, rax
  00007	75 01		 jne	 SHORT $LN2@DefWindowP

; 311  : 						::DefWindowProcA(hWnd, uMsg, wParam, lParam);
; 312  : }

  00009	c3		 ret	 0
$LN2@DefWindowP:

; 308  : 		return	0;
; 309  : 	}
; 310  : 	return	isUnicode ? ::DefWindowProcW(hWnd, uMsg, wParam, lParam) :

  0000a	83 79 54 00	 cmp	 DWORD PTR [rcx+84], 0
  0000e	48 8b c8	 mov	 rcx, rax
  00011	74 07		 je	 SHORT $LN4@DefWindowP
  00013	48 ff 25 00 00
	00 00		 rex_jmp QWORD PTR __imp_DefWindowProcW
$LN4@DefWindowP:
  0001a	48 ff 25 00 00
	00 00		 rex_jmp QWORD PTR __imp_DefWindowProcA
?DefWindowProcA@TWin@@UEAA_JI_K_J@Z ENDP		; TWin::DefWindowProcA
_TEXT	ENDS
; Function compile flags: /Ogtpy
; File f:\software1\\fastcopy\fastcopy325src\src\tlib\twin.cpp
; File f:\software1\\fastcopy\fastcopy325src\src\tlib\tlib.h
; File f:\software1\\fastcopy\fastcopy325src\src\tlib\twin.cpp
; File f:\software1\\fastcopy\fastcopy325src\src\tlib\tlib.h
; File f:\software1\\fastcopy\fastcopy325src\src\tlib\twin.cpp
;	COMDAT ?CreateTipWnd@TWin@@UEAAHPEB_WHH@Z
_TEXT	SEGMENT
this$ = 112
tip$ = 120
width$ = 128
tout$ = 136
?CreateTipWnd@TWin@@UEAAHPEB_WHH@Z PROC			; TWin::CreateTipWnd, COMDAT

; 1004 : {

$LN8:
  00000	48 89 5c 24 08	 mov	 QWORD PTR [rsp+8], rbx
  00005	48 89 6c 24 10	 mov	 QWORD PTR [rsp+16], rbp
  0000a	48 89 74 24 18	 mov	 QWORD PTR [rsp+24], rsi
  0000f	48 89 7c 24 20	 mov	 QWORD PTR [rsp+32], rdi
  00014	41 56		 push	 r14
  00016	48 83 ec 60	 sub	 rsp, 96			; 00000060H

; 1005 : 	if (hTipWnd) {

  0001a	48 83 79 68 00	 cmp	 QWORD PTR [rcx+104], 0
  0001f	41 8b f1	 mov	 esi, r9d
  00022	41 8b e8	 mov	 ebp, r8d
  00025	4c 8b f2	 mov	 r14, rdx
  00028	48 8b d9	 mov	 rbx, rcx
  0002b	74 09		 je	 SHORT $LN2@CreateTipW

; 1006 : 		CloseTipWnd();

  0002d	48 8b 01	 mov	 rax, QWORD PTR [rcx]
  00030	ff 90 88 03 00
	00		 call	 QWORD PTR [rax+904]
$LN2@CreateTipW:

; 1007 : 	}
; 1008 : 	if (hWnd) {

  00036	4c 8b 53 60	 mov	 r10, QWORD PTR [rbx+96]
  0003a	33 ff		 xor	 edi, edi
  0003c	4d 85 d2	 test	 r10, r10
  0003f	74 6f		 je	 SHORT $LN3@CreateTipW
; File f:\software1\\fastcopy\fastcopy325src\src\tlib\tlib.h

; 657  : 	static HINSTANCE hInst() { return tapp->hInstance; }

  00041	48 8b 05 00 00
	00 00		 mov	 rax, QWORD PTR ?tapp@TApp@@1PEAV1@EA ; TApp::tapp
; File f:\software1\\fastcopy\fastcopy325src\src\tlib\twin.cpp

; 1009 : 		hTipWnd = ::CreateWindowExW(0, TOOLTIPS_CLASSW, NULL, TTS_ALWAYSTIP,

  00048	44 8d 4f 01	 lea	 r9d, QWORD PTR [rdi+1]
  0004c	48 89 7c 24 58	 mov	 QWORD PTR [rsp+88], rdi
  00051	48 8d 15 00 00
	00 00		 lea	 rdx, OFFSET FLAT:??_C@_1CC@KPOKNCMJ@?$AAt?$AAo?$AAo?$AAl?$AAt?$AAi?$AAp?$AAs?$AA_?$AAc?$AAl?$AAa?$AAs?$AAs?$AA3?$AA2?$AA?$AA@
  00058	45 33 c0	 xor	 r8d, r8d
; File f:\software1\\fastcopy\fastcopy325src\src\tlib\tlib.h

; 657  : 	static HINSTANCE hInst() { return tapp->hInstance; }

  0005b	48 8b 48 40	 mov	 rcx, QWORD PTR [rax+64]
; File f:\software1\\fastcopy\fastcopy325src\src\tlib\twin.cpp

; 1009 : 		hTipWnd = ::CreateWindowExW(0, TOOLTIPS_CLASSW, NULL, TTS_ALWAYSTIP,

  0005f	48 89 4c 24 50	 mov	 QWORD PTR [rsp+80], rcx
  00064	33 c9		 xor	 ecx, ecx
  00066	48 89 7c 24 48	 mov	 QWORD PTR [rsp+72], rdi
  0006b	4c 89 54 24 40	 mov	 QWORD PTR [rsp+64], r10
  00070	c7 44 24 38 00
	00 00 80	 mov	 DWORD PTR [rsp+56], -2147483648 ; ffffffff80000000H
  00078	c7 44 24 30 00
	00 00 80	 mov	 DWORD PTR [rsp+48], -2147483648 ; ffffffff80000000H
  00080	c7 44 24 28 00
	00 00 80	 mov	 DWORD PTR [rsp+40], -2147483648 ; ffffffff80000000H
  00088	c7 44 24 20 00
	00 00 80	 mov	 DWORD PTR [rsp+32], -2147483648 ; ffffffff80000000H
  00090	ff 15 00 00 00
	00		 call	 QWORD PTR __imp_CreateWindowExW

; 1010 : 			CW_USEDEFAULT, CW_USEDEFAULT, CW_USEDEFAULT, CW_USEDEFAULT,
; 1011 : 			hWnd, NULL, TApp::hInst(), NULL);
; 1012 : 
; 1013 : 		SetTipTextW(tip, width, tout);

  00096	4c 8b 13	 mov	 r10, QWORD PTR [rbx]
  00099	44 8b ce	 mov	 r9d, esi
  0009c	44 8b c5	 mov	 r8d, ebp
  0009f	48 89 43 68	 mov	 QWORD PTR [rbx+104], rax
  000a3	49 8b d6	 mov	 rdx, r14
  000a6	48 8b cb	 mov	 rcx, rbx
  000a9	41 ff 92 80 03
	00 00		 call	 QWORD PTR [r10+896]
$LN3@CreateTipW:

; 1014 : 	}
; 1015 : 	return	hTipWnd ? TRUE : FALSE;

  000b0	48 39 7b 68	 cmp	 QWORD PTR [rbx+104], rdi

; 1016 : }

  000b4	4c 8d 5c 24 60	 lea	 r11, QWORD PTR [rsp+96]
  000b9	49 8b 5b 10	 mov	 rbx, QWORD PTR [r11+16]
  000bd	49 8b 6b 18	 mov	 rbp, QWORD PTR [r11+24]
  000c1	40 0f 95 c7	 setne	 dil
  000c5	49 8b 73 20	 mov	 rsi, QWORD PTR [r11+32]
  000c9	8b c7		 mov	 eax, edi
  000cb	49 8b 7b 28	 mov	 rdi, QWORD PTR [r11+40]
  000cf	49 8b e3	 mov	 rsp, r11
  000d2	41 5e		 pop	 r14
  000d4	c3		 ret	 0
?CreateTipWnd@TWin@@UEAAHPEB_WHH@Z ENDP			; TWin::CreateTipWnd
_TEXT	ENDS
; Function compile flags: /Ogtpy
; File f:\software1\\fastcopy\fastcopy325src\src\tlib\twin.cpp
;	COMDAT ?SetTipTextW@TWin@@UEAAHPEB_WHH@Z
_TEXT	SEGMENT
ti$1 = 32
__$ArrayPad$ = 112
this$ = 160
tip$ = 168
width$ = 176
tout$ = 184
?SetTipTextW@TWin@@UEAAHPEB_WHH@Z PROC			; TWin::SetTipTextW, COMDAT

; 1019 : {

$LN9:
  00000	40 53		 push	 rbx
  00002	56		 push	 rsi
  00003	57		 push	 rdi
  00004	48 81 ec 80 00
	00 00		 sub	 rsp, 128		; 00000080H
  0000b	48 8b 05 00 00
	00 00		 mov	 rax, QWORD PTR __security_cookie
  00012	48 33 c4	 xor	 rax, rsp
  00015	48 89 44 24 70	 mov	 QWORD PTR __$ArrayPad$[rsp], rax

; 1020 : 	if (!hWnd || !hTipWnd) {

  0001a	48 83 79 60 00	 cmp	 QWORD PTR [rcx+96], 0
  0001f	48 8b f2	 mov	 rsi, rdx
  00022	49 63 f9	 movsxd	 rdi, r9d
  00025	48 8b d9	 mov	 rbx, rcx
  00028	0f 84 bf 00 00
	00		 je	 $LN3@SetTipText
  0002e	48 8b 49 68	 mov	 rcx, QWORD PTR [rcx+104]
  00032	48 85 c9	 test	 rcx, rcx
  00035	0f 84 b2 00 00
	00		 je	 $LN3@SetTipText

; 1022 : 	}
; 1023 : 
; 1024 : 	if (width) {

  0003b	45 85 c0	 test	 r8d, r8d
  0003e	74 11		 je	 SHORT $LN4@SetTipText

; 1025 : 		::SendMessageW(hTipWnd, TTM_SETMAXTIPWIDTH, 0, width);

  00040	4d 63 c8	 movsxd	 r9, r8d
  00043	ba 18 04 00 00	 mov	 edx, 1048		; 00000418H
  00048	45 33 c0	 xor	 r8d, r8d
  0004b	ff 15 00 00 00
	00		 call	 QWORD PTR __imp_SendMessageW
$LN4@SetTipText:

; 1026 : 	}
; 1027 : 	if (tout) {

  00051	85 ff		 test	 edi, edi
  00053	74 18		 je	 SHORT $LN5@SetTipText

; 1028 : 		::SendMessageW(hTipWnd, TTM_SETDELAYTIME, TTDT_AUTOPOP, tout);

  00055	48 8b 4b 68	 mov	 rcx, QWORD PTR [rbx+104]
  00059	4c 8b cf	 mov	 r9, rdi
  0005c	ba 03 04 00 00	 mov	 edx, 1027		; 00000403H
  00061	41 b8 02 00 00
	00		 mov	 r8d, 2
  00067	ff 15 00 00 00
	00		 call	 QWORD PTR __imp_SendMessageW
$LN5@SetTipText:

; 1029 : 	}
; 1030 : 
; 1031 : 	if (tip) {

  0006d	48 85 f6	 test	 rsi, rsi
  00070	74 74		 je	 SHORT $LN6@SetTipText

; 1032 : 		TOOLINFOW ti = { sizeof(TOOLINFOW) };

  00072	33 c0		 xor	 eax, eax
  00074	c7 44 24 20 48
	00 00 00	 mov	 DWORD PTR ti$1[rsp], 72	; 00000048H
  0007c	48 89 44 24 24	 mov	 QWORD PTR ti$1[rsp+4], rax

; 1033 : 		GetClientRect(&ti.rect);

  00081	48 8d 54 24 38	 lea	 rdx, QWORD PTR ti$1[rsp+24]
  00086	48 89 44 24 2c	 mov	 QWORD PTR ti$1[rsp+12], rax
  0008b	48 8b cb	 mov	 rcx, rbx
  0008e	48 89 44 24 34	 mov	 QWORD PTR ti$1[rsp+20], rax
  00093	48 89 44 24 3c	 mov	 QWORD PTR ti$1[rsp+28], rax
  00098	48 89 44 24 44	 mov	 QWORD PTR ti$1[rsp+36], rax
  0009d	48 89 44 24 4c	 mov	 QWORD PTR ti$1[rsp+44], rax
  000a2	48 89 44 24 54	 mov	 QWORD PTR ti$1[rsp+52], rax
  000a7	48 89 44 24 5c	 mov	 QWORD PTR ti$1[rsp+60], rax
  000ac	89 44 24 64	 mov	 DWORD PTR ti$1[rsp+68], eax
  000b0	48 8b 03	 mov	 rax, QWORD PTR [rbx]
  000b3	ff 90 80 02 00
	00		 call	 QWORD PTR [rax+640]

; 1034 : 
; 1035 : 		ti.uFlags = TTF_SUBCLASS;
; 1036 : 		ti.hwnd = hWnd;

  000b9	48 8b 43 60	 mov	 rax, QWORD PTR [rbx+96]

; 1037 : 		ti.lpszText = (WCHAR *)tip;
; 1038 : 
; 1039 : 		::SendMessageW(hTipWnd, TTM_ADDTOOLW, 0, (LPARAM)&ti);

  000bd	4c 8d 4c 24 20	 lea	 r9, QWORD PTR ti$1[rsp]
  000c2	48 8b 4b 68	 mov	 rcx, QWORD PTR [rbx+104]
  000c6	45 33 c0	 xor	 r8d, r8d
  000c9	ba 32 04 00 00	 mov	 edx, 1074		; 00000432H
  000ce	48 89 44 24 28	 mov	 QWORD PTR ti$1[rsp+8], rax
  000d3	c7 44 24 24 10
	00 00 00	 mov	 DWORD PTR ti$1[rsp+4], 16
  000db	48 89 74 24 50	 mov	 QWORD PTR ti$1[rsp+48], rsi
  000e0	ff 15 00 00 00
	00		 call	 QWORD PTR __imp_SendMessageW
$LN6@SetTipText:

; 1040 : 	}
; 1041 : 
; 1042 : 	return	TRUE;

  000e6	b8 01 00 00 00	 mov	 eax, 1
  000eb	eb 02		 jmp	 SHORT $LN1@SetTipText
$LN3@SetTipText:

; 1021 : 		return	FALSE;

  000ed	33 c0		 xor	 eax, eax
$LN1@SetTipText:

; 1043 : }

  000ef	48 8b 4c 24 70	 mov	 rcx, QWORD PTR __$ArrayPad$[rsp]
  000f4	48 33 cc	 xor	 rcx, rsp
  000f7	e8 00 00 00 00	 call	 __security_check_cookie
  000fc	48 81 c4 80 00
	00 00		 add	 rsp, 128		; 00000080H
  00103	5f		 pop	 rdi
  00104	5e		 pop	 rsi
  00105	5b		 pop	 rbx
  00106	c3		 ret	 0
?SetTipTextW@TWin@@UEAAHPEB_WHH@Z ENDP			; TWin::SetTipTextW
_TEXT	ENDS
; Function compile flags: /Ogtpy
; File f:\software1\\fastcopy\fastcopy325src\src\tlib\twin.cpp
;	COMDAT ?CloseTipWnd@TWin@@UEAAHXZ
_TEXT	SEGMENT
this$ = 48
?CloseTipWnd@TWin@@UEAAHXZ PROC				; TWin::CloseTipWnd, COMDAT

; 1046 : {

$LN5:
  00000	40 53		 push	 rbx
  00002	48 83 ec 20	 sub	 rsp, 32			; 00000020H
  00006	48 8b d9	 mov	 rbx, rcx

; 1047 : 	if (!hTipWnd) {

  00009	48 8b 49 68	 mov	 rcx, QWORD PTR [rcx+104]
  0000d	48 85 c9	 test	 rcx, rcx
  00010	75 08		 jne	 SHORT $LN2@CloseTipWn

; 1048 : 		return	FALSE;

  00012	33 c0		 xor	 eax, eax

; 1055 : }

  00014	48 83 c4 20	 add	 rsp, 32			; 00000020H
  00018	5b		 pop	 rbx
  00019	c3		 ret	 0
$LN2@CloseTipWn:

; 1049 : 	}
; 1050 : 
; 1051 : 	::DestroyWindow(hTipWnd);

  0001a	ff 15 00 00 00
	00		 call	 QWORD PTR __imp_DestroyWindow

; 1052 : 	hTipWnd = NULL;
; 1053 : 
; 1054 : 	return	TRUE;

  00020	b8 01 00 00 00	 mov	 eax, 1
  00025	48 c7 43 68 00
	00 00 00	 mov	 QWORD PTR [rbx+104], 0

; 1055 : }

  0002d	48 83 c4 20	 add	 rsp, 32			; 00000020H
  00031	5b		 pop	 rbx
  00032	c3		 ret	 0
?CloseTipWnd@TWin@@UEAAHXZ ENDP				; TWin::CloseTipWnd
_TEXT	ENDS
; Function compile flags: /Ogtpy
; File f:\software1\\fastcopy\fastcopy325src\src\tlib\tlib.h
;	COMDAT ?MakeHashId@TWinHashTbl@@QEAAIPEAUHWND__@@@Z
_TEXT	SEGMENT
this$dead$ = 8
hWnd$ = 16
?MakeHashId@TWinHashTbl@@QEAAIPEAUHWND__@@@Z PROC	; TWinHashTbl::MakeHashId, COMDAT

; 616  : 	u_int	MakeHashId(HWND hWnd) { return DWORD_RDC(hWnd) * 0xf3f77d13; }

  00000	69 c2 13 7d f7
	f3		 imul	 eax, edx, -201884397	; f3f77d13H
  00006	c3		 ret	 0
?MakeHashId@TWinHashTbl@@QEAAIPEAUHWND__@@@Z ENDP	; TWinHashTbl::MakeHashId
_TEXT	ENDS
; Function compile flags: /Ogtpy
; File f:\software1\\fastcopy\fastcopy325src\src\tlib\tlib.h
;	COMDAT ?GetDefaultClassW@TApp@@QEAAPEB_WXZ
_TEXT	SEGMENT
this$ = 8
?GetDefaultClassW@TApp@@QEAAPEB_WXZ PROC		; TApp::GetDefaultClassW, COMDAT

; 643  : 	LPCWSTR	GetDefaultClassW() { return defaultClassW; }

  00000	48 8b 41 18	 mov	 rax, QWORD PTR [rcx+24]
  00004	c3		 ret	 0
?GetDefaultClassW@TApp@@QEAAPEB_WXZ ENDP		; TApp::GetDefaultClassW
_TEXT	ENDS
; Function compile flags: /Ogtpy
; File f:\software1\\fastcopy\fastcopy325src\src\tlib\tlib.h
;	COMDAT ?AddWin@TApp@@QEAAXPEAVTWin@@@Z
_TEXT	SEGMENT
this$ = 8
win$ = 16
?AddWin@TApp@@QEAAXPEAVTWin@@@Z PROC			; TApp::AddWin, COMDAT

; 644  : 	void	AddWin(TWin *win) { preWnd = win; }

  00000	48 89 51 38	 mov	 QWORD PTR [rcx+56], rdx
  00004	c3		 ret	 0
?AddWin@TApp@@QEAAXPEAVTWin@@@Z ENDP			; TApp::AddWin
_TEXT	ENDS
; Function compile flags: /Ogtpy
; File f:\software1\\fastcopy\fastcopy325src\src\tlib\tlib.h
;	COMDAT ?AddWinByWnd@TApp@@QEAAXPEAVTWin@@PEAUHWND__@@@Z
_TEXT	SEGMENT
this$ = 8
win$ = 16
hWnd$ = 24
?AddWinByWnd@TApp@@QEAAXPEAVTWin@@PEAUHWND__@@@Z PROC	; TApp::AddWinByWnd, COMDAT

; 646  : 		win->hWnd = hWnd;

  00000	4c 89 42 60	 mov	 QWORD PTR [rdx+96], r8

; 647  : 		hash->Register(win, hash->MakeHashId(hWnd));

  00004	48 8b 49 08	 mov	 rcx, QWORD PTR [rcx+8]

; 616  : 	u_int	MakeHashId(HWND hWnd) { return DWORD_RDC(hWnd) * 0xf3f77d13; }

  00008	45 69 c0 13 7d
	f7 f3		 imul	 r8d, r8d, -201884397	; f3f77d13H

; 647  : 		hash->Register(win, hash->MakeHashId(hWnd));

  0000f	48 8b 01	 mov	 rax, QWORD PTR [rcx]
  00012	48 ff 60 20	 rex_jmp QWORD PTR [rax+32]
?AddWinByWnd@TApp@@QEAAXPEAVTWin@@PEAUHWND__@@@Z ENDP	; TApp::AddWinByWnd
_TEXT	ENDS
; Function compile flags: /Ogtpy
; File f:\software1\\fastcopy\fastcopy325src\src\tlib\tlib.h
;	COMDAT ?DelWin@TApp@@QEAAXPEAVTWin@@@Z
_TEXT	SEGMENT
this$ = 8
win$ = 16
?DelWin@TApp@@QEAAXPEAVTWin@@@Z PROC			; TApp::DelWin, COMDAT

; 649  : 	void	DelWin(TWin *win) { hash->UnRegister(win); }

  00000	48 8b 49 08	 mov	 rcx, QWORD PTR [rcx+8]
  00004	48 8b 01	 mov	 rax, QWORD PTR [rcx]
  00007	48 ff 60 28	 rex_jmp QWORD PTR [rax+40]
?DelWin@TApp@@QEAAXPEAVTWin@@@Z ENDP			; TApp::DelWin
_TEXT	ENDS
; Function compile flags: /Ogtpy
; File f:\software1\\fastcopy\fastcopy325src\src\tlib\tlib.h
;	COMDAT ?GetApp@TApp@@SAPEAV1@XZ
_TEXT	SEGMENT
?GetApp@TApp@@SAPEAV1@XZ PROC				; TApp::GetApp, COMDAT

; 654  : 	static TApp *GetApp() { return tapp; }

  00000	48 8b 05 00 00
	00 00		 mov	 rax, QWORD PTR ?tapp@TApp@@1PEAV1@EA ; TApp::tapp
  00007	c3		 ret	 0
?GetApp@TApp@@SAPEAV1@XZ ENDP				; TApp::GetApp
_TEXT	ENDS
; Function compile flags: /Ogtpy
; File f:\software1\\fastcopy\fastcopy325src\src\tlib\tlib.h
;	COMDAT ?hInst@TApp@@SAPEAUHINSTANCE__@@XZ
_TEXT	SEGMENT
?hInst@TApp@@SAPEAUHINSTANCE__@@XZ PROC			; TApp::hInst, COMDAT

; 657  : 	static HINSTANCE hInst() { return tapp->hInstance; }

  00000	48 8b 05 00 00
	00 00		 mov	 rax, QWORD PTR ?tapp@TApp@@1PEAV1@EA ; TApp::tapp
  00007	48 8b 40 40	 mov	 rax, QWORD PTR [rax+64]
  0000b	c3		 ret	 0
?hInst@TApp@@SAPEAUHINSTANCE__@@XZ ENDP			; TApp::hInst
_TEXT	ENDS
; Function compile flags: /Ogtpy
; File f:\software1\\fastcopy\fastcopy325src\src\tlib\tlib.h
;	COMDAT ?GenTWinID@TApp@@SAKXZ
_TEXT	SEGMENT
?GenTWinID@TApp@@SAKXZ PROC				; TApp::GenTWinID, COMDAT

; 659  : 	static DWORD  GenTWinID() { return tapp ? tapp->twinId++ : 0; }

  00000	48 8b 15 00 00
	00 00		 mov	 rdx, QWORD PTR ?tapp@TApp@@1PEAV1@EA ; TApp::tapp
  00007	48 85 d2	 test	 rdx, rdx
  0000a	74 0a		 je	 SHORT $LN3@GenTWinID
  0000c	8b 42 48	 mov	 eax, DWORD PTR [rdx+72]
  0000f	8d 48 01	 lea	 ecx, DWORD PTR [rax+1]
  00012	89 4a 48	 mov	 DWORD PTR [rdx+72], ecx
  00015	c3		 ret	 0
$LN3@GenTWinID:
  00016	33 c0		 xor	 eax, eax
  00018	c3		 ret	 0
?GenTWinID@TApp@@SAKXZ ENDP				; TApp::GenTWinID
_TEXT	ENDS
; Function compile flags: /Ogtpy
; File f:\software1\\fastcopy\fastcopy325src\src\tlib\tapi32u8.h
;	COMDAT ??0Wstr@@QEAA@H@Z
_TEXT	SEGMENT
this$ = 48
len$ = 56
??0Wstr@@QEAA@H@Z PROC					; Wstr::Wstr, COMDAT

; 83   : 	Wstr(int len) {

$LN14:
  00000	48 89 5c 24 08	 mov	 QWORD PTR [rsp+8], rbx
  00005	48 89 74 24 10	 mov	 QWORD PTR [rsp+16], rsi
  0000a	57		 push	 rdi
  0000b	48 83 ec 20	 sub	 rsp, 32			; 00000020H

; 66   : 		str = NULL;

  0000f	33 f6		 xor	 esi, esi

; 118  : 		len = -1;

  00011	48 83 cf ff	 or	 rdi, -1

; 66   : 		str = NULL;

  00015	48 89 31	 mov	 QWORD PTR [rcx], rsi

; 83   : 	Wstr(int len) {

  00018	48 8b d9	 mov	 rbx, rcx

; 118  : 		len = -1;

  0001b	89 79 08	 mov	 DWORD PTR [rcx+8], edi

; 105  : 		if (_len) {

  0001e	85 d2		 test	 edx, edx
  00020	74 33		 je	 SHORT $LN6@Wstr

; 106  : 			str = new WCHAR [_len];

  00022	48 63 d2	 movsxd	 rdx, edx
  00025	b8 02 00 00 00	 mov	 eax, 2
  0002a	48 f7 e2	 mul	 rdx
  0002d	48 0f 40 c7	 cmovo	 rax, rdi
  00031	48 8b c8	 mov	 rcx, rax
  00034	e8 00 00 00 00	 call	 ??_U@YAPEAX_K@Z		; operator new[]
  00039	48 89 03	 mov	 QWORD PTR [rbx], rax

; 107  : 			*str=0;

  0003c	66 89 30	 mov	 WORD PTR [rax], si

; 84   : 		FirstInit();
; 85   : 		Init(len);
; 86   : 	}

  0003f	48 8b c3	 mov	 rax, rbx

; 111  : 		len = -1;

  00042	89 7b 08	 mov	 DWORD PTR [rbx+8], edi

; 84   : 		FirstInit();
; 85   : 		Init(len);
; 86   : 	}

  00045	48 8b 5c 24 30	 mov	 rbx, QWORD PTR [rsp+48]
  0004a	48 8b 74 24 38	 mov	 rsi, QWORD PTR [rsp+56]
  0004f	48 83 c4 20	 add	 rsp, 32			; 00000020H
  00053	5f		 pop	 rdi
  00054	c3		 ret	 0
$LN6@Wstr:

; 109  : 			str=NULL;

  00055	48 89 31	 mov	 QWORD PTR [rcx], rsi

; 84   : 		FirstInit();
; 85   : 		Init(len);
; 86   : 	}

  00058	48 8b c3	 mov	 rax, rbx
  0005b	48 8b 5c 24 30	 mov	 rbx, QWORD PTR [rsp+48]
  00060	48 8b 74 24 38	 mov	 rsi, QWORD PTR [rsp+56]

; 111  : 		len = -1;

  00065	89 79 08	 mov	 DWORD PTR [rcx+8], edi

; 84   : 		FirstInit();
; 85   : 		Init(len);
; 86   : 	}

  00068	48 83 c4 20	 add	 rsp, 32			; 00000020H
  0006c	5f		 pop	 rdi
  0006d	c3		 ret	 0
??0Wstr@@QEAA@H@Z ENDP					; Wstr::Wstr
_TEXT	ENDS
; Function compile flags: /Ogtpy
; File f:\software1\\fastcopy\fastcopy325src\src\tlib\tapi32u8.h
;	COMDAT ?Init@Wstr@@QEAAXH@Z
_TEXT	SEGMENT
this$ = 48
_len$ = 56
?Init@Wstr@@QEAAXH@Z PROC				; Wstr::Init, COMDAT

; 103  : 	void Init(int _len=0) {

$LN10:
  00000	48 89 5c 24 08	 mov	 QWORD PTR [rsp+8], rbx
  00005	48 89 6c 24 10	 mov	 QWORD PTR [rsp+16], rbp
  0000a	48 89 74 24 18	 mov	 QWORD PTR [rsp+24], rsi
  0000f	57		 push	 rdi
  00010	48 83 ec 20	 sub	 rsp, 32			; 00000020H
  00014	48 8b d9	 mov	 rbx, rcx
  00017	48 63 fa	 movsxd	 rdi, edx

; 114  : 		if (str) {

  0001a	48 8b 09	 mov	 rcx, QWORD PTR [rcx]
  0001d	33 ed		 xor	 ebp, ebp
  0001f	48 85 c9	 test	 rcx, rcx
  00022	74 08		 je	 SHORT $LN6@Init

; 115  : 			delete [] str;

  00024	e8 00 00 00 00	 call	 ??_V@YAXPEAX@Z		; operator delete[]

; 116  : 			str = NULL;

  00029	48 89 2b	 mov	 QWORD PTR [rbx], rbp
$LN6@Init:

; 117  : 		}
; 118  : 		len = -1;

  0002c	48 83 ce ff	 or	 rsi, -1
  00030	89 73 08	 mov	 DWORD PTR [rbx+8], esi

; 104  : 		UnInit();
; 105  : 		if (_len) {

  00033	85 ff		 test	 edi, edi
  00035	74 1c		 je	 SHORT $LN2@Init

; 106  : 			str = new WCHAR [_len];

  00037	b8 02 00 00 00	 mov	 eax, 2
  0003c	48 f7 e7	 mul	 rdi
  0003f	48 0f 40 c6	 cmovo	 rax, rsi
  00043	48 8b c8	 mov	 rcx, rax
  00046	e8 00 00 00 00	 call	 ??_U@YAPEAX_K@Z		; operator new[]
  0004b	48 89 03	 mov	 QWORD PTR [rbx], rax

; 107  : 			*str=0;

  0004e	66 89 28	 mov	 WORD PTR [rax], bp

; 108  : 		} else {

  00051	eb 03		 jmp	 SHORT $LN8@Init
$LN2@Init:

; 109  : 			str=NULL;

  00053	48 89 2b	 mov	 QWORD PTR [rbx], rbp
$LN8@Init:

; 110  : 		}
; 111  : 		len = -1;
; 112  : 	}

  00056	48 8b 6c 24 38	 mov	 rbp, QWORD PTR [rsp+56]
  0005b	89 73 08	 mov	 DWORD PTR [rbx+8], esi
  0005e	48 8b 5c 24 30	 mov	 rbx, QWORD PTR [rsp+48]
  00063	48 8b 74 24 40	 mov	 rsi, QWORD PTR [rsp+64]
  00068	48 83 c4 20	 add	 rsp, 32			; 00000020H
  0006c	5f		 pop	 rdi
  0006d	c3		 ret	 0
?Init@Wstr@@QEAAXH@Z ENDP				; Wstr::Init
_TEXT	ENDS
; Function compile flags: /Ogtpy
; File f:\software1\\fastcopy\fastcopy325src\src\tlib\tapi32u8.h
;	COMDAT ??AWstr@@QEAAAEA_WH@Z
_TEXT	SEGMENT
this$ = 8
idx$dead$ = 16
??AWstr@@QEAAAEA_WH@Z PROC				; Wstr::operator[], COMDAT

; 162  : 		return str[idx];

  00000	48 8b 01	 mov	 rax, QWORD PTR [rcx]

; 163  : 	}

  00003	c3		 ret	 0
??AWstr@@QEAAAEA_WH@Z ENDP				; Wstr::operator[]
_TEXT	ENDS
; Function compile flags: /Ogtpy
; File f:\software1\\fastcopy\fastcopy325src\src\tlib\twin.cpp
; File f:\software1\\fastcopy\fastcopy325src\src\tlib\tmisc.h
; File f:\software1\\fastcopy\fastcopy325src\src\tlib\twin.cpp
; File f:\software1\\fastcopy\fastcopy325src\src\tlib\tlib.h
; File f:\software1\\fastcopy\fastcopy325src\src\tlib\twin.cpp
; File f:\software1\\fastcopy\fastcopy325src\src\tlib\tlib.h
; File f:\software1\\fastcopy\fastcopy325src\src\tlib\twin.cpp
; File f:\software1\\fastcopy\fastcopy325src\src\tlib\tlib.h
; File f:\software1\\fastcopy\fastcopy325src\src\tlib\twin.cpp
;	COMDAT ??0TWin@@QEAA@PEAV0@@Z
_TEXT	SEGMENT
this$ = 8
_parent$ = 16
??0TWin@@QEAA@PEAV0@@Z PROC				; TWin::TWin, COMDAT

; 15   : {

  00000	4c 8b c1	 mov	 r8, rcx
  00003	48 8d 05 00 00
	00 00		 lea	 rax, OFFSET FLAT:??_7TWin@@6B@
; File f:\software1\\fastcopy\fastcopy325src\src\tlib\tmisc.h

; 31   : 		prevHash = nextHash = NULL;

  0000a	33 c9		 xor	 ecx, ecx
  0000c	49 89 48 10	 mov	 QWORD PTR [r8+16], rcx
  00010	49 89 48 08	 mov	 QWORD PTR [r8+8], rcx

; 32   : 		hashId = 0;

  00014	41 89 48 18	 mov	 DWORD PTR [r8+24], ecx
; File f:\software1\\fastcopy\fastcopy325src\src\tlib\twin.cpp

; 15   : {

  00018	49 89 00	 mov	 QWORD PTR [r8], rax
; File f:\software1\\fastcopy\fastcopy325src\src\tlib\tlib.h

; 274  : 		left   = x;

  0001b	49 89 48 20	 mov	 QWORD PTR [r8+32], rcx

; 275  : 		top    = y;
; 276  : 		right  = x + cx;

  0001f	49 89 48 28	 mov	 QWORD PTR [r8+40], rcx

; 274  : 		left   = x;

  00023	49 89 48 30	 mov	 QWORD PTR [r8+48], rcx

; 275  : 		top    = y;
; 276  : 		right  = x + cx;

  00027	49 89 48 38	 mov	 QWORD PTR [r8+56], rcx
; File f:\software1\\fastcopy\fastcopy325src\src\tlib\twin.cpp

; 19   : 	rect.left	= CW_USEDEFAULT;

  0002b	41 c7 40 20 00
	00 00 80	 mov	 DWORD PTR [r8+32], -2147483648 ; ffffffff80000000H

; 20   : 	rect.right	= CW_USEDEFAULT;

  00033	41 c7 40 28 00
	00 00 80	 mov	 DWORD PTR [r8+40], -2147483648 ; ffffffff80000000H

; 21   : 	rect.top	= CW_USEDEFAULT;

  0003b	41 c7 40 24 00
	00 00 80	 mov	 DWORD PTR [r8+36], -2147483648 ; ffffffff80000000H

; 22   : 	rect.bottom	= CW_USEDEFAULT;

  00043	41 c7 40 2c 00
	00 00 80	 mov	 DWORD PTR [r8+44], -2147483648 ; ffffffff80000000H

; 23   : 	orgRect		= rect;

  0004b	41 0f 10 40 20	 movups	 xmm0, XMMWORD PTR [r8+32]

; 24   : 	parent		= _parent;

  00050	49 89 50 48	 mov	 QWORD PTR [r8+72], rdx
; File f:\software1\\fastcopy\fastcopy325src\src\tlib\tlib.h

; 659  : 	static DWORD  GenTWinID() { return tapp ? tapp->twinId++ : 0; }

  00054	48 8b 15 00 00
	00 00		 mov	 rdx, QWORD PTR ?tapp@TApp@@1PEAV1@EA ; TApp::tapp
; File f:\software1\\fastcopy\fastcopy325src\src\tlib\twin.cpp

; 16   : 	hWnd		= NULL;

  0005b	49 89 48 60	 mov	 QWORD PTR [r8+96], rcx

; 17   : 	hTipWnd		= NULL;

  0005f	49 89 48 68	 mov	 QWORD PTR [r8+104], rcx

; 18   : 	hAccel		= NULL;

  00063	49 89 48 40	 mov	 QWORD PTR [r8+64], rcx

; 25   : 	sleepBusy	= FALSE;

  00067	41 89 48 50	 mov	 DWORD PTR [r8+80], ecx

; 26   : 	isUnicode	= TRUE;

  0006b	41 c7 40 54 01
	00 00 00	 mov	 DWORD PTR [r8+84], 1

; 27   : 	scrollHack	= TRUE;

  00073	41 c7 40 58 01
	00 00 00	 mov	 DWORD PTR [r8+88], 1

; 28   : 	modalCount	= 0;

  0007b	41 89 48 70	 mov	 DWORD PTR [r8+112], ecx
  0007f	41 0f 11 40 30	 movups	 XMMWORD PTR [r8+48], xmm0
; File f:\software1\\fastcopy\fastcopy325src\src\tlib\tlib.h

; 659  : 	static DWORD  GenTWinID() { return tapp ? tapp->twinId++ : 0; }

  00084	48 85 d2	 test	 rdx, rdx
  00087	74 09		 je	 SHORT $LN15@TWin
  00089	8b 4a 48	 mov	 ecx, DWORD PTR [rdx+72]
  0008c	8d 41 01	 lea	 eax, DWORD PTR [rcx+1]
  0008f	89 42 48	 mov	 DWORD PTR [rdx+72], eax
$LN15@TWin:
; File f:\software1\\fastcopy\fastcopy325src\src\tlib\twin.cpp

; 30   : }

  00092	49 8b c0	 mov	 rax, r8
  00095	41 89 48 74	 mov	 DWORD PTR [r8+116], ecx
  00099	c3		 ret	 0
??0TWin@@QEAA@PEAV0@@Z ENDP				; TWin::TWin
_TEXT	ENDS
; Function compile flags: /Ogtpy
;	COMDAT ??_GTWin@@UEAAPEAXI@Z
_TEXT	SEGMENT
this$ = 48
__flags$ = 56
??_GTWin@@UEAAPEAXI@Z PROC				; TWin::`scalar deleting destructor', COMDAT
$LN6:
  00000	48 89 5c 24 08	 mov	 QWORD PTR [rsp+8], rbx
  00005	57		 push	 rdi
  00006	48 83 ec 20	 sub	 rsp, 32			; 00000020H
  0000a	8b da		 mov	 ebx, edx
  0000c	48 8b f9	 mov	 rdi, rcx
  0000f	e8 00 00 00 00	 call	 ??1TWin@@UEAA@XZ	; TWin::~TWin
  00014	f6 c3 01	 test	 bl, 1
  00017	74 0d		 je	 SHORT $LN4@scalar
  00019	ba 78 00 00 00	 mov	 edx, 120		; 00000078H
  0001e	48 8b cf	 mov	 rcx, rdi
  00021	e8 00 00 00 00	 call	 ??3@YAXPEAX_K@Z		; operator delete
$LN4@scalar:
  00026	48 8b c7	 mov	 rax, rdi
  00029	48 8b 5c 24 30	 mov	 rbx, QWORD PTR [rsp+48]
  0002e	48 83 c4 20	 add	 rsp, 32			; 00000020H
  00032	5f		 pop	 rdi
  00033	c3		 ret	 0
??_GTWin@@UEAAPEAXI@Z ENDP				; TWin::`scalar deleting destructor'
_TEXT	ENDS
; Function compile flags: /Ogtpy
; File f:\software1\\fastcopy\fastcopy325src\src\tlib\twin.cpp
; File f:\software1\\fastcopy\fastcopy325src\src\tlib\tmisc.h
; File f:\software1\\fastcopy\fastcopy325src\src\tlib\twin.cpp
;	COMDAT ??1TWin@@UEAA@XZ
_TEXT	SEGMENT
$T1 = 32
this$ = 64
??1TWin@@UEAA@XZ PROC					; TWin::~TWin, COMDAT

; 33   : {

$LN10:
  00000	40 53		 push	 rbx
  00002	48 83 ec 30	 sub	 rsp, 48			; 00000030H
  00006	48 c7 44 24 20
	fe ff ff ff	 mov	 QWORD PTR $T1[rsp], -2
  0000f	48 8b d9	 mov	 rbx, rcx
  00012	48 8d 05 00 00
	00 00		 lea	 rax, OFFSET FLAT:??_7TWin@@6B@
  00019	48 89 01	 mov	 QWORD PTR [rcx], rax

; 34   : 	Destroy();

  0001c	e8 00 00 00 00	 call	 ?Destroy@TWin@@UEAAXXZ	; TWin::Destroy
  00021	90		 npad	 1
; File f:\software1\\fastcopy\fastcopy325src\src\tlib\tmisc.h

; 34   : 	virtual ~THashObjT() {

  00022	48 8d 05 00 00
	00 00		 lea	 rax, OFFSET FLAT:??_7?$THashObjT@I@@6B@
  00029	48 89 03	 mov	 QWORD PTR [rbx], rax

; 35   : 		if (prevHash && prevHash != this) {

  0002c	48 8b 4b 08	 mov	 rcx, QWORD PTR [rbx+8]
  00030	48 85 c9	 test	 rcx, rcx
  00033	74 23		 je	 SHORT $LN7@TWin
  00035	48 3b cb	 cmp	 rcx, rbx
  00038	74 1e		 je	 SHORT $LN7@TWin

; 53   : 		prevHash->nextHash = nextHash;

  0003a	48 8b 43 10	 mov	 rax, QWORD PTR [rbx+16]
  0003e	48 89 41 10	 mov	 QWORD PTR [rcx+16], rax

; 54   : 		nextHash->prevHash = prevHash;

  00042	48 8b 4b 10	 mov	 rcx, QWORD PTR [rbx+16]
  00046	48 8b 43 08	 mov	 rax, QWORD PTR [rbx+8]
  0004a	48 89 41 08	 mov	 QWORD PTR [rcx+8], rax

; 55   : 		prevHash = nextHash = NULL;

  0004e	33 c0		 xor	 eax, eax
  00050	48 89 43 10	 mov	 QWORD PTR [rbx+16], rax
  00054	48 89 43 08	 mov	 QWORD PTR [rbx+8], rax
$LN7@TWin:
; File f:\software1\\fastcopy\fastcopy325src\src\tlib\twin.cpp

; 35   : }

  00058	48 83 c4 30	 add	 rsp, 48			; 00000030H
  0005c	5b		 pop	 rbx
  0005d	c3		 ret	 0
??1TWin@@UEAA@XZ ENDP					; TWin::~TWin
_TEXT	ENDS
; Function compile flags: /Ogtpy
; File f:\software1\\fastcopy\fastcopy325src\src\tlib\twin.cpp
;	COMDAT ?EvCommand@TWin@@UEAAHGG_J@Z
_TEXT	SEGMENT
this$ = 8
wNotifyCode$ = 16
wID$ = 24
hwndCtl$ = 32
?EvCommand@TWin@@UEAAHGG_J@Z PROC			; TWin::EvCommand, COMDAT

; 325  : 	return	FALSE;

  00000	33 c0		 xor	 eax, eax

; 326  : }

  00002	c3		 ret	 0
?EvCommand@TWin@@UEAAHGG_J@Z ENDP			; TWin::EvCommand
_TEXT	ENDS
; Function compile flags: /Ogtpy
;	COMDAT ??_GTSubClass@@UEAAPEAXI@Z
_TEXT	SEGMENT
this$ = 48
__flags$ = 56
??_GTSubClass@@UEAAPEAXI@Z PROC				; TSubClass::`scalar deleting destructor', COMDAT
$LN6:
  00000	48 89 5c 24 08	 mov	 QWORD PTR [rsp+8], rbx
  00005	57		 push	 rdi
  00006	48 83 ec 20	 sub	 rsp, 32			; 00000020H
  0000a	8b da		 mov	 ebx, edx
  0000c	48 8b f9	 mov	 rdi, rcx
  0000f	e8 00 00 00 00	 call	 ??1TSubClass@@UEAA@XZ	; TSubClass::~TSubClass
  00014	f6 c3 01	 test	 bl, 1
  00017	74 0d		 je	 SHORT $LN4@scalar
  00019	ba 80 00 00 00	 mov	 edx, 128		; 00000080H
  0001e	48 8b cf	 mov	 rcx, rdi
  00021	e8 00 00 00 00	 call	 ??3@YAXPEAX_K@Z		; operator delete
$LN4@scalar:
  00026	48 8b c7	 mov	 rax, rdi
  00029	48 8b 5c 24 30	 mov	 rbx, QWORD PTR [rsp+48]
  0002e	48 83 c4 20	 add	 rsp, 32			; 00000020H
  00032	5f		 pop	 rdi
  00033	c3		 ret	 0
??_GTSubClass@@UEAAPEAXI@Z ENDP				; TSubClass::`scalar deleting destructor'
_TEXT	ENDS
; Function compile flags: /Ogtpy
;	COMDAT ??_GTSubClassCtl@@UEAAPEAXI@Z
_TEXT	SEGMENT
this$ = 48
__flags$ = 56
??_GTSubClassCtl@@UEAAPEAXI@Z PROC			; TSubClassCtl::`scalar deleting destructor', COMDAT
$LN9:
  00000	48 89 5c 24 08	 mov	 QWORD PTR [rsp+8], rbx
  00005	57		 push	 rdi
  00006	48 83 ec 20	 sub	 rsp, 32			; 00000020H
  0000a	8b da		 mov	 ebx, edx
  0000c	48 8b f9	 mov	 rdi, rcx
  0000f	e8 00 00 00 00	 call	 ??1TSubClass@@UEAA@XZ	; TSubClass::~TSubClass
  00014	f6 c3 01	 test	 bl, 1
  00017	74 0d		 je	 SHORT $LN7@scalar
  00019	ba 80 00 00 00	 mov	 edx, 128		; 00000080H
  0001e	48 8b cf	 mov	 rcx, rdi
  00021	e8 00 00 00 00	 call	 ??3@YAXPEAX_K@Z		; operator delete
$LN7@scalar:
  00026	48 8b c7	 mov	 rax, rdi
  00029	48 8b 5c 24 30	 mov	 rbx, QWORD PTR [rsp+48]
  0002e	48 83 c4 20	 add	 rsp, 32			; 00000020H
  00032	5f		 pop	 rdi
  00033	c3		 ret	 0
??_GTSubClassCtl@@UEAAPEAXI@Z ENDP			; TSubClassCtl::`scalar deleting destructor'
_TEXT	ENDS
; Function compile flags: /Ogtpy
; File f:\software1\\fastcopy\fastcopy325src\src\tlib\twin.cpp
;	COMDAT ?PreProcMsg@TSubClassCtl@@UEAAHPEAUtagMSG@@@Z
_TEXT	SEGMENT
this$ = 8
msg$ = 16
?PreProcMsg@TSubClassCtl@@UEAAHPEAUtagMSG@@@Z PROC	; TSubClassCtl::PreProcMsg, COMDAT

; 1093 : 	if (parent) {

  00000	48 8b 49 48	 mov	 rcx, QWORD PTR [rcx+72]
  00004	48 85 c9	 test	 rcx, rcx
  00007	74 0a		 je	 SHORT $LN2@PreProcMsg

; 1094 : 		return	parent->PreProcMsg(msg);

  00009	48 8b 01	 mov	 rax, QWORD PTR [rcx]
  0000c	48 ff a0 58 03
	00 00		 rex_jmp QWORD PTR [rax+856]
$LN2@PreProcMsg:

; 1095 : 	}
; 1096 : 
; 1097 : 	return	FALSE;

  00013	33 c0		 xor	 eax, eax

; 1098 : }

  00015	c3		 ret	 0
?PreProcMsg@TSubClassCtl@@UEAAHPEAUtagMSG@@@Z ENDP	; TSubClassCtl::PreProcMsg
_TEXT	ENDS
; Function compile flags: /Ogtpy
;	COMDAT ??_GTCtl@@UEAAPEAXI@Z
_TEXT	SEGMENT
this$ = 48
__flags$ = 56
??_GTCtl@@UEAAPEAXI@Z PROC				; TCtl::`scalar deleting destructor', COMDAT
$LN9:
  00000	48 89 5c 24 08	 mov	 QWORD PTR [rsp+8], rbx
  00005	57		 push	 rdi
  00006	48 83 ec 20	 sub	 rsp, 32			; 00000020H
  0000a	8b da		 mov	 ebx, edx
  0000c	48 8b f9	 mov	 rdi, rcx
  0000f	e8 00 00 00 00	 call	 ??1TWin@@UEAA@XZ	; TWin::~TWin
  00014	f6 c3 01	 test	 bl, 1
  00017	74 0d		 je	 SHORT $LN7@scalar
  00019	ba 78 00 00 00	 mov	 edx, 120		; 00000078H
  0001e	48 8b cf	 mov	 rcx, rdi
  00021	e8 00 00 00 00	 call	 ??3@YAXPEAX_K@Z		; operator delete
$LN7@scalar:
  00026	48 8b c7	 mov	 rax, rdi
  00029	48 8b 5c 24 30	 mov	 rbx, QWORD PTR [rsp+48]
  0002e	48 83 c4 20	 add	 rsp, 32			; 00000020H
  00032	5f		 pop	 rdi
  00033	c3		 ret	 0
??_GTCtl@@UEAAPEAXI@Z ENDP				; TCtl::`scalar deleting destructor'
_TEXT	ENDS
; Function compile flags: /Ogtpy
;	COMDAT ??1TCtl@@UEAA@XZ
_TEXT	SEGMENT
this$ = 8
??1TCtl@@UEAA@XZ PROC					; TCtl::~TCtl, COMDAT
  00000	e9 00 00 00 00	 jmp	 ??1TWin@@UEAA@XZ	; TWin::~TWin
??1TCtl@@UEAA@XZ ENDP					; TCtl::~TCtl
_TEXT	ENDS
END
