; Listing generated by Microsoft (R) Optimizing Compiler Version 19.00.24215.1 

include listing.inc

INCLUDELIB OLDNAMES

PUBLIC	??_C@_0DK@OLCJDIPE@?$EA?$CI?$CD?$CJCopyright?5?$CIC?$CJ?51996?92016?5H?4Sh@ ; `string'
PUBLIC	??_C@_04DFEBHPOG@TLib?$AA@			; `string'
PUBLIC	??_C@_0BN@BINKLCDN@Detect?5too?5many?5wait?5threads?$AA@ ; `string'
PUBLIC	??_C@_02DKCKIIND@?$CFs?$AA@			; `string'
PUBLIC	??_C@_01KICIPPFI@?2?$AA@			; `string'
PUBLIC	??_C@_06DIJPEION@?$CFs?$CFs?$CFs?$AA@		; `string'
PUBLIC	??_C@_15GANGMFKL@?$AA?$CF?$AAs?$AA?$AA@		; `string'
PUBLIC	??_C@_13FPGAJAPJ@?$AA?2?$AA?$AA@		; `string'
PUBLIC	??_C@_1O@JBBHAGJJ@?$AA?$CF?$AAs?$AA?$CF?$AAs?$AA?$CF?$AAs?$AA?$AA@ ; `string'
PUBLIC	??_C@_0BB@JCEFLFJE@0123456789abcdef?$AA@	; `string'
PUBLIC	??_C@_1CC@FLKNJKKC@?$AA0?$AA1?$AA2?$AA3?$AA4?$AA5?$AA6?$AA7?$AA8?$AA9?$AAa?$AAb?$AAc?$AAd?$AAe?$AAf?$AA?$AA@ ; `string'
PUBLIC	??_C@_03JKKBDOOC@?$DN?$DN?$DN?$AA@		; `string'
PUBLIC	??_C@_04EBNJJJJI@?$CF?4?$CKs?$AA@		; `string'
PUBLIC	??_C@_0BC@NAGFGCOE@?5?$CF02x?$CF02x?$CF02x?$CF02x?$AA@ ; `string'
PUBLIC	??_C@_09FAALLACF@?5?4?4?4?4?4?4?4?4?$AA@	; `string'
PUBLIC	??_C@_02PCIJFNDE@?$AN?6?$AA@			; `string'
PUBLIC	??_C@_03NDEAONJP@?5?5?5?$AA@			; `string'
PUBLIC	??_C@_0IF@BFDDCMMG@?9?9?9?9?9?9?5?$CF?4100s?5?9?9?9?9?9?$AN?6?5Date?5?5?5?5?5?5@ ; `string'
PUBLIC	??_C@_0OG@DMEEOACO@?5Code?1Adr?1DC?5?3?5?$CFX?5?1?5?$CFp?5?1?5?$CFp?$AN?6?5AX@ ; `string'
PUBLIC	??_C@_01CLKCMJKC@?5?$AA@			; `string'
PUBLIC	??_C@_04GBFHKGDE@?$CFp?$CFs?$AA@		; `string'
PUBLIC	??_C@_0BL@FDCOBIGB@?9?9?9?9?9?9?9?5stack?5info?5?9?9?9?9?9?$AN?6?$AA@ ; `string'
PUBLIC	??_C@_0BL@KOEPHMLK@?9?9?9?9?5reg?5point?5info?5?9?9?9?9?$AN?6?$AA@ ; `string'
PUBLIC	??_C@_03BBEMLFCD@Rax?$AA@			; `string'
PUBLIC	??_C@_03BDAKALHK@Rbx?$AA@			; `string'
PUBLIC	??_C@_03BCMIGBEN@Rcx?$AA@			; `string'
PUBLIC	??_C@_03BHIHHHMI@Rdx?$AA@			; `string'
PUBLIC	??_C@_03FNDHOBCN@Rsi?$AA@			; `string'
PUBLIC	??_C@_03EEFOFENI@Rdi?$AA@			; `string'
PUBLIC	??_C@_03NLNDIBHC@Rbp?$AA@			; `string'
PUBLIC	??_C@_03MGDHEIDF@Rsp?$AA@			; `string'
PUBLIC	??_C@_03EDHHEA@R8?5?$AA@			; `string'
PUBLIC	??_C@_03BIBBNHH@R9?5?$AA@			; `string'
PUBLIC	??_C@_03EFFAFOJO@R10?$AA@			; `string'
PUBLIC	??_C@_03FMELGPNP@R11?$AA@			; `string'
PUBLIC	??_C@_03HHGGDMBM@R12?$AA@			; `string'
PUBLIC	??_C@_03GOHNANFN@R13?$AA@			; `string'
PUBLIC	??_C@_03CBDMJLJK@R14?$AA@			; `string'
PUBLIC	??_C@_03DICHKKNL@R15?$AA@			; `string'
PUBLIC	??_C@_03NHIGGOJD@Rip?$AA@			; `string'
PUBLIC	??_C@_0BL@BMCMDBEN@?9?9?9?9?5trace?5log?5info?5?9?9?9?9?$AN?6?$AA@ ; `string'
PUBLIC	??_C@_0BN@ODLBAGLK@?9?9?9?9?9?9?9?9?9?9?9?9?9?9?9?9?9?9?9?9?9?9?9?9?$AN?6?$AN?6?$AA@ ; `string'
PUBLIC	??_C@_08GKKICAKB@explorer?$AA@			; `string'
PUBLIC	??_C@_0P@NJGPEHMM@_exception?4log?$AA@		; `string'
PUBLIC	??_C@_0L@IGBOJMIH@?1select?0?$CFs?$AA@		; `string'
PUBLIC	??_C@_0BO@FMEMLCCA@?$CF02x?1?$CF02x?1?$CF02x?1?$CF02x?1?$CF02x?1?$CF02x?$AA@ ; `string'
PUBLIC	??_C@_0P@LKABJJMO@IsWow64Process?$AA@		; `string'
PUBLIC	??_C@_08PNLNEKOB@kernel32?$AA@			; `string'
PUBLIC	??_C@_0BI@MCEAONBI@RegDisableReflectionKey?$AA@	; `string'
PUBLIC	??_C@_08DOPOLOOH@advapi32?$AA@			; `string'
PUBLIC	??_C@_0BH@MJKGPAOP@RegEnableReflectionKey?$AA@	; `string'
PUBLIC	??_C@_0BP@OODKCJPP@Wow64DisableWow64FsRedirection?$AA@ ; `string'
PUBLIC	??_C@_0BO@KOCOEJCM@Wow64RevertWow64FsRedirection?$AA@ ; `string'
PUBLIC	??_C@_0DK@CJDIKJOC@SOFTWARE?2Microsoft?2Windows?2Curre@ ; `string'
PUBLIC	??_C@_09IMBMLODE@EnableLUA?$AA@			; `string'
PUBLIC	??_C@_1CA@INKEKHJP@?$AA?2?$AAV?$AAi?$AAr?$AAt?$AAu?$AAa?$AAl?$AAS?$AAt?$AAo?$AAr?$AAe?$AA?$CF?$AAs?$AA?$AA@ ; `string'
PUBLIC	??_C@_0BE@FGMANJOG@SetThreadUILanguage?$AA@	; `string'
PUBLIC	??_C@_0BK@MCKCJCIG@ChangeWindowMessageFilter?$AA@ ; `string'
PUBLIC	??_C@_06KMMDPPA@user32?$AA@			; `string'
PUBLIC	??_C@_0BD@DGOJMNDA@SwitchToThisWindow?$AA@	; `string'
PUBLIC	??_C@_0L@EFKJKBHF@hhctrl?4ocx?$AA@		; `string'
PUBLIC	??_C@_09FJINEKLL@HtmlHelpW?$AA@			; `string'
PUBLIC	??_C@_0BM@GLFHELBJ@SHGetPropertyStoreForWindow?$AA@ ; `string'
PUBLIC	??_C@_07LOANPHMB@shell32?$AA@			; `string'
PUBLIC	??_C@_06HACJLEKA@?$JA?$JA?$JA?$JA?$JA?$JA?$AA@	; `string'
PUBLIC	??_C@_02MEOGFIDO@?k?$BD?$AA@			; `string'
PUBLIC	??_R4TResHashObj@@6B@				; TResHashObj::`RTTI Complete Object Locator'
PUBLIC	_GUID_98325047_c671_4174_8d81_defcd3f03186
PUBLIC	??_R3?$THashTblT@I@@8				; THashTblT<unsigned int>::`RTTI Class Hierarchy Descriptor'
PUBLIC	_GUID_304ce942_6e39_40d8_943a_b913c40c9cd4
PUBLIC	?defaultStrInstance@@3PEAUHINSTANCE__@@EA	; defaultStrInstance
PUBLIC	_GUID_ec9846b3_2762_4a6b_a214_6acb603462d2
PUBLIC	??_R4?$THashTblT@I@@6B@				; THashTblT<unsigned int>::`RTTI Complete Object Locator'
PUBLIC	??_R1A@?0A@EA@?$THashTblT@I@@8			; THashTblT<unsigned int>::`RTTI Base Class Descriptor at (0,-1,0,64)'
PUBLIC	_GUID_cc19079b_8272_4d73_bb70_cdb533527b61
PUBLIC	??_R4TResHash@@6B@				; TResHash::`RTTI Complete Object Locator'
PUBLIC	??_R3TResHashObj@@8				; TResHashObj::`RTTI Class Hierarchy Descriptor'
PUBLIC	??_R1A@?0A@EA@TResHash@@8			; TResHash::`RTTI Base Class Descriptor at (0,-1,0,64)'
PUBLIC	??_R2?$THashTblT@I@@8				; THashTblT<unsigned int>::`RTTI Base Class Array'
PUBLIC	??_R0?AUTResHashObj@@@8				; TResHashObj `RTTI Type Descriptor'
PUBLIC	_GUID_f7898af5_cac4_4632_a2ec_da06e5111af2
PUBLIC	??_R2TResHash@@8				; TResHash::`RTTI Base Class Array'
PUBLIC	_GUID_b5e64ffa_c2c5_444e_a301_fb5e00018050
PUBLIC	??_7TResHash@@6B@				; TResHash::`vftable'
PUBLIC	??_R0?AVTResHash@@@8				; TResHash `RTTI Type Descriptor'
PUBLIC	_GUID_fb852b2c_6bad_4605_9551_f15f87830935
PUBLIC	??_7TResHashObj@@6B@				; TResHashObj::`vftable'
PUBLIC	??_7?$THashTblT@I@@6B@				; THashTblT<unsigned int>::`vftable'
PUBLIC	??_R3TResHash@@8				; TResHash::`RTTI Class Hierarchy Descriptor'
PUBLIC	_GUID_d133ce13_3537_48ba_93a7_afcd5d2053b4
PUBLIC	??_R2TResHashObj@@8				; TResHashObj::`RTTI Base Class Array'
PUBLIC	_GUID_886d8eeb_8cf2_4446_8d02_cdba1dbdcf99
PUBLIC	??_R0?AV?$THashTblT@I@@@8			; THashTblT<unsigned int> `RTTI Type Descriptor'
PUBLIC	_GUID_e2b3c97f_6ae1_41ac_817a_f6f92166d7dd
PUBLIC	?gEventMap@Condition@@1JC			; Condition::gEventMap
PUBLIC	??_R1A@?0A@EA@TResHashObj@@8			; TResHashObj::`RTTI Base Class Descriptor at (0,-1,0,64)'
PUBLIC	_GUID_39eb36e0_2097_40bd_8af2_63a13b525362
EXTRN	__imp_SetUnhandledExceptionFilter:PROC
EXTRN	CLSID_ShellLink:BYTE
EXTRN	??_L@YAXPEAX_K1P6AX0@Z2@Z:PROC			; `eh vector constructor iterator'
EXTRN	__imp_SHGetSpecialFolderPathW:PROC
EXTRN	strrchr:PROC
EXTRN	__imp_ILCreateFromPathW:PROC
EXTRN	__imp_AdjustTokenPrivileges:PROC
EXTRN	__imp_CreateEventA:PROC
EXTRN	__imp_IsBadReadPtr:PROC
EXTRN	__imp_GetDC:PROC
EXTRN	__imp_GetTextExtentExPointW:PROC
EXTRN	strnlen:PROC
EXTRN	__imp_LoadStringA:PROC
EXTRN	__imp_EnumFontFamiliesExW:PROC
EXTRN	__imp_VariantInit:PROC
EXTRN	__imp_DeleteCriticalSection:PROC
EXTRN	IID_IEnumVARIANT:BYTE
EXTRN	PKEY_AppUserModel_ID:BYTE
EXTRN	__imp_GetProcAddress:PROC
EXTRN	__imp_VirtualLock:PROC
EXTRN	__imp_CreateDIBitmap:PROC
EXTRN	__imp_LoadStringW:PROC
EXTRN	_Init_thread_abort:PROC
EXTRN	__imp_GetLocalTime:PROC
EXTRN	__imp_SysFreeString:PROC
EXTRN	__imp_LookupPrivilegeValueA:PROC
EXTRN	__imp_IsDBCSLeadByte:PROC
EXTRN	__imp_LoadLibraryW:PROC
EXTRN	__imp_GlobalFree:PROC
EXTRN	wcsicmp:PROC
EXTRN	__imp_DeleteFileW:PROC
EXTRN	__imp_GlobalAlloc:PROC
EXTRN	__imp_GetVersionExA:PROC
EXTRN	__imp_LoadLibraryA:PROC
EXTRN	__imp_SetEvent:PROC
EXTRN	__imp_CreateFileA:PROC
EXTRN	wcsdup:PROC
EXTRN	__imp_OutputDebugStringW:PROC
EXTRN	_Init_thread_header:PROC
EXTRN	__imp_SysAllocString:PROC
EXTRN	_purecall:PROC
EXTRN	__imp_GetVersion:PROC
EXTRN	__imp_MessageBoxA:PROC
EXTRN	__imp_ShellExecuteA:PROC
EXTRN	__imp_GetModuleHandleA:PROC
EXTRN	__imp_ILFree:PROC
EXTRN	_Init_thread_footer:PROC
EXTRN	__imp_CryptBinaryToStringA:PROC
EXTRN	__imp_SHStrDupW:PROC
EXTRN	__imp_SHOpenFolderAndSelectItems:PROC
EXTRN	__imp_WaitForSingleObject:PROC
EXTRN	__imp_OpenProcessToken:PROC
EXTRN	__imp_SetFilePointer:PROC
EXTRN	__imp_InitializeCriticalSection:PROC
EXTRN	__imp_LeaveCriticalSection:PROC
EXTRN	__imp_CryptStringToBinaryA:PROC
EXTRN	__imp_SetClipboardData:PROC
EXTRN	__report_gsfailure:PROC
EXTRN	__imp_CoCreateInstance:PROC
EXTRN	__imp_GetModuleFileNameW:PROC
EXTRN	toupper:PROC
EXTRN	__imp_VirtualAlloc:PROC
EXTRN	__imp_OutputDebugStringA:PROC
EXTRN	__imp_DrawTextW:PROC
EXTRN	__imp_ExpandEnvironmentStringsW:PROC
EXTRN	__imp_GetDesktopWindow:PROC
EXTRN	__imp_GetFullPathNameW:PROC
EXTRN	wcsnicmp:PROC
EXTRN	IID_INetFwRule:BYTE
EXTRN	_Init_thread_epoch:DWORD
EXTRN	__imp_VirtualFree:PROC
EXTRN	__imp_EnterCriticalSection:PROC
EXTRN	calloc:PROC
EXTRN	__imp_VirtualProtect:PROC
EXTRN	__imp_PropVariantClear:PROC
EXTRN	__imp_SHChangeNotify:PROC
EXTRN	IID_IPersistFile:BYTE
EXTRN	__imp_SetThreadLocale:PROC
EXTRN	__raise_securityfailure:PROC
EXTRN	__imp_GetObjectA:PROC
EXTRN	__imp_VariantClear:PROC
EXTRN	__imp_ReleaseDC:PROC
EXTRN	wcsnlen:PROC
?defaultStrInstance@@3PEAUHINSTANCE__@@EA DQ 01H DUP (?) ; defaultStrInstance
_BSS	ENDS
;	COMDAT ?ret@?1??TIsWow64@@YAHXZ@4HA
_BSS	SEGMENT
?ret@?1??TIsWow64@@YAHXZ@4HA DD 01H DUP (?)		; `TIsWow64'::`2'::ret
?gEventMap@Condition@@1JC DD 01H DUP (?)		; Condition::gEventMap
_BSS	ENDS
;	COMDAT ?once@?1??TSetThreadLocale@@YAHH@Z@4HA
_BSS	SEGMENT
?once@?1??TSetThreadLocale@@YAHH@Z@4HA DD 01H DUP (?)	; `TSetThreadLocale'::`2'::once
_BSS	ENDS
;	COMDAT _GUID_39eb36e0_2097_40bd_8af2_63a13b525362
CONST	SEGMENT
_GUID_39eb36e0_2097_40bd_8af2_63a13b525362 DD 039eb36e0H
	DW	02097H
	DW	040bdH
	DB	08aH
	DB	0f2H
	DB	063H
	DB	0a1H
	DB	03bH
	DB	052H
	DB	053H
	DB	062H
CONST	ENDS
;	COMDAT ??_R1A@?0A@EA@TResHashObj@@8
rdata$r	SEGMENT
??_R1A@?0A@EA@TResHashObj@@8 DD imagerel ??_R0?AUTResHashObj@@@8 ; TResHashObj::`RTTI Base Class Descriptor at (0,-1,0,64)'
	DD	01H
	DD	00H
	DD	0ffffffffH
	DD	00H
	DD	040H
	DD	imagerel ??_R3TResHashObj@@8
rdata$r	ENDS
;	COMDAT _GUID_e2b3c97f_6ae1_41ac_817a_f6f92166d7dd
CONST	SEGMENT
_GUID_e2b3c97f_6ae1_41ac_817a_f6f92166d7dd DD 0e2b3c97fH
	DW	06ae1H
	DW	041acH
	DB	081H
	DB	07aH
	DB	0f6H
	DB	0f9H
	DB	021H
	DB	066H
	DB	0d7H
	DB	0ddH
CONST	ENDS
;	COMDAT ??_R0?AV?$THashTblT@I@@@8
data$r	SEGMENT
??_R0?AV?$THashTblT@I@@@8 DQ FLAT:??_7type_info@@6B@	; THashTblT<unsigned int> `RTTI Type Descriptor'
	DQ	0000000000000000H
	DB	'.?AV?$THashTblT@I@@', 00H
data$r	ENDS
;	COMDAT _GUID_886d8eeb_8cf2_4446_8d02_cdba1dbdcf99
CONST	SEGMENT
_GUID_886d8eeb_8cf2_4446_8d02_cdba1dbdcf99 DD 0886d8eebH
	DW	08cf2H
	DW	04446H
	DB	08dH
	DB	02H
	DB	0cdH
	DB	0baH
	DB	01dH
	DB	0bdH
	DB	0cfH
	DB	099H
CONST	ENDS
;	COMDAT ??_R2TResHashObj@@8
rdata$r	SEGMENT
??_R2TResHashObj@@8 DD imagerel ??_R1A@?0A@EA@TResHashObj@@8 ; TResHashObj::`RTTI Base Class Array'
	DD	imagerel ??_R1A@?0A@EA@?$THashObjT@I@@8
	ORG $+3
rdata$r	ENDS
;	COMDAT _GUID_d133ce13_3537_48ba_93a7_afcd5d2053b4
CONST	SEGMENT
_GUID_d133ce13_3537_48ba_93a7_afcd5d2053b4 DD 0d133ce13H
	DW	03537H
	DW	048baH
	DB	093H
	DB	0a7H
	DB	0afH
	DB	0cdH
	DB	05dH
	DB	020H
	DB	053H
	DB	0b4H
CONST	ENDS
;	COMDAT ??_R3TResHash@@8
rdata$r	SEGMENT
??_R3TResHash@@8 DD 00H					; TResHash::`RTTI Class Hierarchy Descriptor'
	DD	00H
	DD	02H
	DD	imagerel ??_R2TResHash@@8
rdata$r	ENDS
;	COMDAT ??_7?$THashTblT@I@@6B@
CONST	SEGMENT
??_7?$THashTblT@I@@6B@ DQ FLAT:??_R4?$THashTblT@I@@6B@	; THashTblT<unsigned int>::`vftable'
	DQ	FLAT:_purecall
	DQ	FLAT:??_E?$THashTblT@I@@UEAAPEAXI@Z
	DQ	FLAT:?Init@?$THashTblT@I@@UEAAHH@Z
	DQ	FLAT:?UnInit@?$THashTblT@I@@UEAAXXZ
	DQ	FLAT:?Register@?$THashTblT@I@@UEAAXPEAV?$THashObjT@I@@I@Z
	DQ	FLAT:?UnRegister@?$THashTblT@I@@UEAAXPEAV?$THashObjT@I@@@Z
	DQ	FLAT:?Search@?$THashTblT@I@@UEAAPEAV?$THashObjT@I@@PEBXI@Z
	DQ	FLAT:?GetRegisterNum@?$THashTblT@I@@UEAAHXZ
CONST	ENDS
;	COMDAT ??_7TResHashObj@@6B@
CONST	SEGMENT
??_7TResHashObj@@6B@ DQ FLAT:??_R4TResHashObj@@6B@	; TResHashObj::`vftable'
	DQ	FLAT:??_ETResHashObj@@UEAAPEAXI@Z
	DQ	FLAT:?LinkHash@?$THashObjT@I@@UEAAHPEAV1@@Z
	DQ	FLAT:?UnlinkHash@?$THashObjT@I@@UEAAHXZ
CONST	ENDS
;	COMDAT _GUID_fb852b2c_6bad_4605_9551_f15f87830935
CONST	SEGMENT
_GUID_fb852b2c_6bad_4605_9551_f15f87830935 DD 0fb852b2cH
	DW	06badH
	DW	04605H
	DB	095H
	DB	051H
	DB	0f1H
	DB	05fH
	DB	087H
	DB	083H
	DB	09H
	DB	035H
CONST	ENDS
;	COMDAT ??_R0?AVTResHash@@@8
data$r	SEGMENT
??_R0?AVTResHash@@@8 DQ FLAT:??_7type_info@@6B@		; TResHash `RTTI Type Descriptor'
	DQ	0000000000000000H
	DB	'.?AVTResHash@@', 00H
data$r	ENDS
;	COMDAT ??_7TResHash@@6B@
CONST	SEGMENT
??_7TResHash@@6B@ DQ FLAT:??_R4TResHash@@6B@		; TResHash::`vftable'
	DQ	FLAT:?IsSameVal@TResHash@@MEAAHPEAV?$THashObjT@I@@PEBX@Z
	DQ	FLAT:??_ETResHash@@UEAAPEAXI@Z
	DQ	FLAT:?Init@?$THashTblT@I@@UEAAHH@Z
	DQ	FLAT:?UnInit@?$THashTblT@I@@UEAAXXZ
	DQ	FLAT:?Register@?$THashTblT@I@@UEAAXPEAV?$THashObjT@I@@I@Z
	DQ	FLAT:?UnRegister@?$THashTblT@I@@UEAAXPEAV?$THashObjT@I@@@Z
	DQ	FLAT:?Search@?$THashTblT@I@@UEAAPEAV?$THashObjT@I@@PEBXI@Z
	DQ	FLAT:?GetRegisterNum@?$THashTblT@I@@UEAAHXZ
CONST	ENDS
;	COMDAT _GUID_b5e64ffa_c2c5_444e_a301_fb5e00018050
CONST	SEGMENT
_GUID_b5e64ffa_c2c5_444e_a301_fb5e00018050 DD 0b5e64ffaH
	DW	0c2c5H
	DW	0444eH
	DB	0a3H
	DB	01H
	DB	0fbH
	DB	05eH
	DB	00H
	DB	01H
	DB	080H
	DB	050H
CONST	ENDS
;	COMDAT ??_R2TResHash@@8
rdata$r	SEGMENT
??_R2TResHash@@8 DD imagerel ??_R1A@?0A@EA@TResHash@@8	; TResHash::`RTTI Base Class Array'
	DD	imagerel ??_R1A@?0A@EA@?$THashTblT@I@@8
	ORG $+3
rdata$r	ENDS
;	COMDAT _GUID_f7898af5_cac4_4632_a2ec_da06e5111af2
CONST	SEGMENT
_GUID_f7898af5_cac4_4632_a2ec_da06e5111af2 DD 0f7898af5H
	DW	0cac4H
	DW	04632H
	DB	0a2H
	DB	0ecH
	DB	0daH
	DB	06H
	DB	0e5H
	DB	011H
	DB	01aH
	DB	0f2H
CONST	ENDS
;	COMDAT ??_R0?AUTResHashObj@@@8
data$r	SEGMENT
??_R0?AUTResHashObj@@@8 DQ FLAT:??_7type_info@@6B@	; TResHashObj `RTTI Type Descriptor'
	DQ	0000000000000000H
	DB	'.?AUTResHashObj@@', 00H
data$r	ENDS
;	COMDAT ??_R2?$THashTblT@I@@8
rdata$r	SEGMENT
??_R2?$THashTblT@I@@8 DD imagerel ??_R1A@?0A@EA@?$THashTblT@I@@8 ; THashTblT<unsigned int>::`RTTI Base Class Array'
	ORG $+3
rdata$r	ENDS
;	COMDAT ??_R1A@?0A@EA@TResHash@@8
rdata$r	SEGMENT
??_R1A@?0A@EA@TResHash@@8 DD imagerel ??_R0?AVTResHash@@@8 ; TResHash::`RTTI Base Class Descriptor at (0,-1,0,64)'
	DD	01H
	DD	00H
	DD	0ffffffffH
	DD	00H
	DD	040H
	DD	imagerel ??_R3TResHash@@8
rdata$r	ENDS
;	COMDAT ??_R3TResHashObj@@8
rdata$r	SEGMENT
??_R3TResHashObj@@8 DD 00H				; TResHashObj::`RTTI Class Hierarchy Descriptor'
	DD	00H
	DD	02H
	DD	imagerel ??_R2TResHashObj@@8
rdata$r	ENDS
;	COMDAT ??_R4TResHash@@6B@
rdata$r	SEGMENT
??_R4TResHash@@6B@ DD 01H				; TResHash::`RTTI Complete Object Locator'
	DD	00H
	DD	00H
	DD	imagerel ??_R0?AVTResHash@@@8
	DD	imagerel ??_R3TResHash@@8
	DD	imagerel ??_R4TResHash@@6B@
rdata$r	ENDS
;	COMDAT _GUID_cc19079b_8272_4d73_bb70_cdb533527b61
CONST	SEGMENT
_GUID_cc19079b_8272_4d73_bb70_cdb533527b61 DD 0cc19079bH
	DW	08272H
	DW	04d73H
	DB	0bbH
	DB	070H
	DB	0cdH
	DB	0b5H
	DB	033H
	DB	052H
	DB	07bH
	DB	061H
CONST	ENDS
;	COMDAT ??_R1A@?0A@EA@?$THashTblT@I@@8
rdata$r	SEGMENT
??_R1A@?0A@EA@?$THashTblT@I@@8 DD imagerel ??_R0?AV?$THashTblT@I@@@8 ; THashTblT<unsigned int>::`RTTI Base Class Descriptor at (0,-1,0,64)'
	DD	00H
	DD	00H
	DD	0ffffffffH
	DD	00H
	DD	040H
	DD	imagerel ??_R3?$THashTblT@I@@8
rdata$r	ENDS
;	COMDAT ??_R4?$THashTblT@I@@6B@
rdata$r	SEGMENT
??_R4?$THashTblT@I@@6B@ DD 01H				; THashTblT<unsigned int>::`RTTI Complete Object Locator'
	DD	00H
	DD	00H
	DD	imagerel ??_R0?AV?$THashTblT@I@@@8
	DD	imagerel ??_R3?$THashTblT@I@@8
	DD	imagerel ??_R4?$THashTblT@I@@6B@
rdata$r	ENDS
;	COMDAT _GUID_ec9846b3_2762_4a6b_a214_6acb603462d2
CONST	SEGMENT
_GUID_ec9846b3_2762_4a6b_a214_6acb603462d2 DD 0ec9846b3H
	DW	02762H
	DW	04a6bH
	DB	0a2H
	DB	014H
	DB	06aH
	DB	0cbH
	DB	060H
	DB	034H
	DB	062H
	DB	0d2H
CONST	ENDS
;	COMDAT _GUID_304ce942_6e39_40d8_943a_b913c40c9cd4
CONST	SEGMENT
_GUID_304ce942_6e39_40d8_943a_b913c40c9cd4 DD 0304ce942H
	DW	06e39H
	DW	040d8H
	DB	094H
	DB	03aH
	DB	0b9H
	DB	013H
	DB	0c4H
	DB	0cH
	DB	09cH
	DB	0d4H
CONST	ENDS
;	COMDAT ??_R3?$THashTblT@I@@8
rdata$r	SEGMENT
??_R3?$THashTblT@I@@8 DD 00H				; THashTblT<unsigned int>::`RTTI Class Hierarchy Descriptor'
	DD	00H
	DD	01H
	DD	imagerel ??_R2?$THashTblT@I@@8
rdata$r	ENDS
;	COMDAT _GUID_98325047_c671_4174_8d81_defcd3f03186
CONST	SEGMENT
_GUID_98325047_c671_4174_8d81_defcd3f03186 DD 098325047H
	DW	0c671H
	DW	04174H
	DB	08dH
	DB	081H
	DB	0deH
	DB	0fcH
	DB	0d3H
	DB	0f0H
	DB	031H
	DB	086H
CONST	ENDS
;	COMDAT ??_R4TResHashObj@@6B@
rdata$r	SEGMENT
??_R4TResHashObj@@6B@ DD 01H				; TResHashObj::`RTTI Complete Object Locator'
	DD	00H
	DD	00H
	DD	imagerel ??_R0?AUTResHashObj@@@8
	DD	imagerel ??_R3TResHashObj@@8
	DD	imagerel ??_R4TResHashObj@@6B@
rdata$r	ENDS
;	COMDAT ??_C@_02MEOGFIDO@?k?$BD?$AA@
CONST	SEGMENT
??_C@_02MEOGFIDO@?k?$BD?$AA@ DB 0ebH, 013H, 00H		; `string'
CONST	ENDS
;	COMDAT ??_C@_06HACJLEKA@?$JA?$JA?$JA?$JA?$JA?$JA?$AA@
CONST	SEGMENT
??_C@_06HACJLEKA@?$JA?$JA?$JA?$JA?$JA?$JA?$AA@ DB 090H, 090H, 090H, 090H, 090H
	DB	090H, 00H					; `string'
CONST	ENDS
;	COMDAT ??_C@_07LOANPHMB@shell32?$AA@
CONST	SEGMENT
??_C@_07LOANPHMB@shell32?$AA@ DB 'shell32', 00H		; `string'
CONST	ENDS
;	COMDAT ??_C@_0BM@GLFHELBJ@SHGetPropertyStoreForWindow?$AA@
CONST	SEGMENT
??_C@_0BM@GLFHELBJ@SHGetPropertyStoreForWindow?$AA@ DB 'SHGetPropertyStor'
	DB	'eForWindow', 00H				; `string'
CONST	ENDS
;	COMDAT ??_C@_09FJINEKLL@HtmlHelpW?$AA@
CONST	SEGMENT
??_C@_09FJINEKLL@HtmlHelpW?$AA@ DB 'HtmlHelpW', 00H	; `string'
CONST	ENDS
;	COMDAT ??_C@_0L@EFKJKBHF@hhctrl?4ocx?$AA@
CONST	SEGMENT
??_C@_0L@EFKJKBHF@hhctrl?4ocx?$AA@ DB 'hhctrl.ocx', 00H	; `string'
CONST	ENDS
;	COMDAT ??_C@_0BD@DGOJMNDA@SwitchToThisWindow?$AA@
CONST	SEGMENT
??_C@_0BD@DGOJMNDA@SwitchToThisWindow?$AA@ DB 'SwitchToThisWindow', 00H ; `string'
CONST	ENDS
;	COMDAT ??_C@_06KMMDPPA@user32?$AA@
CONST	SEGMENT
??_C@_06KMMDPPA@user32?$AA@ DB 'user32', 00H		; `string'
CONST	ENDS
;	COMDAT ??_C@_0BK@MCKCJCIG@ChangeWindowMessageFilter?$AA@
CONST	SEGMENT
??_C@_0BK@MCKCJCIG@ChangeWindowMessageFilter?$AA@ DB 'ChangeWindowMessage'
	DB	'Filter', 00H				; `string'
CONST	ENDS
;	COMDAT ??_C@_0BE@FGMANJOG@SetThreadUILanguage?$AA@
CONST	SEGMENT
??_C@_0BE@FGMANJOG@SetThreadUILanguage?$AA@ DB 'SetThreadUILanguage', 00H ; `string'
CONST	ENDS
;	COMDAT ??_C@_1CA@INKEKHJP@?$AA?2?$AAV?$AAi?$AAr?$AAt?$AAu?$AAa?$AAl?$AAS?$AAt?$AAo?$AAr?$AAe?$AA?$CF?$AAs?$AA?$AA@
CONST	SEGMENT
??_C@_1CA@INKEKHJP@?$AA?2?$AAV?$AAi?$AAr?$AAt?$AAu?$AAa?$AAl?$AAS?$AAt?$AAo?$AAr?$AAe?$AA?$CF?$AAs?$AA?$AA@ DB '\'
	DB	00H, 'V', 00H, 'i', 00H, 'r', 00H, 't', 00H, 'u', 00H, 'a', 00H
	DB	'l', 00H, 'S', 00H, 't', 00H, 'o', 00H, 'r', 00H, 'e', 00H, '%'
	DB	00H, 's', 00H, 00H, 00H			; `string'
CONST	ENDS
;	COMDAT ??_C@_09IMBMLODE@EnableLUA?$AA@
CONST	SEGMENT
??_C@_09IMBMLODE@EnableLUA?$AA@ DB 'EnableLUA', 00H	; `string'
CONST	ENDS
;	COMDAT ??_C@_0DK@CJDIKJOC@SOFTWARE?2Microsoft?2Windows?2Curre@
CONST	SEGMENT
??_C@_0DK@CJDIKJOC@SOFTWARE?2Microsoft?2Windows?2Curre@ DB 'SOFTWARE\Micr'
	DB	'osoft\Windows\CurrentVersion\Policies\System', 00H ; `string'
CONST	ENDS
;	COMDAT ??_C@_0BO@KOCOEJCM@Wow64RevertWow64FsRedirection?$AA@
CONST	SEGMENT
??_C@_0BO@KOCOEJCM@Wow64RevertWow64FsRedirection?$AA@ DB 'Wow64RevertWow6'
	DB	'4FsRedirection', 00H			; `string'
CONST	ENDS
;	COMDAT ??_C@_0BP@OODKCJPP@Wow64DisableWow64FsRedirection?$AA@
CONST	SEGMENT
??_C@_0BP@OODKCJPP@Wow64DisableWow64FsRedirection?$AA@ DB 'Wow64DisableWo'
	DB	'w64FsRedirection', 00H			; `string'
CONST	ENDS
;	COMDAT ??_C@_0BH@MJKGPAOP@RegEnableReflectionKey?$AA@
CONST	SEGMENT
??_C@_0BH@MJKGPAOP@RegEnableReflectionKey?$AA@ DB 'RegEnableReflectionKey'
	DB	00H						; `string'
CONST	ENDS
;	COMDAT ??_C@_08DOPOLOOH@advapi32?$AA@
CONST	SEGMENT
??_C@_08DOPOLOOH@advapi32?$AA@ DB 'advapi32', 00H	; `string'
CONST	ENDS
;	COMDAT ??_C@_0BI@MCEAONBI@RegDisableReflectionKey?$AA@
CONST	SEGMENT
??_C@_0BI@MCEAONBI@RegDisableReflectionKey?$AA@ DB 'RegDisableReflectionK'
	DB	'ey', 00H					; `string'
CONST	ENDS
;	COMDAT ??_C@_08PNLNEKOB@kernel32?$AA@
CONST	SEGMENT
??_C@_08PNLNEKOB@kernel32?$AA@ DB 'kernel32', 00H	; `string'
CONST	ENDS
;	COMDAT ??_C@_0P@LKABJJMO@IsWow64Process?$AA@
CONST	SEGMENT
??_C@_0P@LKABJJMO@IsWow64Process?$AA@ DB 'IsWow64Process', 00H ; `string'
CONST	ENDS
;	COMDAT ??_C@_0BO@FMEMLCCA@?$CF02x?1?$CF02x?1?$CF02x?1?$CF02x?1?$CF02x?1?$CF02x?$AA@
CONST	SEGMENT
??_C@_0BO@FMEMLCCA@?$CF02x?1?$CF02x?1?$CF02x?1?$CF02x?1?$CF02x?1?$CF02x?$AA@ DB '%'
	DB	'02x/%02x/%02x/%02x/%02x/%02x', 00H		; `string'
CONST	ENDS
;	COMDAT ??_C@_0L@IGBOJMIH@?1select?0?$CFs?$AA@
CONST	SEGMENT
??_C@_0L@IGBOJMIH@?1select?0?$CFs?$AA@ DB '/select,%s', 00H ; `string'
CONST	ENDS
;	COMDAT ??_C@_0P@NJGPEHMM@_exception?4log?$AA@
CONST	SEGMENT
??_C@_0P@NJGPEHMM@_exception?4log?$AA@ DB '_exception.log', 00H ; `string'
CONST	ENDS
;	COMDAT ??_C@_08GKKICAKB@explorer?$AA@
CONST	SEGMENT
??_C@_08GKKICAKB@explorer?$AA@ DB 'explorer', 00H	; `string'
CONST	ENDS
;	COMDAT ??_C@_0BN@ODLBAGLK@?9?9?9?9?9?9?9?9?9?9?9?9?9?9?9?9?9?9?9?9?9?9?9?9?$AN?6?$AN?6?$AA@
CONST	SEGMENT
??_C@_0BN@ODLBAGLK@?9?9?9?9?9?9?9?9?9?9?9?9?9?9?9?9?9?9?9?9?9?9?9?9?$AN?6?$AN?6?$AA@ DB '-'
	DB	'-----------------------', 0dH, 0aH, 0dH, 0aH, 00H ; `string'
CONST	ENDS
;	COMDAT ??_C@_0BL@BMCMDBEN@?9?9?9?9?5trace?5log?5info?5?9?9?9?9?$AN?6?$AA@
CONST	SEGMENT
??_C@_0BL@BMCMDBEN@?9?9?9?9?5trace?5log?5info?5?9?9?9?9?$AN?6?$AA@ DB '--'
	DB	'-- trace log info ----', 0dH, 0aH, 00H	; `string'
CONST	ENDS
;	COMDAT ??_C@_03NHIGGOJD@Rip?$AA@
CONST	SEGMENT
??_C@_03NHIGGOJD@Rip?$AA@ DB 'Rip', 00H			; `string'
CONST	ENDS
;	COMDAT ??_C@_03DICHKKNL@R15?$AA@
CONST	SEGMENT
??_C@_03DICHKKNL@R15?$AA@ DB 'R15', 00H			; `string'
CONST	ENDS
;	COMDAT ??_C@_03CBDMJLJK@R14?$AA@
CONST	SEGMENT
??_C@_03CBDMJLJK@R14?$AA@ DB 'R14', 00H			; `string'
CONST	ENDS
;	COMDAT ??_C@_03GOHNANFN@R13?$AA@
CONST	SEGMENT
??_C@_03GOHNANFN@R13?$AA@ DB 'R13', 00H			; `string'
CONST	ENDS
;	COMDAT ??_C@_03HHGGDMBM@R12?$AA@
CONST	SEGMENT
??_C@_03HHGGDMBM@R12?$AA@ DB 'R12', 00H			; `string'
CONST	ENDS
;	COMDAT ??_C@_03FMELGPNP@R11?$AA@
CONST	SEGMENT
??_C@_03FMELGPNP@R11?$AA@ DB 'R11', 00H			; `string'
CONST	ENDS
;	COMDAT ??_C@_03EFFAFOJO@R10?$AA@
CONST	SEGMENT
??_C@_03EFFAFOJO@R10?$AA@ DB 'R10', 00H			; `string'
CONST	ENDS
;	COMDAT ??_C@_03BIBBNHH@R9?5?$AA@
CONST	SEGMENT
??_C@_03BIBBNHH@R9?5?$AA@ DB 'R9 ', 00H			; `string'
CONST	ENDS
;	COMDAT ??_C@_03EDHHEA@R8?5?$AA@
CONST	SEGMENT
??_C@_03EDHHEA@R8?5?$AA@ DB 'R8 ', 00H			; `string'
CONST	ENDS
;	COMDAT ??_C@_03MGDHEIDF@Rsp?$AA@
CONST	SEGMENT
??_C@_03MGDHEIDF@Rsp?$AA@ DB 'Rsp', 00H			; `string'
CONST	ENDS
;	COMDAT ??_C@_03NLNDIBHC@Rbp?$AA@
CONST	SEGMENT
??_C@_03NLNDIBHC@Rbp?$AA@ DB 'Rbp', 00H			; `string'
CONST	ENDS
;	COMDAT ??_C@_03EEFOFENI@Rdi?$AA@
CONST	SEGMENT
??_C@_03EEFOFENI@Rdi?$AA@ DB 'Rdi', 00H			; `string'
CONST	ENDS
;	COMDAT ??_C@_03FNDHOBCN@Rsi?$AA@
CONST	SEGMENT
??_C@_03FNDHOBCN@Rsi?$AA@ DB 'Rsi', 00H			; `string'
CONST	ENDS
;	COMDAT ??_C@_03BHIHHHMI@Rdx?$AA@
CONST	SEGMENT
??_C@_03BHIHHHMI@Rdx?$AA@ DB 'Rdx', 00H			; `string'
CONST	ENDS
;	COMDAT ??_C@_03BCMIGBEN@Rcx?$AA@
CONST	SEGMENT
??_C@_03BCMIGBEN@Rcx?$AA@ DB 'Rcx', 00H			; `string'
CONST	ENDS
;	COMDAT ??_C@_03BDAKALHK@Rbx?$AA@
CONST	SEGMENT
??_C@_03BDAKALHK@Rbx?$AA@ DB 'Rbx', 00H			; `string'
CONST	ENDS
;	COMDAT ??_C@_03BBEMLFCD@Rax?$AA@
CONST	SEGMENT
??_C@_03BBEMLFCD@Rax?$AA@ DB 'Rax', 00H			; `string'
CONST	ENDS
;	COMDAT ??_C@_0BL@KOEPHMLK@?9?9?9?9?5reg?5point?5info?5?9?9?9?9?$AN?6?$AA@
CONST	SEGMENT
??_C@_0BL@KOEPHMLK@?9?9?9?9?5reg?5point?5info?5?9?9?9?9?$AN?6?$AA@ DB '--'
	DB	'-- reg point info ----', 0dH, 0aH, 00H	; `string'
CONST	ENDS
;	COMDAT ??_C@_0BL@FDCOBIGB@?9?9?9?9?9?9?9?5stack?5info?5?9?9?9?9?9?$AN?6?$AA@
CONST	SEGMENT
??_C@_0BL@FDCOBIGB@?9?9?9?9?9?9?9?5stack?5info?5?9?9?9?9?9?$AN?6?$AA@ DB '-'
	DB	'------ stack info -----', 0dH, 0aH, 00H	; `string'
CONST	ENDS
;	COMDAT ??_C@_04GBFHKGDE@?$CFp?$CFs?$AA@
CONST	SEGMENT
??_C@_04GBFHKGDE@?$CFp?$CFs?$AA@ DB '%p%s', 00H		; `string'
CONST	ENDS
;	COMDAT ??_C@_01CLKCMJKC@?5?$AA@
CONST	SEGMENT
??_C@_01CLKCMJKC@?5?$AA@ DB ' ', 00H			; `string'
CONST	ENDS
;	COMDAT ??_C@_0OG@DMEEOACO@?5Code?1Adr?1DC?5?3?5?$CFX?5?1?5?$CFp?5?1?5?$CFp?$AN?6?5AX@
CONST	SEGMENT
??_C@_0OG@DMEEOACO@?5Code?1Adr?1DC?5?3?5?$CFX?5?1?5?$CFp?5?1?5?$CFp?$AN?6?5AX@ DB ' '
	DB	'Code/Adr/DC : %X / %p / %p', 0dH, 0aH, ' AX/BX/CX/DX : %p / %'
	DB	'p / %p / %p', 0dH, 0aH, ' SI/DI/BP/SP : %p / %p / %p / %p', 0dH
	DB	0aH, ' 08/09/10/11 : %p / %p / %p / %p', 0dH, 0aH, ' 12/13/14/'
	DB	'15 : %p / %p / %p / %p', 0dH, 0aH, ' BT/BF/ET/EF : %p / %p / '
	DB	'%p / %p', 0dH, 0aH, '------- pre stack info -----', 0dH, 0aH, 00H ; `string'
CONST	ENDS
;	COMDAT ??_C@_0IF@BFDDCMMG@?9?9?9?9?9?9?5?$CF?4100s?5?9?9?9?9?9?$AN?6?5Date?5?5?5?5?5?5@
CONST	SEGMENT
??_C@_0IF@BFDDCMMG@?9?9?9?9?9?9?5?$CF?4100s?5?9?9?9?9?9?$AN?6?5Date?5?5?5?5?5?5@ DB '-'
	DB	'----- %.100s -----', 0dH, 0aH, ' Date        : %d/%02d/%02d %'
	DB	'02d:%02d:%02d', 0dH, 0aH, ' Start       : %d/%02d/%02d %02d:%'
	DB	'02d:%02d', 0dH, 0aH, ' OS Infos    : %.100s', 0dH, 0aH, 00H ; `string'
CONST	ENDS
;	COMDAT ??_C@_03NDEAONJP@?5?5?5?$AA@
CONST	SEGMENT
??_C@_03NDEAONJP@?5?5?5?$AA@ DB '   ', 00H		; `string'
CONST	ENDS
;	COMDAT ??_C@_02PCIJFNDE@?$AN?6?$AA@
CONST	SEGMENT
??_C@_02PCIJFNDE@?$AN?6?$AA@ DB 0dH, 0aH, 00H		; `string'
CONST	ENDS
;	COMDAT ??_C@_09FAALLACF@?5?4?4?4?4?4?4?4?4?$AA@
CONST	SEGMENT
??_C@_09FAALLACF@?5?4?4?4?4?4?4?4?4?$AA@ DB ' ........', 00H ; `string'
CONST	ENDS
;	COMDAT ??_C@_0BC@NAGFGCOE@?5?$CF02x?$CF02x?$CF02x?$CF02x?$AA@
CONST	SEGMENT
??_C@_0BC@NAGFGCOE@?5?$CF02x?$CF02x?$CF02x?$CF02x?$AA@ DB ' %02x%02x%02x%'
	DB	'02x', 00H					; `string'
CONST	ENDS
;	COMDAT ??_C@_04EBNJJJJI@?$CF?4?$CKs?$AA@
CONST	SEGMENT
??_C@_04EBNJJJJI@?$CF?4?$CKs?$AA@ DB '%.*s', 00H	; `string'
CONST	ENDS
;	COMDAT ??_C@_03JKKBDOOC@?$DN?$DN?$DN?$AA@
CONST	SEGMENT
??_C@_03JKKBDOOC@?$DN?$DN?$DN?$AA@ DB '===', 00H	; `string'
CONST	ENDS
;	COMDAT ??_C@_1CC@FLKNJKKC@?$AA0?$AA1?$AA2?$AA3?$AA4?$AA5?$AA6?$AA7?$AA8?$AA9?$AAa?$AAb?$AAc?$AAd?$AAe?$AAf?$AA?$AA@
CONST	SEGMENT
??_C@_1CC@FLKNJKKC@?$AA0?$AA1?$AA2?$AA3?$AA4?$AA5?$AA6?$AA7?$AA8?$AA9?$AAa?$AAb?$AAc?$AAd?$AAe?$AAf?$AA?$AA@ DB '0'
	DB	00H, '1', 00H, '2', 00H, '3', 00H, '4', 00H, '5', 00H, '6', 00H
	DB	'7', 00H, '8', 00H, '9', 00H, 'a', 00H, 'b', 00H, 'c', 00H, 'd'
	DB	00H, 'e', 00H, 'f', 00H, 00H, 00H		; `string'
CONST	ENDS
;	COMDAT ??_C@_0BB@JCEFLFJE@0123456789abcdef?$AA@
CONST	SEGMENT
??_C@_0BB@JCEFLFJE@0123456789abcdef?$AA@ DB '0123456789abcdef', 00H ; `string'
CONST	ENDS
;	COMDAT ??_C@_1O@JBBHAGJJ@?$AA?$CF?$AAs?$AA?$CF?$AAs?$AA?$CF?$AAs?$AA?$AA@
CONST	SEGMENT
??_C@_1O@JBBHAGJJ@?$AA?$CF?$AAs?$AA?$CF?$AAs?$AA?$CF?$AAs?$AA?$AA@ DB '%', 00H
	DB	's', 00H, '%', 00H, 's', 00H, '%', 00H, 's', 00H, 00H, 00H ; `string'
CONST	ENDS
;	COMDAT ??_C@_13FPGAJAPJ@?$AA?2?$AA?$AA@
CONST	SEGMENT
??_C@_13FPGAJAPJ@?$AA?2?$AA?$AA@ DB '\', 00H, 00H, 00H	; `string'
CONST	ENDS
;	COMDAT ??_C@_15GANGMFKL@?$AA?$CF?$AAs?$AA?$AA@
CONST	SEGMENT
??_C@_15GANGMFKL@?$AA?$CF?$AAs?$AA?$AA@ DB '%', 00H, 's', 00H, 00H, 00H ; `string'
CONST	ENDS
;	COMDAT ??_C@_06DIJPEION@?$CFs?$CFs?$CFs?$AA@
CONST	SEGMENT
??_C@_06DIJPEION@?$CFs?$CFs?$CFs?$AA@ DB '%s%s%s', 00H	; `string'
CONST	ENDS
;	COMDAT ??_C@_01KICIPPFI@?2?$AA@
CONST	SEGMENT
??_C@_01KICIPPFI@?2?$AA@ DB '\', 00H			; `string'
CONST	ENDS
;	COMDAT ??_C@_02DKCKIIND@?$CFs?$AA@
CONST	SEGMENT
??_C@_02DKCKIIND@?$CFs?$AA@ DB '%s', 00H		; `string'
CONST	ENDS
;	COMDAT ??_C@_0BN@BINKLCDN@Detect?5too?5many?5wait?5threads?$AA@
CONST	SEGMENT
??_C@_0BN@BINKLCDN@Detect?5too?5many?5wait?5threads?$AA@ DB 'Detect too m'
	DB	'any wait threads', 00H			; `string'
CONST	ENDS
;	COMDAT ??_C@_04DFEBHPOG@TLib?$AA@
CONST	SEGMENT
??_C@_04DFEBHPOG@TLib?$AA@ DB 'TLib', 00H		; `string'
CONST	ENDS
;	COMDAT ??_C@_0DK@OLCJDIPE@?$EA?$CI?$CD?$CJCopyright?5?$CIC?$CJ?51996?92016?5H?4Sh@
CONST	SEGMENT
??_C@_0DK@OLCJDIPE@?$EA?$CI?$CD?$CJCopyright?5?$CIC?$CJ?51996?92016?5H?4Sh@ DB '@'
	DB	'(#)Copyright (C) 1996-2016 H.Shirouzu', 09H, 09H, 'tmisc.cpp', 09H
	DB	'Ver0.99', 00H				; `string'
?TrayNotifyId@@3U_GUID@@B DD 025dead04H			; TrayNotifyId
	DW	01eacH
	DW	04911H
	DB	09eH
	DB	03aH
	DB	0adH
	DB	0aH
	DB	04aH
	DB	0b5H
	DB	060H
	DB	0fdH
PUBLIC	??_G?$THashTblT@I@@UEAAPEAXI@Z			; THashTblT<unsigned int>::`scalar deleting destructor'
PUBLIC	??0?$THashObjT@I@@QEAA@XZ			; THashObjT<unsigned int>::THashObjT<unsigned int>
PUBLIC	??0?$THashTblT@I@@QEAA@HH@Z			; THashTblT<unsigned int>::THashTblT<unsigned int>
PUBLIC	??1?$THashTblT@I@@UEAA@XZ			; THashTblT<unsigned int>::~THashTblT<unsigned int>
PUBLIC	?Init@?$THashTblT@I@@UEAAHH@Z			; THashTblT<unsigned int>::Init
PUBLIC	?UnInit@?$THashTblT@I@@UEAAXXZ			; THashTblT<unsigned int>::UnInit
PUBLIC	?Register@?$THashTblT@I@@UEAAXPEAV?$THashObjT@I@@I@Z ; THashTblT<unsigned int>::Register
PUBLIC	?UnRegister@?$THashTblT@I@@UEAAXPEAV?$THashObjT@I@@@Z ; THashTblT<unsigned int>::UnRegister
PUBLIC	?Search@?$THashTblT@I@@UEAAPEAV?$THashObjT@I@@PEBXI@Z ; THashTblT<unsigned int>::Search
PUBLIC	?GetRegisterNum@?$THashTblT@I@@UEAAHXZ		; THashTblT<unsigned int>::GetRegisterNum
PUBLIC	?s@Wstr@@QEBAPEB_WXZ				; Wstr::s
PUBLIC	?UnInit@Wstr@@QEAAXXZ				; Wstr::UnInit
PUBLIC	?Init@Wstr@@QEAAXPEBDW4StrMode@@@Z		; Wstr::Init
PUBLIC	??1Wstr@@QEAA@XZ				; Wstr::~Wstr
PUBLIC	??0Wstr@@QEAA@PEBDW4StrMode@@@Z			; Wstr::Wstr
PUBLIC	?FirstInit@Wstr@@AEAAXXZ			; Wstr::FirstInit
PUBLIC	??1TResHash@@UEAA@XZ				; TResHash::~TResHash
PUBLIC	??_GTResHash@@UEAAPEAXI@Z			; TResHash::`scalar deleting destructor'
PUBLIC	?Register@TResHash@@QEAAXPEAUTResHashObj@@@Z	; TResHash::Register
PUBLIC	?Search@TResHash@@QEAAPEAUTResHashObj@@I@Z	; TResHash::Search
PUBLIC	??0TResHash@@QEAA@H@Z				; TResHash::TResHash
PUBLIC	?IsSameVal@TResHash@@MEAAHPEAV?$THashObjT@I@@PEBX@Z ; TResHash::IsSameVal
PUBLIC	??_GTResHashObj@@UEAAPEAXI@Z			; TResHashObj::`scalar deleting destructor'
PUBLIC	??1TResHashObj@@UEAA@XZ				; TResHashObj::~TResHashObj
PUBLIC	??0TResHashObj@@QEAA@IPEAX@Z			; TResHashObj::TResHashObj
PUBLIC	?strrchr@@YAPEADQEADH@Z				; strrchr
PUBLIC	?MakePathW@@YAHPEA_WPEB_W1@Z			; MakePathW
PUBLIC	?InitInstanceForLoadStr@@YAXPEAUHINSTANCE__@@@Z	; InitInstanceForLoadStr
PUBLIC	?ReadLinkW@@YAHPEA_W00@Z			; ReadLinkW
PUBLIC	?LoadStrA@@YAPEADIPEAUHINSTANCE__@@@Z		; LoadStrA
PUBLIC	?TSetThreadLocale@@YAHH@Z			; TSetThreadLocale
PUBLIC	?TWinVersion@@3KA				; TWinVersion
EXTRN	??_E?$THashTblT@I@@UEAAPEAXI@Z:PROC		; THashTblT<unsigned int>::`vector deleting destructor'
EXTRN	??_ETResHashObj@@UEAAPEAXI@Z:PROC		; TResHashObj::`vector deleting destructor'
EXTRN	??_ETResHash@@UEAAPEAXI@Z:PROC			; TResHash::`vector deleting destructor'
;	COMDAT ?hash@?1??LoadStrA@@YAPEADIPEAUHINSTANCE__@@@Z@4PEAVTResHash@@EA
_BSS	SEGMENT
?hash@?1??LoadStrA@@YAPEADIPEAUHINSTANCE__@@@Z@4PEAVTResHash@@EA DQ 01H DUP (?) ; `LoadStrA'::`2'::hash
_BSS	ENDS
;	COMDAT ?pSetThreadUILanguage@?1??TSetThreadLocale@@YAHH@Z@4P6AGG@ZEA
_BSS	SEGMENT
?pSetThreadUILanguage@?1??TSetThreadLocale@@YAHH@Z@4P6AGG@ZEA DQ 01H DUP (?) ; `TSetThreadLocale'::`2'::pSetThreadUILanguage
?TWinVersion@@3KA DD 01H DUP (?)			; TWinVersion
_BSS	ENDS
;	COMDAT pdata
pdata	SEGMENT
$pdata$??_G?$THashTblT@I@@UEAAPEAXI@Z DD imagerel $LN8
	DD	imagerel $LN8+74
	DD	imagerel $unwind$??_G?$THashTblT@I@@UEAAPEAXI@Z
pdata	ENDS
;	COMDAT pdata
pdata	SEGMENT
$pdata$??0?$THashTblT@I@@QEAA@HH@Z DD imagerel $LN5
	DD	imagerel $LN5+61
	DD	imagerel $unwind$??0?$THashTblT@I@@QEAA@HH@Z
pdata	ENDS
;	COMDAT pdata
pdata	SEGMENT
$pdata$??1?$THashTblT@I@@UEAA@XZ DD imagerel $LN3
	DD	imagerel $LN3+34
	DD	imagerel $unwind$??1?$THashTblT@I@@UEAA@XZ
pdata	ENDS
;	COMDAT pdata
pdata	SEGMENT
$pdata$?Init@?$THashTblT@I@@UEAAHH@Z DD imagerel $LN14
	DD	imagerel $LN14+214
	DD	imagerel $unwind$?Init@?$THashTblT@I@@UEAAHH@Z
pdata	ENDS
;	COMDAT pdata
pdata	SEGMENT
$pdata$?dtor$0@?0??Init@?$THashTblT@I@@UEAAHH@Z@4HA DD imagerel ?dtor$0@?0??Init@?$THashTblT@I@@UEAAHH@Z@4HA
	DD	imagerel ?dtor$0@?0??Init@?$THashTblT@I@@UEAAHH@Z@4HA+62
	DD	imagerel $unwind$?dtor$0@?0??Init@?$THashTblT@I@@UEAAHH@Z@4HA
pdata	ENDS
;	COMDAT pdata
pdata	SEGMENT
$pdata$?UnInit@?$THashTblT@I@@UEAAXXZ DD imagerel $LN31
	DD	imagerel $LN31+26
	DD	imagerel $unwind$?UnInit@?$THashTblT@I@@UEAAXXZ
pdata	ENDS
;	COMDAT pdata
pdata	SEGMENT
$pdata$0$?UnInit@?$THashTblT@I@@UEAAXXZ DD imagerel $LN31+26
	DD	imagerel $LN31+38
	DD	imagerel $chain$0$?UnInit@?$THashTblT@I@@UEAAXXZ
pdata	ENDS
;	COMDAT pdata
pdata	SEGMENT
$pdata$3$?UnInit@?$THashTblT@I@@UEAAXXZ DD imagerel $LN31+38
	DD	imagerel $LN31+131
	DD	imagerel $chain$3$?UnInit@?$THashTblT@I@@UEAAXXZ
pdata	ENDS
;	COMDAT pdata
pdata	SEGMENT
$pdata$4$?UnInit@?$THashTblT@I@@UEAAXXZ DD imagerel $LN31+131
	DD	imagerel $LN31+136
	DD	imagerel $chain$4$?UnInit@?$THashTblT@I@@UEAAXXZ
pdata	ENDS
;	COMDAT pdata
pdata	SEGMENT
$pdata$5$?UnInit@?$THashTblT@I@@UEAAXXZ DD imagerel $LN31+136
	DD	imagerel $LN31+194
	DD	imagerel $chain$5$?UnInit@?$THashTblT@I@@UEAAXXZ
pdata	ENDS
;	COMDAT pdata
pdata	SEGMENT
$pdata$?Register@?$THashTblT@I@@UEAAXPEAV?$THashObjT@I@@I@Z DD imagerel $LN5
	DD	imagerel $LN5+55
	DD	imagerel $unwind$?Register@?$THashTblT@I@@UEAAXPEAV?$THashObjT@I@@I@Z
pdata	ENDS
;	COMDAT pdata
pdata	SEGMENT
$pdata$?UnRegister@?$THashTblT@I@@UEAAXPEAV?$THashObjT@I@@@Z DD imagerel $LN5
	DD	imagerel $LN5+31
	DD	imagerel $unwind$?UnRegister@?$THashTblT@I@@UEAAXPEAV?$THashObjT@I@@@Z
pdata	ENDS
;	COMDAT pdata
pdata	SEGMENT
$pdata$?Search@?$THashTblT@I@@UEAAPEAV?$THashObjT@I@@PEBXI@Z DD imagerel $LN14
	DD	imagerel $LN14+130
	DD	imagerel $unwind$?Search@?$THashTblT@I@@UEAAPEAV?$THashObjT@I@@PEBXI@Z
pdata	ENDS
;	COMDAT pdata
pdata	SEGMENT
$pdata$?UnInit@Wstr@@QEAAXXZ DD imagerel $LN6
	DD	imagerel $LN6+42
	DD	imagerel $unwind$?UnInit@Wstr@@QEAAXXZ
pdata	ENDS
;	COMDAT pdata
pdata	SEGMENT
$pdata$?Init@Wstr@@QEAAXPEBDW4StrMode@@@Z DD imagerel $LN12
	DD	imagerel $LN12+113
	DD	imagerel $unwind$?Init@Wstr@@QEAAXPEBDW4StrMode@@@Z
pdata	ENDS
;	COMDAT pdata
pdata	SEGMENT
$pdata$??1Wstr@@QEAA@XZ DD imagerel $LN8
	DD	imagerel $LN8+42
	DD	imagerel $unwind$??1Wstr@@QEAA@XZ
pdata	ENDS
;	COMDAT pdata
pdata	SEGMENT
$pdata$??0Wstr@@QEAA@PEBDW4StrMode@@@Z DD imagerel $LN15
	DD	imagerel $LN15+82
	DD	imagerel $unwind$??0Wstr@@QEAA@PEBDW4StrMode@@@Z
pdata	ENDS
;	COMDAT pdata
pdata	SEGMENT
$pdata$??1TResHash@@UEAA@XZ DD imagerel $LN6
	DD	imagerel $LN6+34
	DD	imagerel $unwind$??1TResHash@@UEAA@XZ
pdata	ENDS
;	COMDAT pdata
pdata	SEGMENT
$pdata$??_GTResHash@@UEAAPEAXI@Z DD imagerel $LN11
	DD	imagerel $LN11+74
	DD	imagerel $unwind$??_GTResHash@@UEAAPEAXI@Z
pdata	ENDS
;	COMDAT pdata
pdata	SEGMENT
$pdata$?Register@TResHash@@QEAAXPEAUTResHashObj@@@Z DD imagerel $LN7
	DD	imagerel $LN7+56
	DD	imagerel $unwind$?Register@TResHash@@QEAAXPEAUTResHashObj@@@Z
pdata	ENDS
;	COMDAT pdata
pdata	SEGMENT
$pdata$?Search@TResHash@@QEAAPEAUTResHashObj@@I@Z DD imagerel $LN16
	DD	imagerel $LN16+126
	DD	imagerel $unwind$?Search@TResHash@@QEAAPEAUTResHashObj@@I@Z
pdata	ENDS
;	COMDAT pdata
pdata	SEGMENT
$pdata$??0TResHash@@QEAA@H@Z DD imagerel $LN8
	DD	imagerel $LN8+71
	DD	imagerel $unwind$??0TResHash@@QEAA@H@Z
pdata	ENDS
;	COMDAT pdata
pdata	SEGMENT
$pdata$??_GTResHashObj@@UEAAPEAXI@Z DD imagerel $LN16
	DD	imagerel $LN16+121
	DD	imagerel $unwind$??_GTResHashObj@@UEAAPEAXI@Z
pdata	ENDS
;	COMDAT pdata
pdata	SEGMENT
$pdata$??1TResHashObj@@UEAA@XZ DD imagerel $LN11
	DD	imagerel $LN11+88
	DD	imagerel $unwind$??1TResHashObj@@UEAA@XZ
pdata	ENDS
;	COMDAT pdata
pdata	SEGMENT
$pdata$?MakePathW@@YAHPEA_WPEB_W1@Z DD imagerel $LN6
	DD	imagerel $LN6+106
	DD	imagerel $unwind$?MakePathW@@YAHPEA_WPEB_W1@Z
pdata	ENDS
;	COMDAT pdata
pdata	SEGMENT
$pdata$?ReadLinkW@@YAHPEA_W00@Z DD imagerel $LN10
	DD	imagerel $LN10+185
	DD	imagerel $unwind$?ReadLinkW@@YAHPEA_W00@Z
pdata	ENDS
;	COMDAT pdata
pdata	SEGMENT
$pdata$?LoadStrA@@YAPEADIPEAUHINSTANCE__@@@Z DD imagerel $LN30
	DD	imagerel $LN30+318
	DD	imagerel $unwind$?LoadStrA@@YAPEADIPEAUHINSTANCE__@@@Z
pdata	ENDS
;	COMDAT pdata
pdata	SEGMENT
$pdata$?dtor$0@?0??LoadStrA@@YAPEADIPEAUHINSTANCE__@@@Z@4HA DD imagerel ?dtor$0@?0??LoadStrA@@YAPEADIPEAUHINSTANCE__@@@Z@4HA
	DD	imagerel ?dtor$0@?0??LoadStrA@@YAPEADIPEAUHINSTANCE__@@@Z@4HA+29
	DD	imagerel $unwind$?dtor$0@?0??LoadStrA@@YAPEADIPEAUHINSTANCE__@@@Z@4HA
pdata	ENDS
;	COMDAT pdata
pdata	SEGMENT
$pdata$?TSetThreadLocale@@YAHH@Z DD imagerel $LN7
	DD	imagerel $LN7+96
	DD	imagerel $unwind$?TSetThreadLocale@@YAHH@Z
pdata	ENDS
CRT$XCU	SEGMENT
?TWinVersion$initializer$@@3P6AXXZEA DQ FLAT:??__ETWinVersion@@YAXXZ ; TWinVersion$initializer$
;	COMDAT xdata
xdata	SEGMENT
$unwind$?TSetThreadLocale@@YAHH@Z DD 020601H
	DD	030023206H
xdata	ENDS
;	COMDAT xdata
xdata	SEGMENT
$unwind$?dtor$0@?0??LoadStrA@@YAPEADIPEAUHINSTANCE__@@@Z@4HA DD 020601H
	DD	050023206H
xdata	ENDS
;	COMDAT xdata
xdata	SEGMENT
$ip2state$?LoadStrA@@YAPEADIPEAUHINSTANCE__@@@Z DD imagerel ?LoadStrA@@YAPEADIPEAUHINSTANCE__@@@Z
	DD	0ffffffffH
	DD	imagerel ?LoadStrA@@YAPEADIPEAUHINSTANCE__@@@Z+75
	DD	00H
	DD	imagerel ?LoadStrA@@YAPEADIPEAUHINSTANCE__@@@Z+129
	DD	0ffffffffH
xdata	ENDS
;	COMDAT xdata
xdata	SEGMENT
$stateUnwindMap$?LoadStrA@@YAPEADIPEAUHINSTANCE__@@@Z DD 0ffffffffH
	DD	imagerel ?dtor$0@?0??LoadStrA@@YAPEADIPEAUHINSTANCE__@@@Z@4HA
xdata	ENDS
;	COMDAT CONST
CONST	SEGMENT
$cppxdata$?LoadStrA@@YAPEADIPEAUHINSTANCE__@@@Z DD 019930522H
	DD	01H
	DD	imagerel $stateUnwindMap$?LoadStrA@@YAPEADIPEAUHINSTANCE__@@@Z
	DD	00H
	DD	00H
	DD	03H
	DD	imagerel $ip2state$?LoadStrA@@YAPEADIPEAUHINSTANCE__@@@Z
	DD	028H
	DD	00H
	DD	01H
CONST	ENDS
;	COMDAT xdata
xdata	SEGMENT
$unwind$?LoadStrA@@YAPEADIPEAUHINSTANCE__@@@Z DD 072e19H
	DD	08c641cH
	DD	08b3418H
	DD	088010bH
	DD	07004H
	DD	imagerel __GSHandlerCheck_EH
	DD	imagerel $cppxdata$?LoadStrA@@YAPEADIPEAUHINSTANCE__@@@Z
	DD	0432H
xdata	ENDS
;	COMDAT xdata
xdata	SEGMENT
$unwind$?ReadLinkW@@YAHPEA_W00@Z DD 061101H
	DD	0a3411H
	DD	0700d5211H
	DD	0500b600cH
xdata	ENDS
;	COMDAT xdata
xdata	SEGMENT
$unwind$?MakePathW@@YAHPEA_WPEB_W1@Z DD 010401H
	DD	06204H
xdata	ENDS
;	COMDAT xdata
xdata	SEGMENT
$unwind$??1TResHashObj@@UEAA@XZ DD 020601H
	DD	030023206H
xdata	ENDS
;	COMDAT xdata
xdata	SEGMENT
$unwind$??_GTResHashObj@@UEAAPEAXI@Z DD 040a01H
	DD	06340aH
	DD	07006320aH
xdata	ENDS
;	COMDAT xdata
xdata	SEGMENT
$unwind$??0TResHash@@QEAA@H@Z DD 020601H
	DD	030023206H
xdata	ENDS
;	COMDAT xdata
xdata	SEGMENT
$unwind$?Search@TResHash@@QEAAPEAUTResHashObj@@I@Z DD 081801H
	DD	096418H
	DD	085418H
	DD	063418H
	DD	070143218H
xdata	ENDS
;	COMDAT xdata
xdata	SEGMENT
$unwind$?Register@TResHash@@QEAAXPEAUTResHashObj@@@Z DD 020601H
	DD	030023206H
xdata	ENDS
;	COMDAT xdata
xdata	SEGMENT
$ip2state$??_GTResHash@@UEAAPEAXI@Z DD imagerel ??_GTResHash@@UEAAPEAXI@Z
	DD	0ffffffffH
	DD	imagerel ??_GTResHash@@UEAAPEAXI@Z+25
	DD	00H
	DD	imagerel ??_GTResHash@@UEAAPEAXI@Z+41
	DD	0ffffffffH
xdata	ENDS
;	COMDAT xdata
xdata	SEGMENT
$stateUnwindMap$??_GTResHash@@UEAAPEAXI@Z DD 0ffffffffH
	DD	imagerel __std_terminate
xdata	ENDS
;	COMDAT CONST
CONST	SEGMENT
$cppxdata$??_GTResHash@@UEAAPEAXI@Z DD 019930522H
	DD	01H
	DD	imagerel $stateUnwindMap$??_GTResHash@@UEAAPEAXI@Z
	DD	00H
	DD	00H
	DD	03H
	DD	imagerel $ip2state$??_GTResHash@@UEAAPEAXI@Z
	DD	020H
	DD	00H
	DD	05H
CONST	ENDS
;	COMDAT xdata
xdata	SEGMENT
$unwind$??_GTResHash@@UEAAPEAXI@Z DD 041419H
	DD	083414H
	DD	070025206H
	DD	imagerel __CxxFrameHandler3
	DD	imagerel $cppxdata$??_GTResHash@@UEAAPEAXI@Z
xdata	ENDS
;	COMDAT xdata
xdata	SEGMENT
$ip2state$??1TResHash@@UEAA@XZ DD imagerel ??1TResHash@@UEAA@XZ
	DD	0ffffffffH
	DD	imagerel ??1TResHash@@UEAA@XZ+13
	DD	00H
	DD	imagerel ??1TResHash@@UEAA@XZ+29
	DD	0ffffffffH
xdata	ENDS
;	COMDAT xdata
xdata	SEGMENT
$stateUnwindMap$??1TResHash@@UEAA@XZ DD 0ffffffffH
	DD	imagerel __std_terminate
xdata	ENDS
;	COMDAT CONST
CONST	SEGMENT
$cppxdata$??1TResHash@@UEAA@XZ DD 019930522H
	DD	01H
	DD	imagerel $stateUnwindMap$??1TResHash@@UEAA@XZ
	DD	00H
	DD	00H
	DD	03H
	DD	imagerel $ip2state$??1TResHash@@UEAA@XZ
	DD	020H
	DD	00H
	DD	05H
CONST	ENDS
;	COMDAT xdata
xdata	SEGMENT
$unwind$??1TResHash@@UEAA@XZ DD 010d19H
	DD	06204H
	DD	imagerel __CxxFrameHandler3
	DD	imagerel $cppxdata$??1TResHash@@UEAA@XZ
xdata	ENDS
;	COMDAT xdata
xdata	SEGMENT
$unwind$??0Wstr@@QEAA@PEBDW4StrMode@@@Z DD 020601H
	DD	030023206H
xdata	ENDS
;	COMDAT xdata
xdata	SEGMENT
$unwind$??1Wstr@@QEAA@XZ DD 020601H
	DD	030023206H
xdata	ENDS
;	COMDAT xdata
xdata	SEGMENT
$unwind$?Init@Wstr@@QEAAXPEBDW4StrMode@@@Z DD 060f01H
	DD	07640fH
	DD	06340fH
	DD	0700b320fH
xdata	ENDS
;	COMDAT xdata
xdata	SEGMENT
$unwind$?UnInit@Wstr@@QEAAXXZ DD 020601H
	DD	030023206H
xdata	ENDS
;	COMDAT xdata
xdata	SEGMENT
$unwind$?Search@?$THashTblT@I@@UEAAPEAV?$THashObjT@I@@PEBXI@Z DD 0a1a01H
	DD	09741aH
	DD	08641aH
	DD	07541aH
	DD	06341aH
	DD	0e016321aH
xdata	ENDS
;	COMDAT xdata
xdata	SEGMENT
$unwind$?UnRegister@?$THashTblT@I@@UEAAXPEAV?$THashObjT@I@@@Z DD 020601H
	DD	030023206H
xdata	ENDS
;	COMDAT xdata
xdata	SEGMENT
$unwind$?Register@?$THashTblT@I@@UEAAXPEAV?$THashObjT@I@@I@Z DD 020601H
	DD	030023206H
xdata	ENDS
;	COMDAT xdata
xdata	SEGMENT
$chain$5$?UnInit@?$THashTblT@I@@UEAAXXZ DD 021H
	DD	imagerel $LN31
	DD	imagerel $LN31+26
	DD	imagerel $unwind$?UnInit@?$THashTblT@I@@UEAAXXZ
xdata	ENDS
;	COMDAT xdata
xdata	SEGMENT
$chain$4$?UnInit@?$THashTblT@I@@UEAAXXZ DD 021H
	DD	imagerel $LN31+26
	DD	imagerel $LN31+38
	DD	imagerel $chain$0$?UnInit@?$THashTblT@I@@UEAAXXZ
xdata	ENDS
;	COMDAT xdata
xdata	SEGMENT
$chain$3$?UnInit@?$THashTblT@I@@UEAAXXZ DD 060f21H
	DD	09e40fH
	DD	08740aH
	DD	076405H
	DD	imagerel $LN31+26
	DD	imagerel $LN31+38
	DD	imagerel $chain$0$?UnInit@?$THashTblT@I@@UEAAXXZ
xdata	ENDS
;	COMDAT xdata
xdata	SEGMENT
$chain$0$?UnInit@?$THashTblT@I@@UEAAXXZ DD 020521H
	DD	065405H
	DD	imagerel $LN31
	DD	imagerel $LN31+26
	DD	imagerel $unwind$?UnInit@?$THashTblT@I@@UEAAXXZ
xdata	ENDS
;	COMDAT xdata
xdata	SEGMENT
$unwind$?UnInit@?$THashTblT@I@@UEAAXXZ DD 020601H
	DD	030023206H
xdata	ENDS
;	COMDAT xdata
xdata	SEGMENT
$unwind$?dtor$0@?0??Init@?$THashTblT@I@@UEAAHH@Z@4HA DD 020601H
	DD	050023206H
xdata	ENDS
;	COMDAT xdata
xdata	SEGMENT
$ip2state$?Init@?$THashTblT@I@@UEAAHH@Z DD imagerel ?Init@?$THashTblT@I@@UEAAHH@Z
	DD	0ffffffffH
	DD	imagerel ?Init@?$THashTblT@I@@UEAAHH@Z+79
	DD	00H
	DD	imagerel ?Init@?$THashTblT@I@@UEAAHH@Z+130
	DD	0ffffffffH
xdata	ENDS
;	COMDAT xdata
xdata	SEGMENT
$stateUnwindMap$?Init@?$THashTblT@I@@UEAAHH@Z DD 0ffffffffH
	DD	imagerel ?dtor$0@?0??Init@?$THashTblT@I@@UEAAHH@Z@4HA
xdata	ENDS
;	COMDAT CONST
CONST	SEGMENT
$cppxdata$?Init@?$THashTblT@I@@UEAAHH@Z DD 019930522H
	DD	01H
	DD	imagerel $stateUnwindMap$?Init@?$THashTblT@I@@UEAAHH@Z
	DD	00H
	DD	00H
	DD	03H
	DD	imagerel $ip2state$?Init@?$THashTblT@I@@UEAAHH@Z
	DD	030H
	DD	00H
	DD	01H
CONST	ENDS
;	COMDAT xdata
xdata	SEGMENT
$unwind$?Init@?$THashTblT@I@@UEAAHH@Z DD 061911H
	DD	0d6419H
	DD	0b3414H
	DD	070027206H
	DD	imagerel __CxxFrameHandler3
	DD	imagerel $cppxdata$?Init@?$THashTblT@I@@UEAAHH@Z
xdata	ENDS
;	COMDAT xdata
xdata	SEGMENT
$ip2state$??1?$THashTblT@I@@UEAA@XZ DD imagerel ??1?$THashTblT@I@@UEAA@XZ
	DD	0ffffffffH
xdata	ENDS
;	COMDAT CONST
CONST	SEGMENT
$cppxdata$??1?$THashTblT@I@@UEAA@XZ DD 019930522H
	DD	00H
	DD	00H
	DD	00H
	DD	00H
	DD	01H
	DD	imagerel $ip2state$??1?$THashTblT@I@@UEAA@XZ
	DD	020H
	DD	00H
	DD	05H
CONST	ENDS
;	COMDAT xdata
xdata	SEGMENT
$unwind$??1?$THashTblT@I@@UEAA@XZ DD 010d19H
	DD	06204H
	DD	imagerel __CxxFrameHandler3
	DD	imagerel $cppxdata$??1?$THashTblT@I@@UEAA@XZ
xdata	ENDS
;	COMDAT xdata
xdata	SEGMENT
$unwind$??0?$THashTblT@I@@QEAA@HH@Z DD 020601H
	DD	030023206H
xdata	ENDS
;	COMDAT xdata
xdata	SEGMENT
$ip2state$??_G?$THashTblT@I@@UEAAPEAXI@Z DD imagerel ??_G?$THashTblT@I@@UEAAPEAXI@Z
	DD	0ffffffffH
	DD	imagerel ??_G?$THashTblT@I@@UEAAPEAXI@Z+25
	DD	00H
	DD	imagerel ??_G?$THashTblT@I@@UEAAPEAXI@Z+41
	DD	0ffffffffH
xdata	ENDS
;	COMDAT xdata
xdata	SEGMENT
$stateUnwindMap$??_G?$THashTblT@I@@UEAAPEAXI@Z DD 0ffffffffH
	DD	imagerel __std_terminate
xdata	ENDS
;	COMDAT CONST
CONST	SEGMENT
$cppxdata$??_G?$THashTblT@I@@UEAAPEAXI@Z DD 019930522H
	DD	01H
	DD	imagerel $stateUnwindMap$??_G?$THashTblT@I@@UEAAPEAXI@Z
	DD	00H
	DD	00H
	DD	03H
	DD	imagerel $ip2state$??_G?$THashTblT@I@@UEAAPEAXI@Z
	DD	020H
	DD	00H
	DD	05H
CONST	ENDS
;	COMDAT xdata
xdata	SEGMENT
$unwind$??_G?$THashTblT@I@@UEAAPEAXI@Z DD 041419H
	DD	083414H
	DD	070025206H
	DD	imagerel __CxxFrameHandler3
	DD	imagerel $cppxdata$??_G?$THashTblT@I@@UEAAPEAXI@Z
; Function compile flags: /Ogtpy
; File f:\software1\系统软件\fastcopy\fastcopy325src\src\tlib\tmisc.cpp
;	COMDAT ?TSetThreadLocale@@YAHH@Z
_TEXT	SEGMENT
lcid$ = 48
?TSetThreadLocale@@YAHH@Z PROC				; TSetThreadLocale, COMDAT

; 1281 : {

$LN7:
  00000	40 53		 push	 rbx
  00002	48 83 ec 20	 sub	 rsp, 32			; 00000020H

; 1282 : 	static BOOL	once = FALSE;
; 1283 : 	static LANGID (WINAPI *pSetThreadUILanguage)(LANGID LangId);
; 1284 : 
; 1285 : 	if (!once) {

  00006	83 3d 00 00 00
	00 00		 cmp	 DWORD PTR ?once@?1??TSetThreadLocale@@YAHH@Z@4HA, 0
  0000d	8b d9		 mov	 ebx, ecx
  0000f	75 30		 jne	 SHORT $LN5@TSetThread

; 1286 : //		if (IsWinVista()) {	// ignore if XP
; 1287 : 			pSetThreadUILanguage = (LANGID (WINAPI *)(LANGID LangId))

  00011	48 8d 0d 00 00
	00 00		 lea	 rcx, OFFSET FLAT:??_C@_08PNLNEKOB@kernel32?$AA@
  00018	ff 15 00 00 00
	00		 call	 QWORD PTR __imp_GetModuleHandleA
  0001e	48 8b c8	 mov	 rcx, rax
  00021	48 8d 15 00 00
	00 00		 lea	 rdx, OFFSET FLAT:??_C@_0BE@FGMANJOG@SetThreadUILanguage?$AA@
  00028	ff 15 00 00 00
	00		 call	 QWORD PTR __imp_GetProcAddress
  0002e	48 89 05 00 00
	00 00		 mov	 QWORD PTR ?pSetThreadUILanguage@?1??TSetThreadLocale@@YAHH@Z@4P6AGG@ZEA, rax

; 1288 : 				GetProcAddress(::GetModuleHandle("kernel32"), "SetThreadUILanguage");
; 1289 : //		}
; 1290 : 		once = TRUE;

  00035	c7 05 00 00 00
	00 01 00 00 00	 mov	 DWORD PTR ?once@?1??TSetThreadLocale@@YAHH@Z@4HA, 1
  0003f	eb 07		 jmp	 SHORT $LN2@TSetThread
$LN5@TSetThread:
  00041	48 8b 05 00 00
	00 00		 mov	 rax, QWORD PTR ?pSetThreadUILanguage@?1??TSetThreadLocale@@YAHH@Z@4P6AGG@ZEA
$LN2@TSetThread:

; 1291 : 	}
; 1292 : 
; 1293 : 	if (pSetThreadUILanguage) {

  00048	48 85 c0	 test	 rax, rax
  0004b	74 05		 je	 SHORT $LN3@TSetThread

; 1294 : 		pSetThreadUILanguage(LANGIDFROMLCID(lcid));

  0004d	0f b7 cb	 movzx	 ecx, bx
  00050	ff d0		 call	 rax
$LN3@TSetThread:

; 1295 : 	}
; 1296 : 	return ::SetThreadLocale(lcid);

  00052	8b cb		 mov	 ecx, ebx

; 1297 : }

  00054	48 83 c4 20	 add	 rsp, 32			; 00000020H
  00058	5b		 pop	 rbx

; 1295 : 	}
; 1296 : 	return ::SetThreadLocale(lcid);

  00059	48 ff 25 00 00
	00 00		 rex_jmp QWORD PTR __imp_SetThreadLocale
?TSetThreadLocale@@YAHH@Z ENDP				; TSetThreadLocale
_TEXT	ENDS
; Function compile flags: /Ogtpy
; File f:\software1\系统软件\fastcopy\fastcopy325src\src\tlib\tmisc.cpp
; File f:\software1\系统软件\fastcopy\fastcopy325src\src\tlib\tmisc.h
; File f:\software1\系统软件\fastcopy\fastcopy325src\src\tlib\tmisc.cpp
; File f:\software1\系统软件\fastcopy\fastcopy325src\src\tlib\tmisc.h
; File f:\software1\系统软件\fastcopy\fastcopy325src\src\tlib\tmisc.cpp
; File f:\software1\系统软件\fastcopy\fastcopy325src\src\tlib\tmisc.h
; File f:\software1\系统软件\fastcopy\fastcopy325src\src\tlib\tmisc.cpp
;	COMDAT ?LoadStrA@@YAPEADIPEAUHINSTANCE__@@@Z
_TEXT	SEGMENT
$T1 = 32
$T2 = 32
$T3 = 40
buf$ = 48
__$ArrayPad$ = 1072
resId$ = 1104
hI$dead$ = 1112
?LoadStrA@@YAPEADIPEAUHINSTANCE__@@@Z PROC		; LoadStrA, COMDAT

; 288  : {

$LN30:
  00000	48 8b c4	 mov	 rax, rsp
  00003	57		 push	 rdi
  00004	48 81 ec 40 04
	00 00		 sub	 rsp, 1088		; 00000440H
  0000b	48 c7 44 24 28
	fe ff ff ff	 mov	 QWORD PTR $T3[rsp], -2
  00014	48 89 58 10	 mov	 QWORD PTR [rax+16], rbx
  00018	48 89 70 18	 mov	 QWORD PTR [rax+24], rsi
  0001c	48 8b 05 00 00
	00 00		 mov	 rax, QWORD PTR __security_cookie
  00023	48 33 c4	 xor	 rax, rsp
  00026	48 89 84 24 30
	04 00 00	 mov	 QWORD PTR __$ArrayPad$[rsp], rax
  0002e	8b f9		 mov	 edi, ecx

; 289  : 	static TResHash	*hash;
; 290  : 
; 291  : 	if (hash == NULL) {

  00030	33 f6		 xor	 esi, esi
  00032	48 39 35 00 00
	00 00		 cmp	 QWORD PTR ?hash@?1??LoadStrA@@YAPEADIPEAUHINSTANCE__@@@Z@4PEAVTResHash@@EA, rsi
  00039	75 4d		 jne	 SHORT $LN2@LoadStrA

; 292  : 		hash = new TResHash(1000);

  0003b	8d 4e 20	 lea	 ecx, QWORD PTR [rsi+32]
  0003e	e8 00 00 00 00	 call	 ??2@YAPEAX_K@Z		; operator new
  00043	48 8b d8	 mov	 rbx, rax
  00046	48 89 44 24 20	 mov	 QWORD PTR $T2[rsp], rax
; File f:\software1\系统软件\fastcopy\fastcopy325src\src\tlib\tmisc.h

; 71   : 	THashTblT(int _hashNum=0, BOOL _isDeleteObj=TRUE) {

  0004b	48 8d 05 00 00
	00 00		 lea	 rax, OFFSET FLAT:??_7?$THashTblT@I@@6B@
  00052	48 89 03	 mov	 QWORD PTR [rbx], rax

; 72   : 		hashTbl = NULL;

  00055	48 89 73 08	 mov	 QWORD PTR [rbx+8], rsi

; 73   : 		registerNum = 0;

  00059	89 73 14	 mov	 DWORD PTR [rbx+20], esi

; 74   : 		isDeleteObj = _isDeleteObj;

  0005c	c7 43 18 01 00
	00 00		 mov	 DWORD PTR [rbx+24], 1

; 75   : 		if ((hashNum = _hashNum) > 0) {

  00063	c7 43 10 e8 03
	00 00		 mov	 DWORD PTR [rbx+16], 1000 ; 000003e8H

; 76   : 			Init(hashNum);

  0006a	ba e8 03 00 00	 mov	 edx, 1000		; 000003e8H
  0006f	48 8b cb	 mov	 rcx, rbx
  00072	e8 00 00 00 00	 call	 ?Init@?$THashTblT@I@@UEAAHH@Z ; THashTblT<unsigned int>::Init

; 164  : 	TResHash(int _hashNum) : THashTbl(_hashNum) {}

  00077	48 8d 05 00 00
	00 00		 lea	 rax, OFFSET FLAT:??_7TResHash@@6B@
  0007e	48 89 03	 mov	 QWORD PTR [rbx], rax
; File f:\software1\系统软件\fastcopy\fastcopy325src\src\tlib\tmisc.cpp

; 292  : 		hash = new TResHash(1000);

  00081	48 89 1d 00 00
	00 00		 mov	 QWORD PTR ?hash@?1??LoadStrA@@YAPEADIPEAUHINSTANCE__@@@Z@4PEAVTResHash@@EA, rbx
$LN2@LoadStrA:

; 293  : 	}
; 294  : 
; 295  : 	char		buf[1024];
; 296  : 	TResHashObj	*obj;
; 297  : 
; 298  : 	if ((obj = hash->Search(resId)) == NULL) {

  00088	8b d7		 mov	 edx, edi
  0008a	e8 00 00 00 00	 call	 ?Search@TResHash@@QEAAPEAUTResHashObj@@I@Z ; TResHash::Search
  0008f	48 8b d8	 mov	 rbx, rax
  00092	48 85 c0	 test	 rax, rax
  00095	75 7e		 jne	 SHORT $LN27@LoadStrA

; 299  : 		if (::LoadStringA(hI ? hI : defaultStrInstance, resId, buf, sizeof(buf)) >= 0) {

  00097	41 b9 00 04 00
	00		 mov	 r9d, 1024		; 00000400H
  0009d	4c 8d 44 24 30	 lea	 r8, QWORD PTR buf$[rsp]
  000a2	8b d7		 mov	 edx, edi
  000a4	48 8b 0d 00 00
	00 00		 mov	 rcx, QWORD PTR ?defaultStrInstance@@3PEAUHINSTANCE__@@EA ; defaultStrInstance
  000ab	ff 15 00 00 00
	00		 call	 QWORD PTR __imp_LoadStringA
  000b1	85 c0		 test	 eax, eax
  000b3	78 5b		 js	 SHORT $LN10@LoadStrA

; 300  : 			obj = new TResHashObj(resId, strdup(buf));

  000b5	8d 4b 28	 lea	 ecx, QWORD PTR [rbx+40]
  000b8	e8 00 00 00 00	 call	 ??2@YAPEAX_K@Z		; operator new
  000bd	48 8b d8	 mov	 rbx, rax
  000c0	48 89 44 24 20	 mov	 QWORD PTR $T1[rsp], rax
  000c5	48 8d 4c 24 30	 lea	 rcx, QWORD PTR buf$[rsp]
  000ca	e8 00 00 00 00	 call	 strdup
; File f:\software1\系统软件\fastcopy\fastcopy325src\src\tlib\tmisc.h

; 31   : 		prevHash = nextHash = NULL;

  000cf	48 89 73 10	 mov	 QWORD PTR [rbx+16], rsi
  000d3	48 89 73 08	 mov	 QWORD PTR [rbx+8], rsi

; 146  : 	TResHashObj(UINT _resId, void *_val) {

  000d7	48 8d 0d 00 00
	00 00		 lea	 rcx, OFFSET FLAT:??_7TResHashObj@@6B@
  000de	48 89 0b	 mov	 QWORD PTR [rbx], rcx

; 147  : 		hashId = _resId;
; 148  : 		val = _val;

  000e1	48 89 43 20	 mov	 QWORD PTR [rbx+32], rax
; File f:\software1\系统软件\fastcopy\fastcopy325src\src\tlib\tmisc.cpp

; 301  : 			hash->Register(obj);

  000e5	48 8b 35 00 00
	00 00		 mov	 rsi, QWORD PTR ?hash@?1??LoadStrA@@YAPEADIPEAUHINSTANCE__@@@Z@4PEAVTResHash@@EA
; File f:\software1\系统软件\fastcopy\fastcopy325src\src\tlib\tmisc.h

; 112  : 		obj->hashId = hash_id;

  000ec	89 7b 18	 mov	 DWORD PTR [rbx+24], edi

; 113  : 		if (obj->LinkHash(hashTbl + (hash_id % hashNum))) {

  000ef	33 d2		 xor	 edx, edx
  000f1	8b c7		 mov	 eax, edi
  000f3	f7 76 10	 div	 DWORD PTR [rsi+16]
  000f6	48 c1 e2 05	 shl	 rdx, 5
  000fa	48 03 56 08	 add	 rdx, QWORD PTR [rsi+8]
  000fe	48 8b cb	 mov	 rcx, rbx
  00101	ff 15 08 00 00
	00		 call	 QWORD PTR ??_7TResHashObj@@6B@+8
  00107	85 c0		 test	 eax, eax
  00109	74 0a		 je	 SHORT $LN27@LoadStrA

; 114  : 			registerNum++;

  0010b	ff 46 14	 inc	 DWORD PTR [rsi+20]
  0010e	eb 05		 jmp	 SHORT $LN27@LoadStrA
$LN10@LoadStrA:
; File f:\software1\系统软件\fastcopy\fastcopy325src\src\tlib\tmisc.cpp

; 304  : 	return	obj ? (char *)obj->val : NULL;

  00110	48 8b c6	 mov	 rax, rsi
  00113	eb 04		 jmp	 SHORT $LN11@LoadStrA
$LN27@LoadStrA:
  00115	48 8b 43 20	 mov	 rax, QWORD PTR [rbx+32]
$LN11@LoadStrA:

; 305  : }

  00119	48 8b 8c 24 30
	04 00 00	 mov	 rcx, QWORD PTR __$ArrayPad$[rsp]
  00121	48 33 cc	 xor	 rcx, rsp
  00124	e8 00 00 00 00	 call	 __security_check_cookie
  00129	4c 8d 9c 24 40
	04 00 00	 lea	 r11, QWORD PTR [rsp+1088]
  00131	49 8b 5b 18	 mov	 rbx, QWORD PTR [r11+24]
  00135	49 8b 73 20	 mov	 rsi, QWORD PTR [r11+32]
  00139	49 8b e3	 mov	 rsp, r11
  0013c	5f		 pop	 rdi
  0013d	c3		 ret	 0
?LoadStrA@@YAPEADIPEAUHINSTANCE__@@@Z ENDP		; LoadStrA
_TEXT	ENDS
;	COMDAT text$x
text$x	SEGMENT
$T1 = 32
$T2 = 32
$T3 = 40
buf$ = 48
__$ArrayPad$ = 1072
resId$ = 1104
hI$dead$ = 1112
?dtor$0@?0??LoadStrA@@YAPEADIPEAUHINSTANCE__@@@Z@4HA PROC ; `LoadStrA'::`1'::dtor$0
  00000	40 55		 push	 rbp
  00002	48 83 ec 20	 sub	 rsp, 32			; 00000020H
  00006	48 8b ea	 mov	 rbp, rdx
  00009	ba 20 00 00 00	 mov	 edx, 32			; 00000020H
  0000e	48 8b 4d 20	 mov	 rcx, QWORD PTR $T2[rbp]
  00012	e8 00 00 00 00	 call	 ??3@YAXPEAX_K@Z		; operator delete
  00017	48 83 c4 20	 add	 rsp, 32			; 00000020H
  0001b	5d		 pop	 rbp
  0001c	c3		 ret	 0
?dtor$0@?0??LoadStrA@@YAPEADIPEAUHINSTANCE__@@@Z@4HA ENDP ; `LoadStrA'::`1'::dtor$0
text$x	ENDS
; Function compile flags: /Ogtpy
;	COMDAT text$x
text$x	SEGMENT
$T1 = 32
$T2 = 32
$T3 = 40
buf$ = 48
__$ArrayPad$ = 1072
resId$ = 1104
hI$dead$ = 1112
?dtor$0@?0??LoadStrA@@YAPEADIPEAUHINSTANCE__@@@Z@4HA PROC ; `LoadStrA'::`1'::dtor$0
  00000	40 55		 push	 rbp
  00002	48 83 ec 20	 sub	 rsp, 32			; 00000020H
  00006	48 8b ea	 mov	 rbp, rdx
  00009	ba 20 00 00 00	 mov	 edx, 32			; 00000020H
  0000e	48 8b 4d 20	 mov	 rcx, QWORD PTR $T2[rbp]
  00012	e8 00 00 00 00	 call	 ??3@YAXPEAX_K@Z		; operator delete
  00017	48 83 c4 20	 add	 rsp, 32			; 00000020H
  0001b	5d		 pop	 rbp
  0001c	c3		 ret	 0
?dtor$0@?0??LoadStrA@@YAPEADIPEAUHINSTANCE__@@@Z@4HA ENDP ; `LoadStrA'::`1'::dtor$0
text$x	ENDS
; Function compile flags: /Ogtpy
; File f:\software1\系统软件\fastcopy\fastcopy325src\src\tlib\tmisc.cpp
;	COMDAT ?ReadLinkW@@YAHPEA_W00@Z
_TEXT	SEGMENT
src$ = 80
dest$ = 88
arg$dead$ = 96
shellLink$ = 96
persistFile$ = 104
?ReadLinkW@@YAHPEA_W00@Z PROC				; ReadLinkW, COMDAT

; 1454 : {

$LN10:
  00000	48 89 5c 24 08	 mov	 QWORD PTR [rsp+8], rbx
  00005	4c 89 44 24 18	 mov	 QWORD PTR [rsp+24], r8
  0000a	55		 push	 rbp
  0000b	56		 push	 rsi
  0000c	57		 push	 rdi
  0000d	48 83 ec 30	 sub	 rsp, 48			; 00000030H
  00011	48 8b f2	 mov	 rsi, rdx

; 1455 : 	IShellLinkW		*shellLink;		// 瀹 IShellLinkA or IShellLinkW
; 1456 : 	IPersistFile	*persistFile;
; 1457 : 	BOOL			ret = FALSE;
; 1458 : 
; 1459 : 	if (SUCCEEDED(CoCreateInstance(CLSID_ShellLink, NULL, CLSCTX_INPROC_SERVER, IID_IShellLinkW,

  00014	48 8d 44 24 60	 lea	 rax, QWORD PTR shellLink$[rsp]
  00019	48 8b f9	 mov	 rdi, rcx
  0001c	48 89 44 24 20	 mov	 QWORD PTR [rsp+32], rax
  00021	bd 01 00 00 00	 mov	 ebp, 1
  00026	4c 8d 0d 00 00
	00 00		 lea	 r9, OFFSET FLAT:IID_IShellLinkW
  0002d	44 8b c5	 mov	 r8d, ebp
  00030	48 8d 0d 00 00
	00 00		 lea	 rcx, OFFSET FLAT:CLSID_ShellLink
  00037	33 d2		 xor	 edx, edx
  00039	33 db		 xor	 ebx, ebx
  0003b	ff 15 00 00 00
	00		 call	 QWORD PTR __imp_CoCreateInstance
  00041	85 c0		 test	 eax, eax
  00043	78 65		 js	 SHORT $LN8@ReadLinkW

; 1460 : 			(void **)&shellLink))) {
; 1461 : 		if (SUCCEEDED(shellLink->QueryInterface(IID_IPersistFile, (void **)&persistFile))) {

  00045	48 8b 4c 24 60	 mov	 rcx, QWORD PTR shellLink$[rsp]
  0004a	4c 8d 44 24 68	 lea	 r8, QWORD PTR persistFile$[rsp]
  0004f	48 8d 15 00 00
	00 00		 lea	 rdx, OFFSET FLAT:IID_IPersistFile
  00056	48 8b 01	 mov	 rax, QWORD PTR [rcx]
  00059	ff 10		 call	 QWORD PTR [rax]
  0005b	85 c0		 test	 eax, eax
  0005d	78 40		 js	 SHORT $LN3@ReadLinkW

; 1462 : 			if (SUCCEEDED(persistFile->Load((WCHAR *)src, STGM_READ))) {

  0005f	48 8b 4c 24 68	 mov	 rcx, QWORD PTR persistFile$[rsp]
  00064	45 33 c0	 xor	 r8d, r8d
  00067	48 8b d7	 mov	 rdx, rdi
  0006a	48 8b 01	 mov	 rax, QWORD PTR [rcx]
  0006d	ff 50 28	 call	 QWORD PTR [rax+40]
  00070	85 c0		 test	 eax, eax
  00072	78 20		 js	 SHORT $LN5@ReadLinkW

; 1463 : 				if (SUCCEEDED(shellLink->GetPath(dest, MAX_PATH, NULL, 0))) {

  00074	48 8b 4c 24 60	 mov	 rcx, QWORD PTR shellLink$[rsp]
  00079	45 33 c9	 xor	 r9d, r9d
  0007c	41 b8 04 01 00
	00		 mov	 r8d, 260		; 00000104H
  00082	89 5c 24 20	 mov	 DWORD PTR [rsp+32], ebx
  00086	48 8b d6	 mov	 rdx, rsi
  00089	48 8b 01	 mov	 rax, QWORD PTR [rcx]
  0008c	ff 50 18	 call	 QWORD PTR [rax+24]
  0008f	85 c0		 test	 eax, eax
  00091	0f 49 dd	 cmovns	 ebx, ebp
$LN5@ReadLinkW:

; 1464 : 					if (arg) {
; 1465 : 						shellLink->GetArguments(arg, MAX_PATH);
; 1466 : 					}
; 1467 : 					ret = TRUE;
; 1468 : 				}
; 1469 : 			}
; 1470 : 			persistFile->Release();

  00094	48 8b 4c 24 68	 mov	 rcx, QWORD PTR persistFile$[rsp]
  00099	48 8b 11	 mov	 rdx, QWORD PTR [rcx]
  0009c	ff 52 10	 call	 QWORD PTR [rdx+16]
$LN3@ReadLinkW:

; 1471 : 		}
; 1472 : 		shellLink->Release();

  0009f	48 8b 4c 24 60	 mov	 rcx, QWORD PTR shellLink$[rsp]
  000a4	48 8b 11	 mov	 rdx, QWORD PTR [rcx]
  000a7	ff 52 10	 call	 QWORD PTR [rdx+16]
$LN8@ReadLinkW:

; 1473 : 	}
; 1474 : 	return	ret;

  000aa	8b c3		 mov	 eax, ebx

; 1475 : }

  000ac	48 8b 5c 24 50	 mov	 rbx, QWORD PTR [rsp+80]
  000b1	48 83 c4 30	 add	 rsp, 48			; 00000030H
  000b5	5f		 pop	 rdi
  000b6	5e		 pop	 rsi
  000b7	5d		 pop	 rbp
  000b8	c3		 ret	 0
?ReadLinkW@@YAHPEA_W00@Z ENDP				; ReadLinkW
_TEXT	ENDS
; Function compile flags: /Ogtpy
; File f:\software1\系统软件\fastcopy\fastcopy325src\src\tlib\tmisc.cpp
;	COMDAT ?InitInstanceForLoadStr@@YAXPEAUHINSTANCE__@@@Z
_TEXT	SEGMENT
hI$ = 8
?InitInstanceForLoadStr@@YAXPEAUHINSTANCE__@@@Z PROC	; InitInstanceForLoadStr, COMDAT

; 284  : 	defaultStrInstance = hI;

  00000	48 89 0d 00 00
	00 00		 mov	 QWORD PTR ?defaultStrInstance@@3PEAUHINSTANCE__@@EA, rcx ; defaultStrInstance

; 285  : }

  00007	c3		 ret	 0
?InitInstanceForLoadStr@@YAXPEAUHINSTANCE__@@@Z ENDP	; InitInstanceForLoadStr
_TEXT	ENDS
; Function compile flags: /Ogtpy
; File f:\software1\系统软件\fastcopy\fastcopy325src\src\tlib\tmisc.cpp
;	COMDAT ?MakePathW@@YAHPEA_WPEB_W1@Z
_TEXT	SEGMENT
dest$ = 64
dir$ = 72
file$dead$ = 80
?MakePathW@@YAHPEA_WPEB_W1@Z PROC			; MakePathW, COMDAT

; 402  : {

$LN6:
  00000	48 83 ec 38	 sub	 rsp, 56			; 00000038H
  00004	4c 8b d1	 mov	 r10, rcx

; 403  : 	ssize_t	len;
; 404  : 
; 405  : 	if ((len = wcslen(dir)) == 0)

  00007	48 83 c8 ff	 or	 rax, -1
  0000b	0f 1f 44 00 00	 npad	 5
$LL4@MakePathW:
  00010	48 ff c0	 inc	 rax
  00013	66 83 3c 42 00	 cmp	 WORD PTR [rdx+rax*2], 0
  00018	75 f6		 jne	 SHORT $LL4@MakePathW
  0001a	48 85 c0	 test	 rax, rax
  0001d	75 17		 jne	 SHORT $LN2@MakePathW

; 406  : 		return	swprintf(dest, L"%s", file);

  0001f	4c 8d 05 00 00
	00 00		 lea	 r8, OFFSET FLAT:??_C@_11LOCGONAA@?$AA?$AA@
  00026	48 8d 15 00 00
	00 00		 lea	 rdx, OFFSET FLAT:??_C@_15GANGMFKL@?$AA?$CF?$AAs?$AA?$AA@

; 409  : }

  0002d	48 83 c4 38	 add	 rsp, 56			; 00000038H

; 406  : 		return	swprintf(dest, L"%s", file);

  00031	e9 00 00 00 00	 jmp	 ?swprintf@@YAHQEA_WQEB_WZZ ; swprintf
$LN2@MakePathW:

; 407  : 
; 408  : 	return	swprintf(dest, L"%s%s%s", dir, dir[len -1] == '\\' ? L"" : L"\\" , file);

  00036	66 83 7c 42 fe
	5c		 cmp	 WORD PTR [rdx+rax*2-2], 92 ; 0000005cH
  0003c	48 8d 0d 00 00
	00 00		 lea	 rcx, OFFSET FLAT:??_C@_11LOCGONAA@?$AA?$AA@
  00043	48 89 4c 24 20	 mov	 QWORD PTR [rsp+32], rcx
  00048	4c 8d 0d 00 00
	00 00		 lea	 r9, OFFSET FLAT:??_C@_13FPGAJAPJ@?$AA?2?$AA?$AA@
  0004f	4c 0f 44 c9	 cmove	 r9, rcx
  00053	4c 8b c2	 mov	 r8, rdx
  00056	49 8b ca	 mov	 rcx, r10
  00059	48 8d 15 00 00
	00 00		 lea	 rdx, OFFSET FLAT:??_C@_1O@JBBHAGJJ@?$AA?$CF?$AAs?$AA?$CF?$AAs?$AA?$CF?$AAs?$AA?$AA@
  00060	e8 00 00 00 00	 call	 ?swprintf@@YAHQEA_WQEB_WZZ ; swprintf

; 409  : }

  00065	48 83 c4 38	 add	 rsp, 56			; 00000038H
  00069	c3		 ret	 0
?MakePathW@@YAHPEA_WPEB_W1@Z ENDP			; MakePathW
_TEXT	ENDS
; Function compile flags: /Ogtpy
; File c:\program files (x86)\windows kits\10\include\10.0.10240.0\ucrt\string.h
;	COMDAT ?strrchr@@YAPEADQEADH@Z
_TEXT	SEGMENT
_String$ = 8
_Ch$ = 16
?strrchr@@YAPEADQEADH@Z PROC				; strrchr, COMDAT

; 531  :         return const_cast<char*>(strrchr(static_cast<char const*>(_String), _Ch));

  00000	e9 00 00 00 00	 jmp	 strrchr
?strrchr@@YAPEADQEADH@Z ENDP				; strrchr
_TEXT	ENDS
; Function compile flags: /Ogtpy
; File f:\software1\系统软件\fastcopy\fastcopy325src\src\tlib\tmisc.h
;	COMDAT ??0TResHashObj@@QEAA@IPEAX@Z
_TEXT	SEGMENT
this$ = 8
_resId$ = 16
_val$ = 24
??0TResHashObj@@QEAA@IPEAX@Z PROC			; TResHashObj::TResHashObj, COMDAT

; 31   : 		prevHash = nextHash = NULL;

  00000	33 c0		 xor	 eax, eax

; 147  : 		hashId = _resId;

  00002	89 51 18	 mov	 DWORD PTR [rcx+24], edx

; 31   : 		prevHash = nextHash = NULL;

  00005	48 89 41 10	 mov	 QWORD PTR [rcx+16], rax
  00009	48 89 41 08	 mov	 QWORD PTR [rcx+8], rax

; 146  : 	TResHashObj(UINT _resId, void *_val) {

  0000d	48 8d 05 00 00
	00 00		 lea	 rax, OFFSET FLAT:??_7TResHashObj@@6B@
  00014	48 89 01	 mov	 QWORD PTR [rcx], rax

; 148  : 		val = _val;
; 149  : 	}

  00017	48 8b c1	 mov	 rax, rcx
  0001a	4c 89 41 20	 mov	 QWORD PTR [rcx+32], r8
  0001e	c3		 ret	 0
??0TResHashObj@@QEAA@IPEAX@Z ENDP			; TResHashObj::TResHashObj
_TEXT	ENDS
; Function compile flags: /Ogtpy
; File f:\software1\系统软件\fastcopy\fastcopy325src\src\tlib\tmisc.h
;	COMDAT ??1TResHashObj@@UEAA@XZ
_TEXT	SEGMENT
this$ = 48
??1TResHashObj@@UEAA@XZ PROC				; TResHashObj::~TResHashObj, COMDAT

; 151  : 	~TResHashObj() {

$LN11:
  00000	40 53		 push	 rbx
  00002	48 83 ec 20	 sub	 rsp, 32			; 00000020H
  00006	48 8d 05 00 00
	00 00		 lea	 rax, OFFSET FLAT:??_7TResHashObj@@6B@
  0000d	48 8b d9	 mov	 rbx, rcx
  00010	48 89 01	 mov	 QWORD PTR [rcx], rax

; 152  : 		free(val);

  00013	48 8b 49 20	 mov	 rcx, QWORD PTR [rcx+32]
  00017	e8 00 00 00 00	 call	 free

; 35   : 		if (prevHash && prevHash != this) {

  0001c	48 8b 4b 08	 mov	 rcx, QWORD PTR [rbx+8]
  00020	48 8d 05 00 00
	00 00		 lea	 rax, OFFSET FLAT:??_7?$THashObjT@I@@6B@
  00027	48 89 03	 mov	 QWORD PTR [rbx], rax
  0002a	48 85 c9	 test	 rcx, rcx
  0002d	74 23		 je	 SHORT $LN7@TResHashOb
  0002f	48 3b cb	 cmp	 rcx, rbx
  00032	74 1e		 je	 SHORT $LN7@TResHashOb

; 53   : 		prevHash->nextHash = nextHash;

  00034	48 8b 43 10	 mov	 rax, QWORD PTR [rbx+16]
  00038	48 89 41 10	 mov	 QWORD PTR [rcx+16], rax

; 54   : 		nextHash->prevHash = prevHash;

  0003c	48 8b 43 08	 mov	 rax, QWORD PTR [rbx+8]
  00040	48 8b 4b 10	 mov	 rcx, QWORD PTR [rbx+16]
  00044	48 89 41 08	 mov	 QWORD PTR [rcx+8], rax

; 55   : 		prevHash = nextHash = NULL;

  00048	33 c0		 xor	 eax, eax
  0004a	48 89 43 10	 mov	 QWORD PTR [rbx+16], rax
  0004e	48 89 43 08	 mov	 QWORD PTR [rbx+8], rax
$LN7@TResHashOb:

; 153  : 	}

  00052	48 83 c4 20	 add	 rsp, 32			; 00000020H
  00056	5b		 pop	 rbx
  00057	c3		 ret	 0
??1TResHashObj@@UEAA@XZ ENDP				; TResHashObj::~TResHashObj
_TEXT	ENDS
; Function compile flags: /Ogtpy
; File f:\software1\系统软件\fastcopy\fastcopy325src\src\tlib\tmisc.h
;	COMDAT ??_GTResHashObj@@UEAAPEAXI@Z
_TEXT	SEGMENT
this$ = 48
__flags$ = 56
??_GTResHashObj@@UEAAPEAXI@Z PROC			; TResHashObj::`scalar deleting destructor', COMDAT
$LN16:
  00000	48 89 5c 24 08	 mov	 QWORD PTR [rsp+8], rbx
  00005	57		 push	 rdi
  00006	48 83 ec 20	 sub	 rsp, 32			; 00000020H

; 151  : 	~TResHashObj() {

  0000a	48 8d 05 00 00
	00 00		 lea	 rax, OFFSET FLAT:??_7TResHashObj@@6B@
  00011	48 8b d9	 mov	 rbx, rcx
  00014	48 89 01	 mov	 QWORD PTR [rcx], rax
  00017	8b fa		 mov	 edi, edx

; 152  : 		free(val);

  00019	48 8b 49 20	 mov	 rcx, QWORD PTR [rcx+32]
  0001d	e8 00 00 00 00	 call	 free

; 35   : 		if (prevHash && prevHash != this) {

  00022	48 8b 4b 08	 mov	 rcx, QWORD PTR [rbx+8]
  00026	48 8d 05 00 00
	00 00		 lea	 rax, OFFSET FLAT:??_7?$THashObjT@I@@6B@
  0002d	48 89 03	 mov	 QWORD PTR [rbx], rax
  00030	48 85 c9	 test	 rcx, rcx
  00033	74 23		 je	 SHORT $LN11@scalar
  00035	48 3b cb	 cmp	 rcx, rbx
  00038	74 1e		 je	 SHORT $LN11@scalar

; 53   : 		prevHash->nextHash = nextHash;

  0003a	48 8b 43 10	 mov	 rax, QWORD PTR [rbx+16]
  0003e	48 89 41 10	 mov	 QWORD PTR [rcx+16], rax

; 54   : 		nextHash->prevHash = prevHash;

  00042	48 8b 43 08	 mov	 rax, QWORD PTR [rbx+8]
  00046	48 8b 4b 10	 mov	 rcx, QWORD PTR [rbx+16]
  0004a	48 89 41 08	 mov	 QWORD PTR [rcx+8], rax

; 55   : 		prevHash = nextHash = NULL;

  0004e	33 c0		 xor	 eax, eax
  00050	48 89 43 10	 mov	 QWORD PTR [rbx+16], rax
  00054	48 89 43 08	 mov	 QWORD PTR [rbx+8], rax
$LN11@scalar:
  00058	40 f6 c7 01	 test	 dil, 1
  0005c	74 0d		 je	 SHORT $LN14@scalar
  0005e	ba 28 00 00 00	 mov	 edx, 40			; 00000028H
  00063	48 8b cb	 mov	 rcx, rbx
  00066	e8 00 00 00 00	 call	 ??3@YAXPEAX_K@Z		; operator delete
$LN14@scalar:
  0006b	48 8b c3	 mov	 rax, rbx
  0006e	48 8b 5c 24 30	 mov	 rbx, QWORD PTR [rsp+48]
  00073	48 83 c4 20	 add	 rsp, 32			; 00000020H
  00077	5f		 pop	 rdi
  00078	c3		 ret	 0
??_GTResHashObj@@UEAAPEAXI@Z ENDP			; TResHashObj::`scalar deleting destructor'
_TEXT	ENDS
; Function compile flags: /Ogtpy
; File f:\software1\系统软件\fastcopy\fastcopy325src\src\tlib\tmisc.h
;	COMDAT ?IsSameVal@TResHash@@MEAAHPEAV?$THashObjT@I@@PEBX@Z
_TEXT	SEGMENT
this$ = 8
obj$ = 16
val$ = 24
?IsSameVal@TResHash@@MEAAHPEAV?$THashObjT@I@@PEBX@Z PROC ; TResHash::IsSameVal, COMDAT

; 160  : 		return obj->hashId == *(u_int *)val;

  00000	41 8b 08	 mov	 ecx, DWORD PTR [r8]
  00003	33 c0		 xor	 eax, eax
  00005	39 4a 18	 cmp	 DWORD PTR [rdx+24], ecx
  00008	0f 94 c0	 sete	 al

; 161  : 	}

  0000b	c3		 ret	 0
?IsSameVal@TResHash@@MEAAHPEAV?$THashObjT@I@@PEBX@Z ENDP ; TResHash::IsSameVal
_TEXT	ENDS
; Function compile flags: /Ogtpy
; File f:\software1\系统软件\fastcopy\fastcopy325src\src\tlib\tmisc.h
;	COMDAT ??0TResHash@@QEAA@H@Z
_TEXT	SEGMENT
this$ = 48
_hashNum$dead$ = 56
??0TResHash@@QEAA@H@Z PROC				; TResHash::TResHash, COMDAT

; 164  : 	TResHash(int _hashNum) : THashTbl(_hashNum) {}

$LN8:
  00000	40 53		 push	 rbx
  00002	48 83 ec 20	 sub	 rsp, 32			; 00000020H

; 71   : 	THashTblT(int _hashNum=0, BOOL _isDeleteObj=TRUE) {

  00006	48 8d 05 00 00
	00 00		 lea	 rax, OFFSET FLAT:??_7?$THashTblT@I@@6B@

; 74   : 		isDeleteObj = _isDeleteObj;

  0000d	c7 41 18 01 00
	00 00		 mov	 DWORD PTR [rcx+24], 1
  00014	48 89 01	 mov	 QWORD PTR [rcx], rax

; 75   : 		if ((hashNum = _hashNum) > 0) {
; 76   : 			Init(hashNum);

  00017	ba e8 03 00 00	 mov	 edx, 1000		; 000003e8H
  0001c	33 c0		 xor	 eax, eax
  0001e	c7 41 10 e8 03
	00 00		 mov	 DWORD PTR [rcx+16], 1000 ; 000003e8H
  00025	48 89 41 08	 mov	 QWORD PTR [rcx+8], rax

; 164  : 	TResHash(int _hashNum) : THashTbl(_hashNum) {}

  00029	48 8b d9	 mov	 rbx, rcx

; 73   : 		registerNum = 0;

  0002c	89 41 14	 mov	 DWORD PTR [rcx+20], eax

; 75   : 		if ((hashNum = _hashNum) > 0) {
; 76   : 			Init(hashNum);

  0002f	e8 00 00 00 00	 call	 ?Init@?$THashTblT@I@@UEAAHH@Z ; THashTblT<unsigned int>::Init

; 164  : 	TResHash(int _hashNum) : THashTbl(_hashNum) {}

  00034	48 8d 05 00 00
	00 00		 lea	 rax, OFFSET FLAT:??_7TResHash@@6B@
  0003b	48 89 03	 mov	 QWORD PTR [rbx], rax
  0003e	48 8b c3	 mov	 rax, rbx
  00041	48 83 c4 20	 add	 rsp, 32			; 00000020H
  00045	5b		 pop	 rbx
  00046	c3		 ret	 0
??0TResHash@@QEAA@H@Z ENDP				; TResHash::TResHash
_TEXT	ENDS
; Function compile flags: /Ogtpy
; File f:\software1\系统软件\fastcopy\fastcopy325src\src\tlib\tmisc.h
;	COMDAT ?Search@TResHash@@QEAAPEAUTResHashObj@@I@Z
_TEXT	SEGMENT
this$dead$ = 48
resId$ = 56
?Search@TResHash@@QEAAPEAUTResHashObj@@I@Z PROC		; TResHash::Search, COMDAT

; 165  : 	TResHashObj	*Search(UINT resId) {

$LN16:
  00000	48 89 5c 24 08	 mov	 QWORD PTR [rsp+8], rbx
  00005	48 89 6c 24 18	 mov	 QWORD PTR [rsp+24], rbp
  0000a	48 89 74 24 20	 mov	 QWORD PTR [rsp+32], rsi
  0000f	89 54 24 10	 mov	 DWORD PTR [rsp+16], edx
  00013	57		 push	 rdi
  00014	48 83 ec 20	 sub	 rsp, 32			; 00000020H
  00018	48 8b 35 00 00
	00 00		 mov	 rsi, QWORD PTR ?hash@?1??LoadStrA@@YAPEADIPEAUHINSTANCE__@@@Z@4PEAVTResHash@@EA
  0001f	8b ea		 mov	 ebp, edx

; 123  : 		THashObjT<T> *top = hashTbl + (hash_id % hashNum);

  00021	33 d2		 xor	 edx, edx
  00023	8b c5		 mov	 eax, ebp
  00025	f7 76 10	 div	 DWORD PTR [rsi+16]
  00028	8b fa		 mov	 edi, edx
  0002a	48 c1 e7 05	 shl	 rdi, 5
  0002e	48 03 7e 08	 add	 rdi, QWORD PTR [rsi+8]

; 124  : 		for (THashObjT<T> *obj=top->nextHash; obj != top; obj=obj->nextHash) {

  00032	48 8b 5f 10	 mov	 rbx, QWORD PTR [rdi+16]
  00036	48 3b df	 cmp	 rbx, rdi
  00039	74 27		 je	 SHORT $LN14@Search
  0003b	0f 1f 44 00 00	 npad	 5
$LL6@Search:

; 125  : 			if (obj->hashId == hash_id && IsSameVal(obj, data)) {

  00040	39 6b 18	 cmp	 DWORD PTR [rbx+24], ebp
  00043	75 14		 jne	 SHORT $LN4@Search
  00045	48 8b 06	 mov	 rax, QWORD PTR [rsi]
  00048	4c 8d 44 24 38	 lea	 r8, QWORD PTR resId$[rsp]
  0004d	48 8b d3	 mov	 rdx, rbx
  00050	48 8b ce	 mov	 rcx, rsi
  00053	ff 10		 call	 QWORD PTR [rax]
  00055	85 c0		 test	 eax, eax
  00057	75 20		 jne	 SHORT $LN10@Search
$LN4@Search:

; 124  : 		for (THashObjT<T> *obj=top->nextHash; obj != top; obj=obj->nextHash) {

  00059	48 8b 5b 10	 mov	 rbx, QWORD PTR [rbx+16]
  0005d	48 3b df	 cmp	 rbx, rdi
  00060	75 de		 jne	 SHORT $LL6@Search
$LN14@Search:

; 166  : 		return (TResHashObj *)THashTbl::Search(&resId, resId);

  00062	33 c0		 xor	 eax, eax
$LN3@Search:

; 167  : 	}

  00064	48 8b 5c 24 30	 mov	 rbx, QWORD PTR [rsp+48]
  00069	48 8b 6c 24 40	 mov	 rbp, QWORD PTR [rsp+64]
  0006e	48 8b 74 24 48	 mov	 rsi, QWORD PTR [rsp+72]
  00073	48 83 c4 20	 add	 rsp, 32			; 00000020H
  00077	5f		 pop	 rdi
  00078	c3		 ret	 0
$LN10@Search:

; 166  : 		return (TResHashObj *)THashTbl::Search(&resId, resId);

  00079	48 8b c3	 mov	 rax, rbx

; 126  : 				return obj;

  0007c	eb e6		 jmp	 SHORT $LN3@Search
?Search@TResHash@@QEAAPEAUTResHashObj@@I@Z ENDP		; TResHash::Search
_TEXT	ENDS
; Function compile flags: /Ogtpy
; File f:\software1\系统软件\fastcopy\fastcopy325src\src\tlib\tmisc.h
;	COMDAT ?Register@TResHash@@QEAAXPEAUTResHashObj@@@Z
_TEXT	SEGMENT
this$dead$ = 48
obj$ = 56
?Register@TResHash@@QEAAXPEAUTResHashObj@@@Z PROC	; TResHash::Register, COMDAT

; 168  : 	void	Register(TResHashObj *obj) {

$LN7:
  00000	40 53		 push	 rbx
  00002	48 83 ec 20	 sub	 rsp, 32			; 00000020H

; 113  : 		if (obj->LinkHash(hashTbl + (hash_id % hashNum))) {

  00006	4c 8b 02	 mov	 r8, QWORD PTR [rdx]

; 168  : 	void	Register(TResHashObj *obj) {

  00009	4c 8b ca	 mov	 r9, rdx
  0000c	48 8b 1d 00 00
	00 00		 mov	 rbx, QWORD PTR ?hash@?1??LoadStrA@@YAPEADIPEAUHINSTANCE__@@@Z@4PEAVTResHash@@EA

; 113  : 		if (obj->LinkHash(hashTbl + (hash_id % hashNum))) {

  00013	33 d2		 xor	 edx, edx
  00015	49 8b c9	 mov	 rcx, r9
  00018	41 8b 41 18	 mov	 eax, DWORD PTR [r9+24]
  0001c	f7 73 10	 div	 DWORD PTR [rbx+16]
  0001f	48 c1 e2 05	 shl	 rdx, 5
  00023	48 03 53 08	 add	 rdx, QWORD PTR [rbx+8]
  00027	41 ff 50 08	 call	 QWORD PTR [r8+8]
  0002b	85 c0		 test	 eax, eax
  0002d	74 03		 je	 SHORT $LN4@Register

; 114  : 			registerNum++;

  0002f	ff 43 14	 inc	 DWORD PTR [rbx+20]
$LN4@Register:

; 169  : 		THashTbl::Register(obj, obj->hashId);
; 170  : 	}

  00032	48 83 c4 20	 add	 rsp, 32			; 00000020H
  00036	5b		 pop	 rbx
  00037	c3		 ret	 0
?Register@TResHash@@QEAAXPEAUTResHashObj@@@Z ENDP	; TResHash::Register
_TEXT	ENDS
; Function compile flags: /Ogtpy
; File f:\software1\系统软件\fastcopy\fastcopy325src\src\tlib\tmisc.h
;	COMDAT ??_GTResHash@@UEAAPEAXI@Z
_TEXT	SEGMENT
$T1 = 32
this$ = 64
__flags$ = 72
??_GTResHash@@UEAAPEAXI@Z PROC				; TResHash::`scalar deleting destructor', COMDAT
$LN11:
  00000	40 57		 push	 rdi
  00002	48 83 ec 30	 sub	 rsp, 48			; 00000030H
  00006	48 c7 44 24 20
	fe ff ff ff	 mov	 QWORD PTR $T1[rsp], -2
  0000f	48 89 5c 24 40	 mov	 QWORD PTR [rsp+64], rbx
  00014	8b da		 mov	 ebx, edx
  00016	48 8b f9	 mov	 rdi, rcx

; 79   : 	virtual ~THashTblT() { UnInit(); }

  00019	48 8d 05 00 00
	00 00		 lea	 rax, OFFSET FLAT:??_7?$THashTblT@I@@6B@
  00020	48 89 01	 mov	 QWORD PTR [rcx], rax
  00023	e8 00 00 00 00	 call	 ?UnInit@?$THashTblT@I@@UEAAXXZ ; THashTblT<unsigned int>::UnInit
  00028	90		 npad	 1
  00029	f6 c3 01	 test	 bl, 1
  0002c	74 0e		 je	 SHORT $LN10@scalar
  0002e	ba 20 00 00 00	 mov	 edx, 32			; 00000020H
  00033	48 8b cf	 mov	 rcx, rdi
  00036	e8 00 00 00 00	 call	 ??3@YAXPEAX_K@Z		; operator delete
  0003b	90		 npad	 1
$LN10@scalar:
  0003c	48 8b c7	 mov	 rax, rdi
  0003f	48 8b 5c 24 40	 mov	 rbx, QWORD PTR [rsp+64]
  00044	48 83 c4 30	 add	 rsp, 48			; 00000030H
  00048	5f		 pop	 rdi
  00049	c3		 ret	 0
??_GTResHash@@UEAAPEAXI@Z ENDP				; TResHash::`scalar deleting destructor'
_TEXT	ENDS
; Function compile flags: /Ogtpy
; File f:\software1\系统软件\fastcopy\fastcopy325src\src\tlib\tmisc.h
;	COMDAT ??1TResHash@@UEAA@XZ
_TEXT	SEGMENT
$T1 = 32
this$ = 64
??1TResHash@@UEAA@XZ PROC				; TResHash::~TResHash, COMDAT
$LN6:
  00000	48 83 ec 38	 sub	 rsp, 56			; 00000038H
  00004	48 c7 44 24 20
	fe ff ff ff	 mov	 QWORD PTR $T1[rsp], -2

; 79   : 	virtual ~THashTblT() { UnInit(); }

  0000d	48 8d 05 00 00
	00 00		 lea	 rax, OFFSET FLAT:??_7?$THashTblT@I@@6B@
  00014	48 89 01	 mov	 QWORD PTR [rcx], rax
  00017	e8 00 00 00 00	 call	 ?UnInit@?$THashTblT@I@@UEAAXXZ ; THashTblT<unsigned int>::UnInit
  0001c	90		 npad	 1
  0001d	48 83 c4 38	 add	 rsp, 56			; 00000038H
  00021	c3		 ret	 0
??1TResHash@@UEAA@XZ ENDP				; TResHash::~TResHash
_TEXT	ENDS
; Function compile flags: /Ogtpy
; File f:\software1\系统软件\fastcopy\fastcopy325src\src\tlib\tapi32u8.h
;	COMDAT ?FirstInit@Wstr@@AEAAXXZ
_TEXT	SEGMENT
this$ = 8
?FirstInit@Wstr@@AEAAXXZ PROC				; Wstr::FirstInit, COMDAT

; 66   : 		str = NULL;

  00000	48 c7 01 00 00
	00 00		 mov	 QWORD PTR [rcx], 0

; 67   : 		len = -1;

  00007	c7 41 08 ff ff
	ff ff		 mov	 DWORD PTR [rcx+8], -1

; 68   : 	}

  0000e	c3		 ret	 0
?FirstInit@Wstr@@AEAAXXZ ENDP				; Wstr::FirstInit
_TEXT	ENDS
; Function compile flags: /Ogtpy
; File f:\software1\系统软件\fastcopy\fastcopy325src\src\tlib\tapi32u8.h
;	COMDAT ??0Wstr@@QEAA@PEBDW4StrMode@@@Z
_TEXT	SEGMENT
this$ = 48
_str$ = 56
mode$ = 64
??0Wstr@@QEAA@PEBDW4StrMode@@@Z PROC			; Wstr::Wstr, COMDAT

; 71   : 	Wstr(const char *_str=NULL, StrMode mode=BY_UTF8) {

$LN15:
  00000	40 53		 push	 rbx
  00002	48 83 ec 20	 sub	 rsp, 32			; 00000020H

; 66   : 		str = NULL;

  00006	33 c0		 xor	 eax, eax

; 118  : 		len = -1;

  00008	c7 41 08 ff ff
	ff ff		 mov	 DWORD PTR [rcx+8], -1

; 66   : 		str = NULL;

  0000f	48 89 01	 mov	 QWORD PTR [rcx], rax

; 71   : 	Wstr(const char *_str=NULL, StrMode mode=BY_UTF8) {

  00012	48 8b d9	 mov	 rbx, rcx

; 100  : 		str = _str ? mode == BY_UTF8 ? U8toW(_str) : AtoW(_str) : NULL;

  00015	48 85 d2	 test	 rdx, rdx
  00018	74 25		 je	 SHORT $LN9@Wstr
  0001a	48 8b ca	 mov	 rcx, rdx
  0001d	45 85 c0	 test	 r8d, r8d
  00020	75 18		 jne	 SHORT $LN7@Wstr
  00022	e8 00 00 00 00	 call	 ?U8toW@@YAPEA_WPEBDH@Z	; U8toW
  00027	48 89 03	 mov	 QWORD PTR [rbx], rax

; 72   : 		FirstInit();
; 73   : 		Init(_str, mode);
; 74   : 	}

  0002a	48 8b c3	 mov	 rax, rbx

; 101  : 		len = -1;

  0002d	c7 43 08 ff ff
	ff ff		 mov	 DWORD PTR [rbx+8], -1

; 72   : 		FirstInit();
; 73   : 		Init(_str, mode);
; 74   : 	}

  00034	48 83 c4 20	 add	 rsp, 32			; 00000020H
  00038	5b		 pop	 rbx
  00039	c3		 ret	 0
$LN7@Wstr:

; 100  : 		str = _str ? mode == BY_UTF8 ? U8toW(_str) : AtoW(_str) : NULL;

  0003a	e8 00 00 00 00	 call	 ?AtoW@@YAPEA_WPEBDH@Z	; AtoW
$LN9@Wstr:
  0003f	48 89 03	 mov	 QWORD PTR [rbx], rax

; 72   : 		FirstInit();
; 73   : 		Init(_str, mode);
; 74   : 	}

  00042	48 8b c3	 mov	 rax, rbx

; 101  : 		len = -1;

  00045	c7 43 08 ff ff
	ff ff		 mov	 DWORD PTR [rbx+8], -1

; 72   : 		FirstInit();
; 73   : 		Init(_str, mode);
; 74   : 	}

  0004c	48 83 c4 20	 add	 rsp, 32			; 00000020H
  00050	5b		 pop	 rbx
  00051	c3		 ret	 0
??0Wstr@@QEAA@PEBDW4StrMode@@@Z ENDP			; Wstr::Wstr
_TEXT	ENDS
; Function compile flags: /Ogtpy
; File f:\software1\系统软件\fastcopy\fastcopy325src\src\tlib\tapi32u8.h
;	COMDAT ??1Wstr@@QEAA@XZ
_TEXT	SEGMENT
this$ = 48
??1Wstr@@QEAA@XZ PROC					; Wstr::~Wstr, COMDAT

; 87   : 	~Wstr() { UnInit(); }

$LN8:
  00000	40 53		 push	 rbx
  00002	48 83 ec 20	 sub	 rsp, 32			; 00000020H
  00006	48 8b d9	 mov	 rbx, rcx

; 114  : 		if (str) {

  00009	48 8b 09	 mov	 rcx, QWORD PTR [rcx]
  0000c	48 85 c9	 test	 rcx, rcx
  0000f	74 0c		 je	 SHORT $LN6@Wstr

; 115  : 			delete [] str;

  00011	e8 00 00 00 00	 call	 ??_V@YAXPEAX@Z		; operator delete[]

; 116  : 			str = NULL;

  00016	48 c7 03 00 00
	00 00		 mov	 QWORD PTR [rbx], 0
$LN6@Wstr:

; 117  : 		}
; 118  : 		len = -1;

  0001d	c7 43 08 ff ff
	ff ff		 mov	 DWORD PTR [rbx+8], -1

; 87   : 	~Wstr() { UnInit(); }

  00024	48 83 c4 20	 add	 rsp, 32			; 00000020H
  00028	5b		 pop	 rbx
  00029	c3		 ret	 0
??1Wstr@@QEAA@XZ ENDP					; Wstr::~Wstr
_TEXT	ENDS
; Function compile flags: /Ogtpy
; File f:\software1\系统软件\fastcopy\fastcopy325src\src\tlib\tapi32u8.h
;	COMDAT ?Init@Wstr@@QEAAXPEBDW4StrMode@@@Z
_TEXT	SEGMENT
this$ = 48
_str$ = 56
mode$ = 64
?Init@Wstr@@QEAAXPEBDW4StrMode@@@Z PROC			; Wstr::Init, COMDAT

; 98   : 	void Init(const char *_str, StrMode mode=BY_UTF8) {

$LN12:
  00000	48 89 5c 24 08	 mov	 QWORD PTR [rsp+8], rbx
  00005	48 89 74 24 10	 mov	 QWORD PTR [rsp+16], rsi
  0000a	57		 push	 rdi
  0000b	48 83 ec 20	 sub	 rsp, 32			; 00000020H
  0000f	48 8b d9	 mov	 rbx, rcx
  00012	41 8b f0	 mov	 esi, r8d

; 114  : 		if (str) {

  00015	48 8b 09	 mov	 rcx, QWORD PTR [rcx]

; 98   : 	void Init(const char *_str, StrMode mode=BY_UTF8) {

  00018	48 8b fa	 mov	 rdi, rdx

; 114  : 		if (str) {

  0001b	48 85 c9	 test	 rcx, rcx
  0001e	74 0c		 je	 SHORT $LN8@Init

; 115  : 			delete [] str;

  00020	e8 00 00 00 00	 call	 ??_V@YAXPEAX@Z		; operator delete[]

; 116  : 			str = NULL;

  00025	48 c7 03 00 00
	00 00		 mov	 QWORD PTR [rbx], 0
$LN8@Init:

; 117  : 		}
; 118  : 		len = -1;

  0002c	c7 43 08 ff ff
	ff ff		 mov	 DWORD PTR [rbx+8], -1

; 99   : 		UnInit();
; 100  : 		str = _str ? mode == BY_UTF8 ? U8toW(_str) : AtoW(_str) : NULL;

  00033	48 85 ff	 test	 rdi, rdi
  00036	74 1b		 je	 SHORT $LN5@Init
  00038	48 8b cf	 mov	 rcx, rdi
  0003b	85 f6		 test	 esi, esi
  0003d	75 0a		 jne	 SHORT $LN3@Init
  0003f	e8 00 00 00 00	 call	 ?U8toW@@YAPEA_WPEBDH@Z	; U8toW
  00044	48 89 03	 mov	 QWORD PTR [rbx], rax
  00047	eb 11		 jmp	 SHORT $LN10@Init
$LN3@Init:
  00049	e8 00 00 00 00	 call	 ?AtoW@@YAPEA_WPEBDH@Z	; AtoW
  0004e	48 89 03	 mov	 QWORD PTR [rbx], rax
  00051	eb 07		 jmp	 SHORT $LN10@Init
$LN5@Init:
  00053	48 c7 03 00 00
	00 00		 mov	 QWORD PTR [rbx], 0
$LN10@Init:

; 101  : 		len = -1;
; 102  : 	}

  0005a	48 8b 74 24 38	 mov	 rsi, QWORD PTR [rsp+56]
  0005f	c7 43 08 ff ff
	ff ff		 mov	 DWORD PTR [rbx+8], -1
  00066	48 8b 5c 24 30	 mov	 rbx, QWORD PTR [rsp+48]
  0006b	48 83 c4 20	 add	 rsp, 32			; 00000020H
  0006f	5f		 pop	 rdi
  00070	c3		 ret	 0
?Init@Wstr@@QEAAXPEBDW4StrMode@@@Z ENDP			; Wstr::Init
_TEXT	ENDS
; Function compile flags: /Ogtpy
; File f:\software1\系统软件\fastcopy\fastcopy325src\src\tlib\tapi32u8.h
;	COMDAT ?UnInit@Wstr@@QEAAXXZ
_TEXT	SEGMENT
this$ = 48
?UnInit@Wstr@@QEAAXXZ PROC				; Wstr::UnInit, COMDAT

; 113  : 	void UnInit() {

$LN6:
  00000	40 53		 push	 rbx
  00002	48 83 ec 20	 sub	 rsp, 32			; 00000020H
  00006	48 8b d9	 mov	 rbx, rcx

; 114  : 		if (str) {

  00009	48 8b 09	 mov	 rcx, QWORD PTR [rcx]
  0000c	48 85 c9	 test	 rcx, rcx
  0000f	74 0c		 je	 SHORT $LN4@UnInit

; 115  : 			delete [] str;

  00011	e8 00 00 00 00	 call	 ??_V@YAXPEAX@Z		; operator delete[]

; 116  : 			str = NULL;

  00016	48 c7 03 00 00
	00 00		 mov	 QWORD PTR [rbx], 0
$LN4@UnInit:

; 117  : 		}
; 118  : 		len = -1;

  0001d	c7 43 08 ff ff
	ff ff		 mov	 DWORD PTR [rbx+8], -1

; 119  : 	}

  00024	48 83 c4 20	 add	 rsp, 32			; 00000020H
  00028	5b		 pop	 rbx
  00029	c3		 ret	 0
?UnInit@Wstr@@QEAAXXZ ENDP				; Wstr::UnInit
_TEXT	ENDS
; Function compile flags: /Ogtpy
; File f:\software1\系统软件\fastcopy\fastcopy325src\src\tlib\tapi32u8.h
;	COMDAT ?s@Wstr@@QEBAPEB_WXZ
_TEXT	SEGMENT
this$ = 8
?s@Wstr@@QEBAPEB_WXZ PROC				; Wstr::s, COMDAT

; 172  : 		return str ? str : L"";

  00000	48 8b 11	 mov	 rdx, QWORD PTR [rcx]
  00003	48 8d 05 00 00
	00 00		 lea	 rax, OFFSET FLAT:??_C@_11LOCGONAA@?$AA?$AA@
  0000a	48 85 d2	 test	 rdx, rdx
  0000d	48 0f 45 c2	 cmovne	 rax, rdx

; 173  : 	}

  00011	c3		 ret	 0
?s@Wstr@@QEBAPEB_WXZ ENDP				; Wstr::s
_TEXT	ENDS
; Function compile flags: /Ogtpy
; File f:\software1\系统软件\fastcopy\fastcopy325src\src\tlib\tmisc.cpp
;	COMDAT ??__ETWinVersion@@YAXXZ
text$di	SEGMENT
??__ETWinVersion@@YAXXZ PROC				; `dynamic initializer for 'TWinVersion'', COMDAT

; 20   : DWORD TWinVersion = ::GetVersion();

  00000	48 ff 25 00 00
	00 00		 rex_jmp QWORD PTR __imp_GetVersion
??__ETWinVersion@@YAXXZ ENDP				; `dynamic initializer for 'TWinVersion''
text$di	ENDS
; Function compile flags: /Ogtpy
; File f:\software1\系统软件\fastcopy\fastcopy325src\src\tlib\tmisc.cpp
;	COMDAT ?font_enum_proc@@YAHPEAUtagENUMLOGFONTEXW@@PEAUtagNEWTEXTMETRICEXA@@K_J@Z
_TEXT	SEGMENT
elf$ = 8
ntm$ = 16
fontType$ = 24
found_p$ = 32
?font_enum_proc@@YAHPEAUtagENUMLOGFONTEXW@@PEAUtagNEWTEXTMETRICEXA@@K_J@Z PROC ; font_enum_proc, COMDAT

; 1890 : 	BOOL	&found = *(BOOL *)found_p;
; 1891 : 
; 1892 : 	found = TRUE;

  00000	41 c7 01 01 00
	00 00		 mov	 DWORD PTR [r9], 1

; 1893 : 
; 1894 : 	return	0;

  00007	33 c0		 xor	 eax, eax

; 1895 : }

  00009	c3		 ret	 0
?font_enum_proc@@YAHPEAUtagENUMLOGFONTEXW@@PEAUtagNEWTEXTMETRICEXA@@K_J@Z ENDP ; font_enum_proc
_TEXT	ENDS
; Function compile flags: /Ogtpy
; File f:\software1\系统软件\fastcopy\fastcopy325src\src\tlib\tmisc.h
;	COMDAT ?GetRegisterNum@?$THashTblT@I@@UEAAHXZ
_TEXT	SEGMENT
this$ = 8
?GetRegisterNum@?$THashTblT@I@@UEAAHXZ PROC		; THashTblT<unsigned int>::GetRegisterNum, COMDAT

; 132  : 		return registerNum;

  00000	8b 41 14	 mov	 eax, DWORD PTR [rcx+20]

; 133  : 	}

  00003	c3		 ret	 0
?GetRegisterNum@?$THashTblT@I@@UEAAHXZ ENDP		; THashTblT<unsigned int>::GetRegisterNum
_TEXT	ENDS
; Function compile flags: /Ogtpy
; File f:\software1\系统软件\fastcopy\fastcopy325src\src\tlib\tmisc.h
;	COMDAT ?Search@?$THashTblT@I@@UEAAPEAV?$THashObjT@I@@PEBXI@Z
_TEXT	SEGMENT
this$ = 48
data$ = 56
hash_id$ = 64
?Search@?$THashTblT@I@@UEAAPEAV?$THashObjT@I@@PEBXI@Z PROC ; THashTblT<unsigned int>::Search, COMDAT

; 122  : 	virtual THashObjT<T> *Search(const void *data, T hash_id) {

$LN14:
  00000	48 89 5c 24 08	 mov	 QWORD PTR [rsp+8], rbx
  00005	48 89 6c 24 10	 mov	 QWORD PTR [rsp+16], rbp
  0000a	48 89 74 24 18	 mov	 QWORD PTR [rsp+24], rsi
  0000f	48 89 7c 24 20	 mov	 QWORD PTR [rsp+32], rdi
  00014	41 56		 push	 r14
  00016	48 83 ec 20	 sub	 rsp, 32			; 00000020H
  0001a	4c 8b f2	 mov	 r14, rdx

; 123  : 		THashObjT<T> *top = hashTbl + (hash_id % hashNum);

  0001d	41 8b c0	 mov	 eax, r8d
  00020	33 d2		 xor	 edx, edx
  00022	41 8b e8	 mov	 ebp, r8d
  00025	f7 71 10	 div	 DWORD PTR [rcx+16]
  00028	48 8b f1	 mov	 rsi, rcx
  0002b	8b fa		 mov	 edi, edx
  0002d	48 c1 e7 05	 shl	 rdi, 5
  00031	48 03 79 08	 add	 rdi, QWORD PTR [rcx+8]

; 124  : 		for (THashObjT<T> *obj=top->nextHash; obj != top; obj=obj->nextHash) {

  00035	48 8b 5f 10	 mov	 rbx, QWORD PTR [rdi+16]
  00039	48 3b df	 cmp	 rbx, rdi
  0003c	74 22		 je	 SHORT $LN12@Search
  0003e	66 90		 npad	 2
$LL4@Search:

; 125  : 			if (obj->hashId == hash_id && IsSameVal(obj, data)) {

  00040	39 6b 18	 cmp	 DWORD PTR [rbx+24], ebp
  00043	75 12		 jne	 SHORT $LN2@Search
  00045	48 8b 06	 mov	 rax, QWORD PTR [rsi]
  00048	4d 8b c6	 mov	 r8, r14
  0004b	48 8b d3	 mov	 rdx, rbx
  0004e	48 8b ce	 mov	 rcx, rsi
  00051	ff 10		 call	 QWORD PTR [rax]
  00053	85 c0		 test	 eax, eax
  00055	75 26		 jne	 SHORT $LN8@Search
$LN2@Search:

; 124  : 		for (THashObjT<T> *obj=top->nextHash; obj != top; obj=obj->nextHash) {

  00057	48 8b 5b 10	 mov	 rbx, QWORD PTR [rbx+16]
  0005b	48 3b df	 cmp	 rbx, rdi
  0005e	75 e0		 jne	 SHORT $LL4@Search
$LN12@Search:

; 127  : 			}
; 128  : 		}
; 129  : 		return	NULL;

  00060	33 c0		 xor	 eax, eax
$LN1@Search:

; 130  : 	}

  00062	48 8b 5c 24 30	 mov	 rbx, QWORD PTR [rsp+48]
  00067	48 8b 6c 24 38	 mov	 rbp, QWORD PTR [rsp+56]
  0006c	48 8b 74 24 40	 mov	 rsi, QWORD PTR [rsp+64]
  00071	48 8b 7c 24 48	 mov	 rdi, QWORD PTR [rsp+72]
  00076	48 83 c4 20	 add	 rsp, 32			; 00000020H
  0007a	41 5e		 pop	 r14
  0007c	c3		 ret	 0
$LN8@Search:

; 126  : 				return obj;

  0007d	48 8b c3	 mov	 rax, rbx
  00080	eb e0		 jmp	 SHORT $LN1@Search
?Search@?$THashTblT@I@@UEAAPEAV?$THashObjT@I@@PEBXI@Z ENDP ; THashTblT<unsigned int>::Search
_TEXT	ENDS
; Function compile flags: /Ogtpy
; File f:\software1\系统软件\fastcopy\fastcopy325src\src\tlib\tmisc.h
;	COMDAT ?UnRegister@?$THashTblT@I@@UEAAXPEAV?$THashObjT@I@@@Z
_TEXT	SEGMENT
this$ = 48
obj$ = 56
?UnRegister@?$THashTblT@I@@UEAAXPEAV?$THashObjT@I@@@Z PROC ; THashTblT<unsigned int>::UnRegister, COMDAT

; 117  : 	virtual void UnRegister(THashObjT<T> *obj) {

$LN5:
  00000	40 53		 push	 rbx
  00002	48 83 ec 20	 sub	 rsp, 32			; 00000020H

; 118  : 		if (obj->UnlinkHash()) {

  00006	48 8b 02	 mov	 rax, QWORD PTR [rdx]
  00009	48 8b d9	 mov	 rbx, rcx
  0000c	48 8b ca	 mov	 rcx, rdx
  0000f	ff 50 10	 call	 QWORD PTR [rax+16]
  00012	85 c0		 test	 eax, eax
  00014	74 03		 je	 SHORT $LN2@UnRegister

; 119  : 			registerNum--;

  00016	ff 4b 14	 dec	 DWORD PTR [rbx+20]
$LN2@UnRegister:

; 120  : 		}
; 121  : 	}

  00019	48 83 c4 20	 add	 rsp, 32			; 00000020H
  0001d	5b		 pop	 rbx
  0001e	c3		 ret	 0
?UnRegister@?$THashTblT@I@@UEAAXPEAV?$THashObjT@I@@@Z ENDP ; THashTblT<unsigned int>::UnRegister
_TEXT	ENDS
; Function compile flags: /Ogtpy
; File f:\software1\系统软件\fastcopy\fastcopy325src\src\tlib\tmisc.h
;	COMDAT ?Register@?$THashTblT@I@@UEAAXPEAV?$THashObjT@I@@I@Z
_TEXT	SEGMENT
this$ = 48
obj$ = 56
hash_id$ = 64
?Register@?$THashTblT@I@@UEAAXPEAV?$THashObjT@I@@I@Z PROC ; THashTblT<unsigned int>::Register, COMDAT

; 111  : 	virtual void Register(THashObjT<T> *obj, T hash_id) {

$LN5:
  00000	40 53		 push	 rbx
  00002	48 83 ec 20	 sub	 rsp, 32			; 00000020H

; 112  : 		obj->hashId = hash_id;
; 113  : 		if (obj->LinkHash(hashTbl + (hash_id % hashNum))) {

  00006	4c 8b 0a	 mov	 r9, QWORD PTR [rdx]
  00009	4c 8b d2	 mov	 r10, rdx
  0000c	44 89 42 18	 mov	 DWORD PTR [rdx+24], r8d
  00010	41 8b c0	 mov	 eax, r8d
  00013	33 d2		 xor	 edx, edx
  00015	48 8b d9	 mov	 rbx, rcx
  00018	f7 71 10	 div	 DWORD PTR [rcx+16]
  0001b	48 c1 e2 05	 shl	 rdx, 5
  0001f	48 03 51 08	 add	 rdx, QWORD PTR [rcx+8]
  00023	49 8b ca	 mov	 rcx, r10
  00026	41 ff 51 08	 call	 QWORD PTR [r9+8]
  0002a	85 c0		 test	 eax, eax
  0002c	74 03		 je	 SHORT $LN2@Register

; 114  : 			registerNum++;

  0002e	ff 43 14	 inc	 DWORD PTR [rbx+20]
$LN2@Register:

; 115  : 		}
; 116  : 	}

  00031	48 83 c4 20	 add	 rsp, 32			; 00000020H
  00035	5b		 pop	 rbx
  00036	c3		 ret	 0
?Register@?$THashTblT@I@@UEAAXPEAV?$THashObjT@I@@I@Z ENDP ; THashTblT<unsigned int>::Register
_TEXT	ENDS
; Function compile flags: /Ogtpy
; File f:\software1\系统软件\fastcopy\fastcopy325src\src\tlib\tmisc.h
;	COMDAT ?UnInit@?$THashTblT@I@@UEAAXXZ
_TEXT	SEGMENT
this$ = 48
?UnInit@?$THashTblT@I@@UEAAXXZ PROC			; THashTblT<unsigned int>::UnInit, COMDAT

; 92   : 	virtual void UnInit() {

$LN31:
  00000	40 53		 push	 rbx
  00002	48 83 ec 20	 sub	 rsp, 32			; 00000020H

; 93   : 		if (!hashTbl) {

  00006	48 83 79 08 00	 cmp	 QWORD PTR [rcx+8], 0
  0000b	48 8b d9	 mov	 rbx, rcx
  0000e	0f 84 a8 00 00
	00		 je	 $LN1@UnInit

; 94   : 			return;
; 95   : 		}
; 96   : 		if (isDeleteObj) {

  00014	83 79 18 00	 cmp	 DWORD PTR [rcx+24], 0
  00018	74 6e		 je	 SHORT $LN25@UnInit

; 97   : 			for (int i=0; i < hashNum && registerNum > 0; i++) {

  0001a	48 89 6c 24 30	 mov	 QWORD PTR [rsp+48], rbp
  0001f	33 ed		 xor	 ebp, ebp
  00021	39 69 10	 cmp	 DWORD PTR [rcx+16], ebp
  00024	7e 5d		 jle	 SHORT $LN26@UnInit
  00026	48 89 74 24 38	 mov	 QWORD PTR [rsp+56], rsi
  0002b	48 89 7c 24 40	 mov	 QWORD PTR [rsp+64], rdi
  00030	4c 89 74 24 48	 mov	 QWORD PTR [rsp+72], r14
  00035	45 33 f6	 xor	 r14d, r14d
$LL4@UnInit:
  00038	83 7b 14 00	 cmp	 DWORD PTR [rbx+20], 0
  0003c	7e 36		 jle	 SHORT $LN29@UnInit

; 98   : 				THashObjT<T>	*start = hashTbl + i;

  0003e	48 8b 73 08	 mov	 rsi, QWORD PTR [rbx+8]
  00042	49 03 f6	 add	 rsi, r14

; 99   : 				for (THashObjT<T> *obj=start->nextHash; obj != start; ) {

  00045	48 8b 4e 10	 mov	 rcx, QWORD PTR [rsi+16]
  00049	48 3b ce	 cmp	 rcx, rsi
  0004c	74 1b		 je	 SHORT $LN2@UnInit
  0004e	66 90		 npad	 2
$LL5@UnInit:

; 100  : 					THashObjT<T> *next = obj->nextHash;
; 101  : 					delete obj;

  00050	48 8b 01	 mov	 rax, QWORD PTR [rcx]
  00053	ba 01 00 00 00	 mov	 edx, 1
  00058	48 8b 79 10	 mov	 rdi, QWORD PTR [rcx+16]
  0005c	ff 10		 call	 QWORD PTR [rax]

; 102  : 					obj = next;
; 103  : 					registerNum--;

  0005e	ff 4b 14	 dec	 DWORD PTR [rbx+20]
  00061	48 8b cf	 mov	 rcx, rdi
  00064	48 3b fe	 cmp	 rdi, rsi
  00067	75 e7		 jne	 SHORT $LL5@UnInit
$LN2@UnInit:

; 97   : 			for (int i=0; i < hashNum && registerNum > 0; i++) {

  00069	ff c5		 inc	 ebp
  0006b	49 83 c6 20	 add	 r14, 32			; 00000020H
  0006f	3b 6b 10	 cmp	 ebp, DWORD PTR [rbx+16]
  00072	7c c4		 jl	 SHORT $LL4@UnInit
$LN29@UnInit:
  00074	48 8b 7c 24 40	 mov	 rdi, QWORD PTR [rsp+64]
  00079	48 8b 74 24 38	 mov	 rsi, QWORD PTR [rsp+56]
  0007e	4c 8b 74 24 48	 mov	 r14, QWORD PTR [rsp+72]
$LN26@UnInit:
  00083	48 8b 6c 24 30	 mov	 rbp, QWORD PTR [rsp+48]
$LN25@UnInit:

; 104  : 				}
; 105  : 			}
; 106  : 		}
; 107  : 		delete [] hashTbl;

  00088	48 8b 4b 08	 mov	 rcx, QWORD PTR [rbx+8]
  0008c	48 85 c9	 test	 rcx, rcx
  0008f	74 1c		 je	 SHORT $LN14@UnInit
  00091	48 83 79 f8 00	 cmp	 QWORD PTR [rcx-8], 0
  00096	74 0c		 je	 SHORT $LN13@UnInit
  00098	48 8b 01	 mov	 rax, QWORD PTR [rcx]
  0009b	ba 03 00 00 00	 mov	 edx, 3
  000a0	ff 10		 call	 QWORD PTR [rax]
  000a2	eb 09		 jmp	 SHORT $LN14@UnInit
$LN13@UnInit:
  000a4	48 83 c1 f8	 add	 rcx, -8
  000a8	e8 00 00 00 00	 call	 ??_V@YAXPEAX@Z		; operator delete[]
$LN14@UnInit:

; 108  : 		hashTbl = NULL;

  000ad	48 c7 43 08 00
	00 00 00	 mov	 QWORD PTR [rbx+8], 0

; 109  : 		registerNum = 0;

  000b5	c7 43 14 00 00
	00 00		 mov	 DWORD PTR [rbx+20], 0
$LN1@UnInit:

; 110  : 	}

  000bc	48 83 c4 20	 add	 rsp, 32			; 00000020H
  000c0	5b		 pop	 rbx
  000c1	c3		 ret	 0
?UnInit@?$THashTblT@I@@UEAAXXZ ENDP			; THashTblT<unsigned int>::UnInit
_TEXT	ENDS
; Function compile flags: /Ogtpy
; File f:\software1\系统软件\fastcopy\fastcopy325src\src\tlib\tmisc.h
;	COMDAT ?Init@?$THashTblT@I@@UEAAHH@Z
_TEXT	SEGMENT
$T1 = 48
$T2 = 80
this$ = 80
_hashNum$ = 88
$T3 = 96
?Init@?$THashTblT@I@@UEAAHH@Z PROC			; THashTblT<unsigned int>::Init, COMDAT

; 80   : 	virtual BOOL Init(int _hashNum) {

$LN14:
  00000	40 57		 push	 rdi
  00002	48 83 ec 40	 sub	 rsp, 64			; 00000040H
  00006	48 c7 44 24 30
	fe ff ff ff	 mov	 QWORD PTR $T1[rsp], -2
  0000f	48 89 5c 24 58	 mov	 QWORD PTR [rsp+88], rbx
  00014	48 89 74 24 68	 mov	 QWORD PTR [rsp+104], rsi
  00019	48 8b d9	 mov	 rbx, rcx

; 81   : 		hashTbl = new THashObjT<T> [hashNum = _hashNum];

  0001c	89 51 10	 mov	 DWORD PTR [rcx+16], edx
  0001f	48 63 f2	 movsxd	 rsi, edx
  00022	48 89 74 24 50	 mov	 QWORD PTR $T2[rsp], rsi
  00027	b8 20 00 00 00	 mov	 eax, 32			; 00000020H
  0002c	48 f7 e6	 mul	 rsi
  0002f	48 c7 c1 ff ff
	ff ff		 mov	 rcx, -1
  00036	48 0f 40 c1	 cmovo	 rax, rcx
  0003a	48 83 c0 08	 add	 rax, 8
  0003e	48 0f 42 c1	 cmovb	 rax, rcx
  00042	48 8b c8	 mov	 rcx, rax
  00045	e8 00 00 00 00	 call	 ??_U@YAPEAX_K@Z		; operator new[]
  0004a	48 89 44 24 60	 mov	 QWORD PTR $T3[rsp], rax
  0004f	48 85 c0	 test	 rax, rax
  00052	74 2c		 je	 SHORT $LN7@Init
  00054	48 89 30	 mov	 QWORD PTR [rax], rsi
  00057	48 8d 78 08	 lea	 rdi, QWORD PTR [rax+8]
  0005b	48 8d 05 00 00
	00 00		 lea	 rax, OFFSET FLAT:??1?$THashObjT@I@@UEAA@XZ ; THashObjT<unsigned int>::~THashObjT<unsigned int>
  00062	48 89 44 24 20	 mov	 QWORD PTR [rsp+32], rax
  00067	4c 8d 0d 00 00
	00 00		 lea	 r9, OFFSET FLAT:??0?$THashObjT@I@@QEAA@XZ ; THashObjT<unsigned int>::THashObjT<unsigned int>
  0006e	4c 8b c6	 mov	 r8, rsi
  00071	ba 20 00 00 00	 mov	 edx, 32			; 00000020H
  00076	48 8b cf	 mov	 rcx, rdi
  00079	e8 00 00 00 00	 call	 ??_L@YAXPEAX_K1P6AX0@Z2@Z
  0007e	eb 02		 jmp	 SHORT $LN8@Init
$LN7@Init:
  00080	33 ff		 xor	 edi, edi
$LN8@Init:
  00082	48 89 7b 08	 mov	 QWORD PTR [rbx+8], rdi

; 83   : 			return	FALSE;	// VC4's new don't occur exception

  00086	33 c0		 xor	 eax, eax

; 82   : 		if (hashTbl == NULL) {

  00088	48 85 ff	 test	 rdi, rdi
  0008b	74 39		 je	 SHORT $LN1@Init

; 84   : 		}
; 85   : 		for (int i=0; i < hashNum; i++) {

  0008d	39 43 10	 cmp	 DWORD PTR [rbx+16], eax
  00090	7e 28		 jle	 SHORT $LN3@Init
  00092	45 33 c0	 xor	 r8d, r8d
  00095	66 66 66 0f 1f
	84 00 00 00 00
	00		 npad	 11
$LL4@Init:

; 86   : 			THashObjT<T>	*obj = hashTbl + i;

  000a0	48 8b 53 08	 mov	 rdx, QWORD PTR [rbx+8]
  000a4	49 03 d0	 add	 rdx, r8

; 87   : 			obj->prevHash = obj->nextHash = obj;

  000a7	48 89 52 10	 mov	 QWORD PTR [rdx+16], rdx
  000ab	48 89 52 08	 mov	 QWORD PTR [rdx+8], rdx

; 84   : 		}
; 85   : 		for (int i=0; i < hashNum; i++) {

  000af	ff c0		 inc	 eax
  000b1	49 83 c0 20	 add	 r8, 32			; 00000020H
  000b5	3b 43 10	 cmp	 eax, DWORD PTR [rbx+16]
  000b8	7c e6		 jl	 SHORT $LL4@Init
$LN3@Init:

; 88   : 		}
; 89   : 		registerNum = 0;

  000ba	c7 43 14 00 00
	00 00		 mov	 DWORD PTR [rbx+20], 0

; 90   : 		return	TRUE;

  000c1	b8 01 00 00 00	 mov	 eax, 1
$LN1@Init:

; 91   : 	}

  000c6	48 8b 5c 24 58	 mov	 rbx, QWORD PTR [rsp+88]
  000cb	48 8b 74 24 68	 mov	 rsi, QWORD PTR [rsp+104]
  000d0	48 83 c4 40	 add	 rsp, 64			; 00000040H
  000d4	5f		 pop	 rdi
  000d5	c3		 ret	 0
?Init@?$THashTblT@I@@UEAAHH@Z ENDP			; THashTblT<unsigned int>::Init
_TEXT	ENDS
;	COMDAT text$x
text$x	SEGMENT
$T1 = 48
$T2 = 80
this$ = 80
_hashNum$ = 88
$T3 = 96
?dtor$0@?0??Init@?$THashTblT@I@@UEAAHH@Z@4HA PROC	; `THashTblT<unsigned int>::Init'::`1'::dtor$0
  00000	40 55		 push	 rbp
  00002	48 83 ec 20	 sub	 rsp, 32			; 00000020H
  00006	48 8b ea	 mov	 rbp, rdx
  00009	b8 20 00 00 00	 mov	 eax, 32			; 00000020H
  0000e	48 f7 65 50	 mul	 QWORD PTR $T2[rbp]
  00012	48 8b d0	 mov	 rdx, rax
  00015	48 c7 c0 ff ff
	ff ff		 mov	 rax, -1
  0001c	48 0f 40 d0	 cmovo	 rdx, rax
  00020	48 83 c2 08	 add	 rdx, 8
  00024	48 c7 c0 ff ff
	ff ff		 mov	 rax, -1
  0002b	48 0f 42 d0	 cmovb	 rdx, rax
  0002f	48 8b 4d 60	 mov	 rcx, QWORD PTR $T3[rbp]
  00033	e8 00 00 00 00	 call	 ??_V@YAXPEAX_K@Z	; operator delete[]
  00038	48 83 c4 20	 add	 rsp, 32			; 00000020H
  0003c	5d		 pop	 rbp
  0003d	c3		 ret	 0
?dtor$0@?0??Init@?$THashTblT@I@@UEAAHH@Z@4HA ENDP	; `THashTblT<unsigned int>::Init'::`1'::dtor$0
text$x	ENDS
; Function compile flags: /Ogtpy
;	COMDAT text$x
text$x	SEGMENT
$T1 = 48
$T2 = 80
this$ = 80
_hashNum$ = 88
$T3 = 96
?dtor$0@?0??Init@?$THashTblT@I@@UEAAHH@Z@4HA PROC	; `THashTblT<unsigned int>::Init'::`1'::dtor$0
  00000	40 55		 push	 rbp
  00002	48 83 ec 20	 sub	 rsp, 32			; 00000020H
  00006	48 8b ea	 mov	 rbp, rdx
  00009	b8 20 00 00 00	 mov	 eax, 32			; 00000020H
  0000e	48 f7 65 50	 mul	 QWORD PTR $T2[rbp]
  00012	48 8b d0	 mov	 rdx, rax
  00015	48 c7 c0 ff ff
	ff ff		 mov	 rax, -1
  0001c	48 0f 40 d0	 cmovo	 rdx, rax
  00020	48 83 c2 08	 add	 rdx, 8
  00024	48 c7 c0 ff ff
	ff ff		 mov	 rax, -1
  0002b	48 0f 42 d0	 cmovb	 rdx, rax
  0002f	48 8b 4d 60	 mov	 rcx, QWORD PTR $T3[rbp]
  00033	e8 00 00 00 00	 call	 ??_V@YAXPEAX_K@Z	; operator delete[]
  00038	48 83 c4 20	 add	 rsp, 32			; 00000020H
  0003c	5d		 pop	 rbp
  0003d	c3		 ret	 0
?dtor$0@?0??Init@?$THashTblT@I@@UEAAHH@Z@4HA ENDP	; `THashTblT<unsigned int>::Init'::`1'::dtor$0
text$x	ENDS
; Function compile flags: /Ogtpy
; File f:\software1\系统软件\fastcopy\fastcopy325src\src\tlib\tmisc.h
;	COMDAT ??1?$THashTblT@I@@UEAA@XZ
_TEXT	SEGMENT
$T1 = 32
this$ = 64
??1?$THashTblT@I@@UEAA@XZ PROC				; THashTblT<unsigned int>::~THashTblT<unsigned int>, COMDAT

; 79   : 	virtual ~THashTblT() { UnInit(); }

$LN3:
  00000	48 83 ec 38	 sub	 rsp, 56			; 00000038H
  00004	48 c7 44 24 20
	fe ff ff ff	 mov	 QWORD PTR $T1[rsp], -2
  0000d	48 8d 05 00 00
	00 00		 lea	 rax, OFFSET FLAT:??_7?$THashTblT@I@@6B@
  00014	48 89 01	 mov	 QWORD PTR [rcx], rax
  00017	e8 00 00 00 00	 call	 ?UnInit@?$THashTblT@I@@UEAAXXZ ; THashTblT<unsigned int>::UnInit
  0001c	90		 npad	 1
  0001d	48 83 c4 38	 add	 rsp, 56			; 00000038H
  00021	c3		 ret	 0
??1?$THashTblT@I@@UEAA@XZ ENDP				; THashTblT<unsigned int>::~THashTblT<unsigned int>
_TEXT	ENDS
; Function compile flags: /Ogtpy
; File f:\software1\系统软件\fastcopy\fastcopy325src\src\tlib\tmisc.h
;	COMDAT ??0?$THashTblT@I@@QEAA@HH@Z
_TEXT	SEGMENT
this$ = 48
_hashNum$dead$ = 56
_isDeleteObj$dead$ = 64
??0?$THashTblT@I@@QEAA@HH@Z PROC			; THashTblT<unsigned int>::THashTblT<unsigned int>, COMDAT

; 71   : 	THashTblT(int _hashNum=0, BOOL _isDeleteObj=TRUE) {

$LN5:
  00000	40 53		 push	 rbx
  00002	48 83 ec 20	 sub	 rsp, 32			; 00000020H
  00006	48 8d 05 00 00
	00 00		 lea	 rax, OFFSET FLAT:??_7?$THashTblT@I@@6B@

; 72   : 		hashTbl = NULL;
; 73   : 		registerNum = 0;
; 74   : 		isDeleteObj = _isDeleteObj;

  0000d	c7 41 18 01 00
	00 00		 mov	 DWORD PTR [rcx+24], 1
  00014	48 89 01	 mov	 QWORD PTR [rcx], rax

; 75   : 		if ((hashNum = _hashNum) > 0) {
; 76   : 			Init(hashNum);

  00017	ba e8 03 00 00	 mov	 edx, 1000		; 000003e8H
  0001c	33 c0		 xor	 eax, eax
  0001e	c7 41 10 e8 03
	00 00		 mov	 DWORD PTR [rcx+16], 1000 ; 000003e8H
  00025	48 89 41 08	 mov	 QWORD PTR [rcx+8], rax
  00029	48 8b d9	 mov	 rbx, rcx
  0002c	89 41 14	 mov	 DWORD PTR [rcx+20], eax
  0002f	e8 00 00 00 00	 call	 ?Init@?$THashTblT@I@@UEAAHH@Z ; THashTblT<unsigned int>::Init

; 77   : 		}
; 78   : 	}

  00034	48 8b c3	 mov	 rax, rbx
  00037	48 83 c4 20	 add	 rsp, 32			; 00000020H
  0003b	5b		 pop	 rbx
  0003c	c3		 ret	 0
??0?$THashTblT@I@@QEAA@HH@Z ENDP			; THashTblT<unsigned int>::THashTblT<unsigned int>
_TEXT	ENDS
; Function compile flags: /Ogtpy
; File f:\software1\系统软件\fastcopy\fastcopy325src\src\tlib\tmisc.h
;	COMDAT ??0?$THashObjT@I@@QEAA@XZ
_TEXT	SEGMENT
this$ = 8
??0?$THashObjT@I@@QEAA@XZ PROC				; THashObjT<unsigned int>::THashObjT<unsigned int>, COMDAT

; 30   : 	THashObjT() {

  00000	48 8d 05 00 00
	00 00		 lea	 rax, OFFSET FLAT:??_7?$THashObjT@I@@6B@
  00007	48 89 01	 mov	 QWORD PTR [rcx], rax

; 31   : 		prevHash = nextHash = NULL;

  0000a	33 c0		 xor	 eax, eax
  0000c	48 89 41 10	 mov	 QWORD PTR [rcx+16], rax
  00010	48 89 41 08	 mov	 QWORD PTR [rcx+8], rax

; 32   : 		hashId = 0;

  00014	89 41 18	 mov	 DWORD PTR [rcx+24], eax

; 33   : 	}

  00017	48 8b c1	 mov	 rax, rcx
  0001a	c3		 ret	 0
??0?$THashObjT@I@@QEAA@XZ ENDP				; THashObjT<unsigned int>::THashObjT<unsigned int>
_TEXT	ENDS
; Function compile flags: /Ogtpy
; File f:\software1\系统软件\fastcopy\fastcopy325src\src\tlib\tmisc.h
;	COMDAT ??_G?$THashTblT@I@@UEAAPEAXI@Z
_TEXT	SEGMENT
$T1 = 32
this$ = 64
__flags$ = 72
??_G?$THashTblT@I@@UEAAPEAXI@Z PROC			; THashTblT<unsigned int>::`scalar deleting destructor', COMDAT
$LN8:
  00000	40 57		 push	 rdi
  00002	48 83 ec 30	 sub	 rsp, 48			; 00000030H
  00006	48 c7 44 24 20
	fe ff ff ff	 mov	 QWORD PTR $T1[rsp], -2
  0000f	48 89 5c 24 40	 mov	 QWORD PTR [rsp+64], rbx
  00014	8b da		 mov	 ebx, edx
  00016	48 8b f9	 mov	 rdi, rcx

; 79   : 	virtual ~THashTblT() { UnInit(); }

  00019	48 8d 05 00 00
	00 00		 lea	 rax, OFFSET FLAT:??_7?$THashTblT@I@@6B@
  00020	48 89 01	 mov	 QWORD PTR [rcx], rax
  00023	e8 00 00 00 00	 call	 ?UnInit@?$THashTblT@I@@UEAAXXZ ; THashTblT<unsigned int>::UnInit
  00028	90		 npad	 1
  00029	f6 c3 01	 test	 bl, 1
  0002c	74 0e		 je	 SHORT $LN7@scalar
  0002e	ba 20 00 00 00	 mov	 edx, 32			; 00000020H
  00033	48 8b cf	 mov	 rcx, rdi
  00036	e8 00 00 00 00	 call	 ??3@YAXPEAX_K@Z		; operator delete
  0003b	90		 npad	 1
$LN7@scalar:
  0003c	48 8b c7	 mov	 rax, rdi
  0003f	48 8b 5c 24 40	 mov	 rbx, QWORD PTR [rsp+64]
  00044	48 83 c4 30	 add	 rsp, 48			; 00000030H
  00048	5f		 pop	 rdi
  00049	c3		 ret	 0
??_G?$THashTblT@I@@UEAAPEAXI@Z ENDP			; THashTblT<unsigned int>::`scalar deleting destructor'
_TEXT	ENDS
END
