; Listing generated by Microsoft (R) Optimizing Compiler Version 19.00.24215.1 

include listing.inc

INCLUDELIB OLDNAMES

PUBLIC	??_C@_0DM@JCBIPCJC@?$EA?$CI?$CD?$CJCopyright?5?$CIC?$CJ?51996?92016?5H?4Sh@ ; `string'
PUBLIC	??_C@_1BI@LEHNOINF@?$AAs?$AAo?$AAf?$AAt?$AAw?$AAa?$AAr?$AAe?$AA?2?$AA?$CF?$AAs?$AA?$AA@ ; `string'
PUBLIC	??_C@_17LGLPFNOI@?$AA?2?$AA?$CF?$AAs?$AA?$AA@	; `string'
EXTRN	__imp_RegCloseKey:PROC
EXTRN	__imp_RegQueryValueExA:PROC
EXTRN	__imp_RegDeleteKeyW:PROC
EXTRN	__imp_RegQueryValueW:PROC
EXTRN	__imp_RegCreateKeyExW:PROC
EXTRN	__imp_RegQueryValueA:PROC
EXTRN	__imp_RegEnumKeyExW:PROC
EXTRN	__imp_RegSetValueExW:PROC
EXTRN	__imp_RegSetValueExA:PROC
EXTRN	__imp_RegOpenKeyExW:PROC
EXTRN	wcstol:PROC
EXTRN	__imp_RegDeleteValueW:PROC
EXTRN	__imp_RegEnumValueW:PROC
EXTRN	__imp_RegQueryValueExW:PROC
;	COMDAT ??_C@_17LGLPFNOI@?$AA?2?$AA?$CF?$AAs?$AA?$AA@
CONST	SEGMENT
??_C@_17LGLPFNOI@?$AA?2?$AA?$CF?$AAs?$AA?$AA@ DB '\', 00H, '%', 00H, 's', 00H
	DB	00H, 00H					; `string'
CONST	ENDS
;	COMDAT ??_C@_1BI@LEHNOINF@?$AAs?$AAo?$AAf?$AAt?$AAw?$AAa?$AAr?$AAe?$AA?2?$AA?$CF?$AAs?$AA?$AA@
CONST	SEGMENT
??_C@_1BI@LEHNOINF@?$AAs?$AAo?$AAf?$AAt?$AAw?$AAa?$AAr?$AAe?$AA?2?$AA?$CF?$AAs?$AA?$AA@ DB 's'
	DB	00H, 'o', 00H, 'f', 00H, 't', 00H, 'w', 00H, 'a', 00H, 'r', 00H
	DB	'e', 00H, '\', 00H, '%', 00H, 's', 00H, 00H, 00H ; `string'
CONST	ENDS
;	COMDAT ??_C@_0DM@JCBIPCJC@?$EA?$CI?$CD?$CJCopyright?5?$CIC?$CJ?51996?92016?5H?4Sh@
CONST	SEGMENT
??_C@_0DM@JCBIPCJC@?$EA?$CI?$CD?$CJCopyright?5?$CIC?$CJ?51996?92016?5H?4Sh@ DB '@'
	DB	'(#)Copyright (C) 1996-2016 H.Shirouzu', 09H, 09H, 'tregist.cp'
	DB	'p', 09H, 'Ver0.99', 00H			; `string'
PUBLIC	?DeleteChildTreeW@TRegistry@@QEAAHPEB_W@Z	; TRegistry::DeleteChildTreeW
PUBLIC	?EnumValueW@TRegistry@@QEAAHKPEA_WHPEAK@Z	; TRegistry::EnumValueW
PUBLIC	?EnumKeyW@TRegistry@@QEAAHKPEA_WH@Z		; TRegistry::EnumKeyW
PUBLIC	?DeleteValueW@TRegistry@@QEAAHPEB_W@Z		; TRegistry::DeleteValueW
PUBLIC	?DeleteKeyW@TRegistry@@QEAAHPEB_W@Z		; TRegistry::DeleteKeyW
PUBLIC	?SetStrW@TRegistry@@QEAAHPEB_W0@Z		; TRegistry::SetStrW
PUBLIC	?SetLongW@TRegistry@@QEAAHPEB_WJ@Z		; TRegistry::SetLongW
PUBLIC	?SetLong@TRegistry@@QEAAHPEBDJ@Z		; TRegistry::SetLong
PUBLIC	?GetLongW@TRegistry@@QEAAHPEB_WPEAJ@Z		; TRegistry::GetLongW
PUBLIC	?GetLong@TRegistry@@QEAAHPEBDPEAJ@Z		; TRegistry::GetLong
PUBLIC	?OpenKeyW@TRegistry@@QEAAHPEB_WH@Z		; TRegistry::OpenKeyW
PUBLIC	?DeleteChildTree@TRegistry@@QEAAHPEBD@Z		; TRegistry::DeleteChildTree
PUBLIC	?DeleteValue@TRegistry@@QEAAHPEBD@Z		; TRegistry::DeleteValue
PUBLIC	?SetStr@TRegistry@@QEAAHPEBD0@Z			; TRegistry::SetStr
PUBLIC	?SetInt@TRegistry@@QEAAHPEBDH@Z			; TRegistry::SetInt
PUBLIC	?GetInt@TRegistry@@QEAAHPEBDPEAH@Z		; TRegistry::GetInt
PUBLIC	?CloseKey@TRegistry@@QEAAHXZ			; TRegistry::CloseKey
PUBLIC	?OpenKey@TRegistry@@QEAAHPEBDH@Z		; TRegistry::OpenKey
PUBLIC	?ChangeTopKey@TRegistry@@QEAAXPEAUHKEY__@@@Z	; TRegistry::ChangeTopKey
PUBLIC	??1TRegistry@@QEAA@XZ				; TRegistry::~TRegistry
PUBLIC	??0TRegistry@@QEAA@PEAUHKEY__@@W4StrMode@@@Z	; TRegistry::TRegistry
;	COMDAT pdata
pdata	SEGMENT
$pdata$?DeleteChildTreeW@TRegistry@@QEAAHPEB_W@Z DD imagerel $LN23
	DD	imagerel $LN23+258
	DD	imagerel $unwind$?DeleteChildTreeW@TRegistry@@QEAAHPEB_W@Z
pdata	ENDS
;	COMDAT pdata
pdata	SEGMENT
$pdata$?EnumValueW@TRegistry@@QEAAHKPEA_WHPEAK@Z DD imagerel $LN4
	DD	imagerel $LN4+78
	DD	imagerel $unwind$?EnumValueW@TRegistry@@QEAAHKPEA_WHPEAK@Z
pdata	ENDS
;	COMDAT pdata
pdata	SEGMENT
$pdata$?EnumKeyW@TRegistry@@QEAAHKPEA_WH@Z DD imagerel $LN4
	DD	imagerel $LN4+78
	DD	imagerel $unwind$?EnumKeyW@TRegistry@@QEAAHKPEA_WH@Z
pdata	ENDS
;	COMDAT pdata
pdata	SEGMENT
$pdata$?DeleteValueW@TRegistry@@QEAAHPEB_W@Z DD imagerel $LN4
	DD	imagerel $LN4+40
	DD	imagerel $unwind$?DeleteValueW@TRegistry@@QEAAHPEB_W@Z
pdata	ENDS
;	COMDAT pdata
pdata	SEGMENT
$pdata$?DeleteKeyW@TRegistry@@QEAAHPEB_W@Z DD imagerel $LN4
	DD	imagerel $LN4+40
	DD	imagerel $unwind$?DeleteKeyW@TRegistry@@QEAAHPEB_W@Z
pdata	ENDS
;	COMDAT pdata
pdata	SEGMENT
$pdata$?SetStrW@TRegistry@@QEAAHPEB_W0@Z DD imagerel $LN5
	DD	imagerel $LN5+90
	DD	imagerel $unwind$?SetStrW@TRegistry@@QEAAHPEB_W0@Z
pdata	ENDS
;	COMDAT pdata
pdata	SEGMENT
$pdata$?SetLongW@TRegistry@@QEAAHPEB_WJ@Z DD imagerel $LN4
	DD	imagerel $LN4+72
	DD	imagerel $unwind$?SetLongW@TRegistry@@QEAAHPEB_WJ@Z
pdata	ENDS
;	COMDAT pdata
pdata	SEGMENT
$pdata$?SetLong@TRegistry@@QEAAHPEBDJ@Z DD imagerel $LN32
	DD	imagerel $LN32+107
	DD	imagerel $unwind$?SetLong@TRegistry@@QEAAHPEBDJ@Z
pdata	ENDS
;	COMDAT pdata
pdata	SEGMENT
$pdata$?GetLongW@TRegistry@@QEAAHPEB_WPEAJ@Z DD imagerel $LN7
	DD	imagerel $LN7+198
	DD	imagerel $unwind$?GetLongW@TRegistry@@QEAAHPEB_WPEAJ@Z
pdata	ENDS
;	COMDAT pdata
pdata	SEGMENT
$pdata$?GetLong@TRegistry@@QEAAHPEBDPEAJ@Z DD imagerel $LN32
	DD	imagerel $LN32+114
	DD	imagerel $unwind$?GetLong@TRegistry@@QEAAHPEBDPEAJ@Z
pdata	ENDS
;	COMDAT pdata
pdata	SEGMENT
$pdata$?OpenKeyW@TRegistry@@QEAAHPEB_WH@Z DD imagerel $LN14
	DD	imagerel $LN14+239
	DD	imagerel $unwind$?OpenKeyW@TRegistry@@QEAAHPEB_WH@Z
pdata	ENDS
;	COMDAT pdata
pdata	SEGMENT
$pdata$?DeleteChildTree@TRegistry@@QEAAHPEBD@Z DD imagerel $LN30
	DD	imagerel $LN30+165
	DD	imagerel $unwind$?DeleteChildTree@TRegistry@@QEAAHPEBD@Z
pdata	ENDS
;	COMDAT pdata
pdata	SEGMENT
$pdata$?DeleteValue@TRegistry@@QEAAHPEBD@Z DD imagerel $LN32
	DD	imagerel $LN32+98
	DD	imagerel $unwind$?DeleteValue@TRegistry@@QEAAHPEBD@Z
pdata	ENDS
;	COMDAT pdata
pdata	SEGMENT
$pdata$?SetStr@TRegistry@@QEAAHPEBD0@Z DD imagerel $LN54
	DD	imagerel $LN54+241
	DD	imagerel $unwind$?SetStr@TRegistry@@QEAAHPEBD0@Z
pdata	ENDS
;	COMDAT pdata
pdata	SEGMENT
$pdata$?CloseKey@TRegistry@@QEAAHXZ DD imagerel $LN5
	DD	imagerel $LN5+50
	DD	imagerel $unwind$?CloseKey@TRegistry@@QEAAHXZ
pdata	ENDS
;	COMDAT pdata
pdata	SEGMENT
$pdata$?OpenKey@TRegistry@@QEAAHPEBDH@Z DD imagerel $LN32
	DD	imagerel $LN32+114
	DD	imagerel $unwind$?OpenKey@TRegistry@@QEAAHPEBDH@Z
pdata	ENDS
;	COMDAT pdata
pdata	SEGMENT
$pdata$?ChangeTopKey@TRegistry@@QEAAXPEAUHKEY__@@@Z DD imagerel $LN11
	DD	imagerel $LN11+56
	DD	imagerel $unwind$?ChangeTopKey@TRegistry@@QEAAXPEAUHKEY__@@@Z
pdata	ENDS
;	COMDAT pdata
pdata	SEGMENT
$pdata$??1TRegistry@@QEAA@XZ DD imagerel $LN10
	DD	imagerel $LN10+36
	DD	imagerel $unwind$??1TRegistry@@QEAA@XZ
pdata	ENDS
;	COMDAT xdata
xdata	SEGMENT
$unwind$??1TRegistry@@QEAA@XZ DD 020601H
	DD	030023206H
xdata	ENDS
;	COMDAT xdata
xdata	SEGMENT
$unwind$?ChangeTopKey@TRegistry@@QEAAXPEAUHKEY__@@@Z DD 020601H
	DD	030023206H
xdata	ENDS
;	COMDAT xdata
xdata	SEGMENT
$unwind$?OpenKey@TRegistry@@QEAAHPEBDH@Z DD 060f01H
	DD	07640fH
	DD	06340fH
	DD	0700b320fH
xdata	ENDS
;	COMDAT xdata
xdata	SEGMENT
$unwind$?CloseKey@TRegistry@@QEAAHXZ DD 010401H
	DD	04204H
xdata	ENDS
;	COMDAT xdata
xdata	SEGMENT
$ip2state$?SetStr@TRegistry@@QEAAHPEBD0@Z DD imagerel ?SetStr@TRegistry@@QEAAHPEBD0@Z
	DD	0ffffffffH
	DD	imagerel ?SetStr@TRegistry@@QEAAHPEBD0@Z+105
	DD	00H
	DD	imagerel ?SetStr@TRegistry@@QEAAHPEBD0@Z+199
	DD	0ffffffffH
xdata	ENDS
;	COMDAT xdata
xdata	SEGMENT
$stateUnwindMap$?SetStr@TRegistry@@QEAAHPEBD0@Z DD 0ffffffffH
	DD	imagerel ?dtor$0@?0??SetStr@TRegistry@@QEAAHPEBD0@Z@4HA
xdata	ENDS
;	COMDAT CONST
CONST	SEGMENT
$cppxdata$?SetStr@TRegistry@@QEAAHPEBD0@Z DD 019930522H
	DD	01H
	DD	imagerel $stateUnwindMap$?SetStr@TRegistry@@QEAAHPEBD0@Z
	DD	00H
	DD	00H
	DD	03H
	DD	imagerel $ip2state$?SetStr@TRegistry@@QEAAHPEBD0@Z
	DD	020H
	DD	00H
	DD	01H
CONST	ENDS
;	COMDAT xdata
xdata	SEGMENT
$unwind$?SetStr@TRegistry@@QEAAHPEBD0@Z DD 0a2311H
	DD	0d7423H
	DD	0c641eH
	DD	0b5419H
	DD	0a3414H
	DD	0e0027206H
	DD	imagerel __CxxFrameHandler3
	DD	imagerel $cppxdata$?SetStr@TRegistry@@QEAAHPEBD0@Z
xdata	ENDS
;	COMDAT xdata
xdata	SEGMENT
$unwind$?DeleteValue@TRegistry@@QEAAHPEBD@Z DD 040a01H
	DD	06340aH
	DD	07006320aH
xdata	ENDS
;	COMDAT xdata
xdata	SEGMENT
$ip2state$?DeleteChildTree@TRegistry@@QEAAHPEBD@Z DD imagerel ?DeleteChildTree@TRegistry@@QEAAHPEBD@Z
	DD	0ffffffffH
	DD	imagerel ?DeleteChildTree@TRegistry@@QEAAHPEBD@Z+97
	DD	00H
	DD	imagerel ?DeleteChildTree@TRegistry@@QEAAHPEBD@Z+129
	DD	0ffffffffH
xdata	ENDS
;	COMDAT xdata
xdata	SEGMENT
$stateUnwindMap$?DeleteChildTree@TRegistry@@QEAAHPEBD@Z DD 0ffffffffH
	DD	imagerel ?dtor$0@?0??DeleteChildTree@TRegistry@@QEAAHPEBD@Z@4HA
xdata	ENDS
;	COMDAT CONST
CONST	SEGMENT
$cppxdata$?DeleteChildTree@TRegistry@@QEAAHPEBD@Z DD 019930522H
	DD	01H
	DD	imagerel $stateUnwindMap$?DeleteChildTree@TRegistry@@QEAAHPEBD@Z
	DD	00H
	DD	00H
	DD	03H
	DD	imagerel $ip2state$?DeleteChildTree@TRegistry@@QEAAHPEBD@Z
	DD	020H
	DD	00H
	DD	01H
CONST	ENDS
;	COMDAT xdata
xdata	SEGMENT
$unwind$?DeleteChildTree@TRegistry@@QEAAHPEBD@Z DD 081e11H
	DD	0c641eH
	DD	0b5419H
	DD	0a3414H
	DD	070027206H
	DD	imagerel __CxxFrameHandler3
	DD	imagerel $cppxdata$?DeleteChildTree@TRegistry@@QEAAHPEBD@Z
xdata	ENDS
;	COMDAT xdata
xdata	SEGMENT
$unwind$?OpenKeyW@TRegistry@@QEAAHPEB_WH@Z DD 060f01H
	DD	0e640fH
	DD	0d340fH
	DD	0700b920fH
xdata	ENDS
;	COMDAT xdata
xdata	SEGMENT
$unwind$?GetLong@TRegistry@@QEAAHPEBDPEAJ@Z DD 060f01H
	DD	07640fH
	DD	06340fH
	DD	0700b320fH
xdata	ENDS
;	COMDAT xdata
xdata	SEGMENT
$unwind$?GetLongW@TRegistry@@QEAAHPEB_WPEAJ@Z DD 051d19H
	DD	024010bH
	DD	060037004H
	DD	03002H
	DD	imagerel __GSHandlerCheck
	DD	0110H
xdata	ENDS
;	COMDAT xdata
xdata	SEGMENT
$unwind$?SetLong@TRegistry@@QEAAHPEBDJ@Z DD 060f01H
	DD	07640fH
	DD	06340fH
	DD	0700b320fH
xdata	ENDS
;	COMDAT xdata
xdata	SEGMENT
$unwind$?SetLongW@TRegistry@@QEAAHPEB_WJ@Z DD 010901H
	DD	06209H
xdata	ENDS
;	COMDAT xdata
xdata	SEGMENT
$unwind$?SetStrW@TRegistry@@QEAAHPEB_W0@Z DD 010401H
	DD	06204H
xdata	ENDS
;	COMDAT xdata
xdata	SEGMENT
$unwind$?DeleteKeyW@TRegistry@@QEAAHPEB_W@Z DD 010401H
	DD	04204H
xdata	ENDS
;	COMDAT xdata
xdata	SEGMENT
$unwind$?DeleteValueW@TRegistry@@QEAAHPEB_W@Z DD 010401H
	DD	04204H
xdata	ENDS
;	COMDAT xdata
xdata	SEGMENT
$unwind$?EnumKeyW@TRegistry@@QEAAHKPEA_WH@Z DD 020601H
	DD	030029206H
xdata	ENDS
;	COMDAT xdata
xdata	SEGMENT
$unwind$?EnumValueW@TRegistry@@QEAAHKPEA_WHPEAK@Z DD 020601H
	DD	030029206H
xdata	ENDS
;	COMDAT xdata
xdata	SEGMENT
$unwind$?DeleteChildTreeW@TRegistry@@QEAAHPEB_W@Z DD 072419H
	DD	04d6412H
	DD	04c3412H
	DD	0480112H
	DD	0700bH
	DD	imagerel __GSHandlerCheck
	DD	0230H
; Function compile flags: /Ogtpy
; File f:\software1\系统软件\fastcopy\fastcopy325src\src\tlib\tregist.cpp
;	COMDAT ??0TRegistry@@QEAA@PEAUHKEY__@@W4StrMode@@@Z
_TEXT	SEGMENT
this$ = 8
top_key$ = 16
mode$dead$ = 24
??0TRegistry@@QEAA@PEAUHKEY__@@W4StrMode@@@Z PROC	; TRegistry::TRegistry, COMDAT

; 31   : 	topKey = top_key;
; 32   : 	strMode = mode;

  00000	33 c0		 xor	 eax, eax
  00002	48 89 11	 mov	 QWORD PTR [rcx], rdx

; 33   : 	openCnt = 0;

  00005	48 89 41 08	 mov	 QWORD PTR [rcx+8], rax

; 34   : }

  00009	48 8b c1	 mov	 rax, rcx
  0000c	c3		 ret	 0
??0TRegistry@@QEAA@PEAUHKEY__@@W4StrMode@@@Z ENDP	; TRegistry::TRegistry
_TEXT	ENDS
; Function compile flags: /Ogtpy
; File f:\software1\系统软件\fastcopy\fastcopy325src\src\tlib\tregist.cpp
;	COMDAT ??1TRegistry@@QEAA@XZ
_TEXT	SEGMENT
this$ = 48
??1TRegistry@@QEAA@XZ PROC				; TRegistry::~TRegistry, COMDAT

; 37   : {

$LN10:
  00000	40 53		 push	 rbx
  00002	48 83 ec 20	 sub	 rsp, 32			; 00000020H

; 38   : 	while (openCnt > 0) {

  00006	83 79 08 00	 cmp	 DWORD PTR [rcx+8], 0
  0000a	48 8b d9	 mov	 rbx, rcx
  0000d	7e 0f		 jle	 SHORT $LN3@TRegistry
  0000f	90		 npad	 1
$LL2@TRegistry:

; 39   : 		CloseKey();

  00010	48 8b cb	 mov	 rcx, rbx
  00013	e8 00 00 00 00	 call	 ?CloseKey@TRegistry@@QEAAHXZ ; TRegistry::CloseKey
  00018	83 7b 08 00	 cmp	 DWORD PTR [rbx+8], 0
  0001c	7f f2		 jg	 SHORT $LL2@TRegistry
$LN3@TRegistry:

; 40   : 	}
; 41   : }

  0001e	48 83 c4 20	 add	 rsp, 32			; 00000020H
  00022	5b		 pop	 rbx
  00023	c3		 ret	 0
??1TRegistry@@QEAA@XZ ENDP				; TRegistry::~TRegistry
_TEXT	ENDS
; Function compile flags: /Ogtpy
; File f:\software1\系统软件\fastcopy\fastcopy325src\src\tlib\tregist.cpp
;	COMDAT ?ChangeTopKey@TRegistry@@QEAAXPEAUHKEY__@@@Z
_TEXT	SEGMENT
this$ = 48
top_key$dead$ = 56
?ChangeTopKey@TRegistry@@QEAAXPEAUHKEY__@@@Z PROC	; TRegistry::ChangeTopKey, COMDAT

; 70   : {

$LN11:
  00000	40 53		 push	 rbx
  00002	48 83 ec 20	 sub	 rsp, 32			; 00000020H

; 71   : 	while (openCnt > 0)

  00006	83 79 08 00	 cmp	 DWORD PTR [rcx+8], 0
  0000a	48 8b d9	 mov	 rbx, rcx
  0000d	7e 1c		 jle	 SHORT $LN9@ChangeTopK
  0000f	90		 npad	 1
$LL2@ChangeTopK:

; 72   : 		CloseKey();

  00010	48 8b cb	 mov	 rcx, rbx
  00013	e8 00 00 00 00	 call	 ?CloseKey@TRegistry@@QEAAHXZ ; TRegistry::CloseKey
  00018	83 7b 08 00	 cmp	 DWORD PTR [rbx+8], 0
  0001c	7f f2		 jg	 SHORT $LL2@ChangeTopK

; 73   : 
; 74   : 	topKey = top_key;

  0001e	48 c7 03 02 00
	00 80		 mov	 QWORD PTR [rbx], -2147483646 ; ffffffff80000002H

; 75   : }

  00025	48 83 c4 20	 add	 rsp, 32			; 00000020H
  00029	5b		 pop	 rbx
  0002a	c3		 ret	 0
$LN9@ChangeTopK:

; 73   : 
; 74   : 	topKey = top_key;

  0002b	48 c7 01 02 00
	00 80		 mov	 QWORD PTR [rcx], -2147483646 ; ffffffff80000002H

; 75   : }

  00032	48 83 c4 20	 add	 rsp, 32			; 00000020H
  00036	5b		 pop	 rbx
  00037	c3		 ret	 0
?ChangeTopKey@TRegistry@@QEAAXPEAUHKEY__@@@Z ENDP	; TRegistry::ChangeTopKey
_TEXT	ENDS
; Function compile flags: /Ogtpy
; File f:\software1\系统软件\fastcopy\fastcopy325src\src\tlib\tregist.cpp
; File f:\software1\系统软件\fastcopy\fastcopy325src\src\tlib\tapi32u8.h
; File f:\software1\系统软件\fastcopy\fastcopy325src\src\tlib\tregist.cpp
; File f:\software1\系统软件\fastcopy\fastcopy325src\src\tlib\tapi32u8.h
; File f:\software1\系统软件\fastcopy\fastcopy325src\src\tlib\tregist.cpp
; File f:\software1\系统软件\fastcopy\fastcopy325src\src\tlib\tapi32u8.h
; File f:\software1\系统软件\fastcopy\fastcopy325src\src\tlib\tregist.cpp
;	COMDAT ?OpenKey@TRegistry@@QEAAHPEBDH@Z
_TEXT	SEGMENT
this$ = 48
subKey$ = 56
createFlg$ = 64
?OpenKey@TRegistry@@QEAAHPEBDH@Z PROC			; TRegistry::OpenKey, COMDAT

; 78   : {

$LN32:
  00000	48 89 5c 24 08	 mov	 QWORD PTR [rsp+8], rbx
  00005	48 89 74 24 10	 mov	 QWORD PTR [rsp+16], rsi
  0000a	57		 push	 rdi
  0000b	48 83 ec 20	 sub	 rsp, 32			; 00000020H
  0000f	41 8b f0	 mov	 esi, r8d
  00012	48 8b f9	 mov	 rdi, rcx
; File f:\software1\系统软件\fastcopy\fastcopy325src\src\tlib\tapi32u8.h

; 100  : 		str = _str ? mode == BY_UTF8 ? U8toW(_str) : AtoW(_str) : NULL;

  00015	48 85 d2	 test	 rdx, rdx
  00018	74 28		 je	 SHORT $LN14@OpenKey
  0001a	83 79 0c 00	 cmp	 DWORD PTR [rcx+12], 0
  0001e	48 8b ca	 mov	 rcx, rdx
  00021	75 07		 jne	 SHORT $LN12@OpenKey
  00023	e8 00 00 00 00	 call	 ?U8toW@@YAPEA_WPEBDH@Z	; U8toW
  00028	eb 05		 jmp	 SHORT $LN30@OpenKey
$LN12@OpenKey:
  0002a	e8 00 00 00 00	 call	 ?AtoW@@YAPEA_WPEBDH@Z	; AtoW
$LN30@OpenKey:

; 172  : 		return str ? str : L"";

  0002f	48 85 c0	 test	 rax, rax
  00032	48 8d 15 00 00
	00 00		 lea	 rdx, OFFSET FLAT:??_C@_11LOCGONAA@?$AA?$AA@

; 100  : 		str = _str ? mode == BY_UTF8 ? U8toW(_str) : AtoW(_str) : NULL;

  00039	48 8b d8	 mov	 rbx, rax

; 172  : 		return str ? str : L"";

  0003c	48 0f 45 d0	 cmovne	 rdx, rax
; File f:\software1\系统软件\fastcopy\fastcopy325src\src\tlib\tregist.cpp

; 80   : 	return	OpenKeyW(subKey ? subkey_w.s() : NULL, createFlg);

  00040	eb 04		 jmp	 SHORT $LN4@OpenKey
$LN14@OpenKey:
; File f:\software1\系统软件\fastcopy\fastcopy325src\src\tlib\tapi32u8.h

; 100  : 		str = _str ? mode == BY_UTF8 ? U8toW(_str) : AtoW(_str) : NULL;

  00042	33 db		 xor	 ebx, ebx
; File f:\software1\系统软件\fastcopy\fastcopy325src\src\tlib\tregist.cpp

; 80   : 	return	OpenKeyW(subKey ? subkey_w.s() : NULL, createFlg);

  00044	8b d3		 mov	 edx, ebx
$LN4@OpenKey:
  00046	44 8b c6	 mov	 r8d, esi
  00049	48 8b cf	 mov	 rcx, rdi
  0004c	e8 00 00 00 00	 call	 ?OpenKeyW@TRegistry@@QEAAHPEB_WH@Z ; TRegistry::OpenKeyW
  00051	8b f8		 mov	 edi, eax
; File f:\software1\系统软件\fastcopy\fastcopy325src\src\tlib\tapi32u8.h

; 114  : 		if (str) {

  00053	48 85 db	 test	 rbx, rbx
  00056	74 0a		 je	 SHORT $LN27@OpenKey

; 115  : 			delete [] str;

  00058	48 8b cb	 mov	 rcx, rbx
  0005b	e8 00 00 00 00	 call	 ??_V@YAXPEAX@Z		; operator delete[]
; File f:\software1\系统软件\fastcopy\fastcopy325src\src\tlib\tregist.cpp

; 80   : 	return	OpenKeyW(subKey ? subkey_w.s() : NULL, createFlg);

  00060	8b c7		 mov	 eax, edi
$LN27@OpenKey:

; 81   : }

  00062	48 8b 5c 24 30	 mov	 rbx, QWORD PTR [rsp+48]
  00067	48 8b 74 24 38	 mov	 rsi, QWORD PTR [rsp+56]
  0006c	48 83 c4 20	 add	 rsp, 32			; 00000020H
  00070	5f		 pop	 rdi
  00071	c3		 ret	 0
?OpenKey@TRegistry@@QEAAHPEBDH@Z ENDP			; TRegistry::OpenKey
_TEXT	ENDS
; Function compile flags: /Ogtpy
; File f:\software1\系统软件\fastcopy\fastcopy325src\src\tlib\tregist.cpp
;	COMDAT ?CloseKey@TRegistry@@QEAAHXZ
_TEXT	SEGMENT
this$ = 48
?CloseKey@TRegistry@@QEAAHXZ PROC			; TRegistry::CloseKey, COMDAT

; 110  : {

$LN5:
  00000	48 83 ec 28	 sub	 rsp, 40			; 00000028H

; 111  : 	if (openCnt <= 0) {

  00004	8b 41 08	 mov	 eax, DWORD PTR [rcx+8]
  00007	48 8b d1	 mov	 rdx, rcx
  0000a	85 c0		 test	 eax, eax
  0000c	7f 07		 jg	 SHORT $LN2@CloseKey

; 112  : 		return	FALSE;

  0000e	33 c0		 xor	 eax, eax

; 117  : }

  00010	48 83 c4 28	 add	 rsp, 40			; 00000028H
  00014	c3		 ret	 0
$LN2@CloseKey:

; 113  : 	}
; 114  : 	::RegCloseKey(hKey[--openCnt]);

  00015	ff c8		 dec	 eax
  00017	89 41 08	 mov	 DWORD PTR [rcx+8], eax
  0001a	48 63 c8	 movsxd	 rcx, eax
  0001d	48 8b 4c ca 10	 mov	 rcx, QWORD PTR [rdx+rcx*8+16]
  00022	ff 15 00 00 00
	00		 call	 QWORD PTR __imp_RegCloseKey

; 115  : 
; 116  : 	return	TRUE;

  00028	b8 01 00 00 00	 mov	 eax, 1

; 117  : }

  0002d	48 83 c4 28	 add	 rsp, 40			; 00000028H
  00031	c3		 ret	 0
?CloseKey@TRegistry@@QEAAHXZ ENDP			; TRegistry::CloseKey
_TEXT	ENDS
; Function compile flags: /Ogtpy
; File f:\software1\系统软件\fastcopy\fastcopy325src\src\tlib\tregist.cpp
;	COMDAT ?GetInt@TRegistry@@QEAAHPEBDPEAH@Z
_TEXT	SEGMENT
this$ = 8
subKey$ = 16
val$ = 24
?GetInt@TRegistry@@QEAAHPEBDPEAH@Z PROC			; TRegistry::GetInt, COMDAT

; 121  : 	return	GetLong(subKey, (long *)val);

  00000	e9 00 00 00 00	 jmp	 ?GetLong@TRegistry@@QEAAHPEBDPEAJ@Z ; TRegistry::GetLong
?GetInt@TRegistry@@QEAAHPEBDPEAH@Z ENDP			; TRegistry::GetInt
_TEXT	ENDS
; Function compile flags: /Ogtpy
; File f:\software1\系统软件\fastcopy\fastcopy325src\src\tlib\tregist.cpp
;	COMDAT ?SetInt@TRegistry@@QEAAHPEBDH@Z
_TEXT	SEGMENT
this$ = 8
subKey$dead$ = 16
val$ = 24
?SetInt@TRegistry@@QEAAHPEBDH@Z PROC			; TRegistry::SetInt, COMDAT

; 131  : 	return	SetLong(subKey, (long)val);

  00000	e9 00 00 00 00	 jmp	 ?SetLong@TRegistry@@QEAAHPEBDJ@Z ; TRegistry::SetLong
?SetInt@TRegistry@@QEAAHPEBDH@Z ENDP			; TRegistry::SetInt
_TEXT	ENDS
; Function compile flags: /Ogtpy
; File f:\software1\系统软件\fastcopy\fastcopy325src\src\tlib\tregist.cpp
; File f:\software1\系统软件\fastcopy\fastcopy325src\src\tlib\tapi32u8.h
; File f:\software1\系统软件\fastcopy\fastcopy325src\src\tlib\tregist.cpp
; File f:\software1\系统软件\fastcopy\fastcopy325src\src\tlib\tapi32u8.h
; File f:\software1\系统软件\fastcopy\fastcopy325src\src\tlib\tregist.cpp
; File f:\software1\系统软件\fastcopy\fastcopy325src\src\tlib\tapi32u8.h
; File f:\software1\系统软件\fastcopy\fastcopy325src\src\tlib\tregist.cpp
;	COMDAT ?SetStr@TRegistry@@QEAAHPEBD0@Z
_TEXT	SEGMENT
$T1 = 32
subKey_w$ = 40
this$ = 80
subKey$ = 88
str$ = 96
?SetStr@TRegistry@@QEAAHPEBD0@Z PROC			; TRegistry::SetStr, COMDAT

; 240  : {

$LN54:
  00000	41 56		 push	 r14
  00002	48 83 ec 40	 sub	 rsp, 64			; 00000040H
  00006	48 c7 44 24 20
	fe ff ff ff	 mov	 QWORD PTR $T1[rsp], -2
  0000f	48 89 5c 24 50	 mov	 QWORD PTR [rsp+80], rbx
  00014	48 89 6c 24 58	 mov	 QWORD PTR [rsp+88], rbp
  00019	48 89 74 24 60	 mov	 QWORD PTR [rsp+96], rsi
  0001e	48 89 7c 24 68	 mov	 QWORD PTR [rsp+104], rdi
  00023	49 8b f0	 mov	 rsi, r8
  00026	48 8b ea	 mov	 rbp, rdx
  00029	4c 8b f1	 mov	 r14, rcx
; File f:\software1\系统软件\fastcopy\fastcopy325src\src\tlib\tapi32u8.h

; 100  : 		str = _str ? mode == BY_UTF8 ? U8toW(_str) : AtoW(_str) : NULL;

  0002c	33 ff		 xor	 edi, edi
  0002e	48 85 d2	 test	 rdx, rdx
  00031	74 26		 je	 SHORT $LN15@SetStr
  00033	39 79 0c	 cmp	 DWORD PTR [rcx+12], edi
  00036	48 8b ca	 mov	 rcx, rdx
  00039	75 0f		 jne	 SHORT $LN13@SetStr
  0003b	e8 00 00 00 00	 call	 ?U8toW@@YAPEA_WPEBDH@Z	; U8toW
  00040	48 8b d8	 mov	 rbx, rax
  00043	48 89 44 24 28	 mov	 QWORD PTR subKey_w$[rsp], rax
  00048	eb 17		 jmp	 SHORT $LN16@SetStr
$LN13@SetStr:
  0004a	e8 00 00 00 00	 call	 ?AtoW@@YAPEA_WPEBDH@Z	; AtoW
  0004f	48 8b d8	 mov	 rbx, rax
  00052	48 89 44 24 28	 mov	 QWORD PTR subKey_w$[rsp], rax
  00057	eb 08		 jmp	 SHORT $LN16@SetStr
$LN15@SetStr:
  00059	48 8b df	 mov	 rbx, rdi
  0005c	48 89 5c 24 28	 mov	 QWORD PTR subKey_w$[rsp], rbx
$LN16@SetStr:

; 101  : 		len = -1;

  00061	c7 44 24 30 ff
	ff ff ff	 mov	 DWORD PTR subKey_w$[rsp+8], -1

; 100  : 		str = _str ? mode == BY_UTF8 ? U8toW(_str) : AtoW(_str) : NULL;

  00069	48 85 f6	 test	 rsi, rsi
  0006c	74 1e		 je	 SHORT $LN28@SetStr
  0006e	48 8b ce	 mov	 rcx, rsi
  00071	41 83 7e 0c 00	 cmp	 DWORD PTR [r14+12], 0
  00076	75 0a		 jne	 SHORT $LN26@SetStr
  00078	e8 00 00 00 00	 call	 ?U8toW@@YAPEA_WPEBDH@Z	; U8toW
  0007d	48 8b f0	 mov	 rsi, rax
  00080	eb 0d		 jmp	 SHORT $LN29@SetStr
$LN26@SetStr:
  00082	e8 00 00 00 00	 call	 ?AtoW@@YAPEA_WPEBDH@Z	; AtoW
  00087	48 8b f0	 mov	 rsi, rax
  0008a	eb 03		 jmp	 SHORT $LN29@SetStr
$LN28@SetStr:
  0008c	48 8b f7	 mov	 rsi, rdi
$LN29@SetStr:
; File f:\software1\系统软件\fastcopy\fastcopy325src\src\tlib\tregist.cpp

; 243  : 	return	SetStrW(subKey ? subKey_w.s() : NULL, str_w.s());

  0008f	4c 8d 05 00 00
	00 00		 lea	 r8, OFFSET FLAT:??_C@_11LOCGONAA@?$AA?$AA@
  00096	48 85 ed	 test	 rbp, rbp
  00099	74 0a		 je	 SHORT $LN4@SetStr
; File f:\software1\系统软件\fastcopy\fastcopy325src\src\tlib\tapi32u8.h

; 172  : 		return str ? str : L"";

  0009b	49 8b f8	 mov	 rdi, r8
  0009e	48 85 db	 test	 rbx, rbx
  000a1	48 0f 45 fb	 cmovne	 rdi, rbx
$LN4@SetStr:
  000a5	48 85 f6	 test	 rsi, rsi
  000a8	4c 0f 45 c6	 cmovne	 r8, rsi
; File f:\software1\系统软件\fastcopy\fastcopy325src\src\tlib\tregist.cpp

; 243  : 	return	SetStrW(subKey ? subKey_w.s() : NULL, str_w.s());

  000ac	48 8b d7	 mov	 rdx, rdi
  000af	49 8b ce	 mov	 rcx, r14
  000b2	e8 00 00 00 00	 call	 ?SetStrW@TRegistry@@QEAAHPEB_W0@Z ; TRegistry::SetStrW
  000b7	8b f8		 mov	 edi, eax
; File f:\software1\系统软件\fastcopy\fastcopy325src\src\tlib\tapi32u8.h

; 114  : 		if (str) {

  000b9	48 85 f6	 test	 rsi, rsi
  000bc	74 09		 je	 SHORT $LN45@SetStr

; 115  : 			delete [] str;

  000be	48 8b ce	 mov	 rcx, rsi
  000c1	e8 00 00 00 00	 call	 ??_V@YAXPEAX@Z		; operator delete[]
  000c6	90		 npad	 1
$LN45@SetStr:

; 114  : 		if (str) {

  000c7	48 85 db	 test	 rbx, rbx
  000ca	74 08		 je	 SHORT $LN53@SetStr

; 115  : 			delete [] str;

  000cc	48 8b cb	 mov	 rcx, rbx
  000cf	e8 00 00 00 00	 call	 ??_V@YAXPEAX@Z		; operator delete[]
$LN53@SetStr:
; File f:\software1\系统软件\fastcopy\fastcopy325src\src\tlib\tregist.cpp

; 243  : 	return	SetStrW(subKey ? subKey_w.s() : NULL, str_w.s());

  000d4	8b c7		 mov	 eax, edi

; 244  : }

  000d6	48 8b 5c 24 50	 mov	 rbx, QWORD PTR [rsp+80]
  000db	48 8b 6c 24 58	 mov	 rbp, QWORD PTR [rsp+88]
  000e0	48 8b 74 24 60	 mov	 rsi, QWORD PTR [rsp+96]
  000e5	48 8b 7c 24 68	 mov	 rdi, QWORD PTR [rsp+104]
  000ea	48 83 c4 40	 add	 rsp, 64			; 00000040H
  000ee	41 5e		 pop	 r14
  000f0	c3		 ret	 0
?SetStr@TRegistry@@QEAAHPEBD0@Z ENDP			; TRegistry::SetStr
_TEXT	ENDS
;	COMDAT text$x
text$x	SEGMENT
$T1 = 32
subKey_w$ = 40
this$ = 80
subKey$ = 88
str$ = 96
?dtor$0@?0??SetStr@TRegistry@@QEAAHPEBD0@Z@4HA PROC	; `TRegistry::SetStr'::`1'::dtor$0
  00000	48 8d 8a 28 00
	00 00		 lea	 rcx, QWORD PTR subKey_w$[rdx]
  00007	e9 00 00 00 00	 jmp	 ??1Wstr@@QEAA@XZ	; Wstr::~Wstr
?dtor$0@?0??SetStr@TRegistry@@QEAAHPEBD0@Z@4HA ENDP	; `TRegistry::SetStr'::`1'::dtor$0
text$x	ENDS
; Function compile flags: /Ogtpy
;	COMDAT text$x
text$x	SEGMENT
$T1 = 32
subKey_w$ = 40
this$ = 80
subKey$ = 88
str$ = 96
?dtor$0@?0??SetStr@TRegistry@@QEAAHPEBD0@Z@4HA PROC	; `TRegistry::SetStr'::`1'::dtor$0
  00000	48 8d 8a 28 00
	00 00		 lea	 rcx, QWORD PTR subKey_w$[rdx]
  00007	e9 00 00 00 00	 jmp	 ??1Wstr@@QEAA@XZ	; Wstr::~Wstr
?dtor$0@?0??SetStr@TRegistry@@QEAAHPEBD0@Z@4HA ENDP	; `TRegistry::SetStr'::`1'::dtor$0
text$x	ENDS
; Function compile flags: /Ogtpy
; File f:\software1\系统软件\fastcopy\fastcopy325src\src\tlib\tregist.cpp
; File f:\software1\系统软件\fastcopy\fastcopy325src\src\tlib\tapi32u8.h
; File f:\software1\系统软件\fastcopy\fastcopy325src\src\tlib\tregist.cpp
; File f:\software1\系统软件\fastcopy\fastcopy325src\src\tlib\tapi32u8.h
; File f:\software1\系统软件\fastcopy\fastcopy325src\src\tlib\tregist.cpp
; File f:\software1\系统软件\fastcopy\fastcopy325src\src\tlib\tapi32u8.h
; File f:\software1\系统软件\fastcopy\fastcopy325src\src\tlib\tregist.cpp
;	COMDAT ?DeleteValue@TRegistry@@QEAAHPEBD@Z
_TEXT	SEGMENT
this$ = 48
subValue$ = 56
?DeleteValue@TRegistry@@QEAAHPEBD@Z PROC		; TRegistry::DeleteValue, COMDAT

; 296  : {

$LN32:
  00000	48 89 5c 24 08	 mov	 QWORD PTR [rsp+8], rbx
  00005	57		 push	 rdi
  00006	48 83 ec 20	 sub	 rsp, 32			; 00000020H
  0000a	48 8b f9	 mov	 rdi, rcx
; File f:\software1\系统软件\fastcopy\fastcopy325src\src\tlib\tapi32u8.h

; 100  : 		str = _str ? mode == BY_UTF8 ? U8toW(_str) : AtoW(_str) : NULL;

  0000d	48 85 d2	 test	 rdx, rdx
  00010	74 28		 je	 SHORT $LN14@DeleteValu
  00012	83 79 0c 00	 cmp	 DWORD PTR [rcx+12], 0
  00016	48 8b ca	 mov	 rcx, rdx
  00019	75 07		 jne	 SHORT $LN12@DeleteValu
  0001b	e8 00 00 00 00	 call	 ?U8toW@@YAPEA_WPEBDH@Z	; U8toW
  00020	eb 05		 jmp	 SHORT $LN30@DeleteValu
$LN12@DeleteValu:
  00022	e8 00 00 00 00	 call	 ?AtoW@@YAPEA_WPEBDH@Z	; AtoW
$LN30@DeleteValu:

; 172  : 		return str ? str : L"";

  00027	48 85 c0	 test	 rax, rax
  0002a	48 8d 15 00 00
	00 00		 lea	 rdx, OFFSET FLAT:??_C@_11LOCGONAA@?$AA?$AA@

; 100  : 		str = _str ? mode == BY_UTF8 ? U8toW(_str) : AtoW(_str) : NULL;

  00031	48 8b d8	 mov	 rbx, rax

; 172  : 		return str ? str : L"";

  00034	48 0f 45 d0	 cmovne	 rdx, rax
; File f:\software1\系统软件\fastcopy\fastcopy325src\src\tlib\tregist.cpp

; 298  : 	return	DeleteValueW(subValue ? subValue_w.s() : NULL);

  00038	eb 04		 jmp	 SHORT $LN4@DeleteValu
$LN14@DeleteValu:
; File f:\software1\系统软件\fastcopy\fastcopy325src\src\tlib\tapi32u8.h

; 100  : 		str = _str ? mode == BY_UTF8 ? U8toW(_str) : AtoW(_str) : NULL;

  0003a	33 db		 xor	 ebx, ebx
; File f:\software1\系统软件\fastcopy\fastcopy325src\src\tlib\tregist.cpp

; 298  : 	return	DeleteValueW(subValue ? subValue_w.s() : NULL);

  0003c	8b d3		 mov	 edx, ebx
$LN4@DeleteValu:
  0003e	48 8b cf	 mov	 rcx, rdi
  00041	e8 00 00 00 00	 call	 ?DeleteValueW@TRegistry@@QEAAHPEB_W@Z ; TRegistry::DeleteValueW
  00046	8b f8		 mov	 edi, eax
; File f:\software1\系统软件\fastcopy\fastcopy325src\src\tlib\tapi32u8.h

; 114  : 		if (str) {

  00048	48 85 db	 test	 rbx, rbx
  0004b	74 0a		 je	 SHORT $LN27@DeleteValu

; 115  : 			delete [] str;

  0004d	48 8b cb	 mov	 rcx, rbx
  00050	e8 00 00 00 00	 call	 ??_V@YAXPEAX@Z		; operator delete[]
; File f:\software1\系统软件\fastcopy\fastcopy325src\src\tlib\tregist.cpp

; 298  : 	return	DeleteValueW(subValue ? subValue_w.s() : NULL);

  00055	8b c7		 mov	 eax, edi
$LN27@DeleteValu:

; 299  : }

  00057	48 8b 5c 24 30	 mov	 rbx, QWORD PTR [rsp+48]
  0005c	48 83 c4 20	 add	 rsp, 32			; 00000020H
  00060	5f		 pop	 rdi
  00061	c3		 ret	 0
?DeleteValue@TRegistry@@QEAAHPEBD@Z ENDP		; TRegistry::DeleteValue
_TEXT	ENDS
; Function compile flags: /Ogtpy
; File f:\software1\系统软件\fastcopy\fastcopy325src\src\tlib\tregist.cpp
; File f:\software1\系统软件\fastcopy\fastcopy325src\src\tlib\tapi32u8.h
; File f:\software1\系统软件\fastcopy\fastcopy325src\src\tlib\tregist.cpp
; File f:\software1\系统软件\fastcopy\fastcopy325src\src\tlib\tapi32u8.h
; File f:\software1\系统软件\fastcopy\fastcopy325src\src\tlib\tregist.cpp
; File f:\software1\系统软件\fastcopy\fastcopy325src\src\tlib\tapi32u8.h
; File f:\software1\系统软件\fastcopy\fastcopy325src\src\tlib\tregist.cpp
;	COMDAT ?DeleteChildTree@TRegistry@@QEAAHPEBD@Z
_TEXT	SEGMENT
$T1 = 32
subKey_w$ = 40
this$ = 80
subKey$ = 88
?DeleteChildTree@TRegistry@@QEAAHPEBD@Z PROC		; TRegistry::DeleteChildTree, COMDAT

; 344  : {

$LN30:
  00000	40 57		 push	 rdi
  00002	48 83 ec 40	 sub	 rsp, 64			; 00000040H
  00006	48 c7 44 24 20
	fe ff ff ff	 mov	 QWORD PTR $T1[rsp], -2
  0000f	48 89 5c 24 50	 mov	 QWORD PTR [rsp+80], rbx
  00014	48 89 6c 24 58	 mov	 QWORD PTR [rsp+88], rbp
  00019	48 89 74 24 60	 mov	 QWORD PTR [rsp+96], rsi
  0001e	48 8b f2	 mov	 rsi, rdx
  00021	48 8b e9	 mov	 rbp, rcx
; File f:\software1\系统软件\fastcopy\fastcopy325src\src\tlib\tapi32u8.h

; 100  : 		str = _str ? mode == BY_UTF8 ? U8toW(_str) : AtoW(_str) : NULL;

  00024	33 ff		 xor	 edi, edi
  00026	48 85 d2	 test	 rdx, rdx
  00029	74 26		 je	 SHORT $LN14@DeleteChil
  0002b	39 79 0c	 cmp	 DWORD PTR [rcx+12], edi
  0002e	48 8b ca	 mov	 rcx, rdx
  00031	75 0f		 jne	 SHORT $LN12@DeleteChil
  00033	e8 00 00 00 00	 call	 ?U8toW@@YAPEA_WPEBDH@Z	; U8toW
  00038	48 8b d8	 mov	 rbx, rax
  0003b	48 89 44 24 28	 mov	 QWORD PTR subKey_w$[rsp], rax
  00040	eb 17		 jmp	 SHORT $LN15@DeleteChil
$LN12@DeleteChil:
  00042	e8 00 00 00 00	 call	 ?AtoW@@YAPEA_WPEBDH@Z	; AtoW
  00047	48 8b d8	 mov	 rbx, rax
  0004a	48 89 44 24 28	 mov	 QWORD PTR subKey_w$[rsp], rax
  0004f	eb 08		 jmp	 SHORT $LN15@DeleteChil
$LN14@DeleteChil:
  00051	48 8b df	 mov	 rbx, rdi
  00054	48 89 5c 24 28	 mov	 QWORD PTR subKey_w$[rsp], rbx
$LN15@DeleteChil:

; 101  : 		len = -1;

  00059	c7 44 24 30 ff
	ff ff ff	 mov	 DWORD PTR subKey_w$[rsp+8], -1
; File f:\software1\系统软件\fastcopy\fastcopy325src\src\tlib\tregist.cpp

; 346  : 	return	DeleteChildTreeW(subKey ? subKey_w.s() : NULL);

  00061	48 85 f6	 test	 rsi, rsi
  00064	74 0e		 je	 SHORT $LN4@DeleteChil
; File f:\software1\系统软件\fastcopy\fastcopy325src\src\tlib\tapi32u8.h

; 172  : 		return str ? str : L"";

  00066	48 8d 3d 00 00
	00 00		 lea	 rdi, OFFSET FLAT:??_C@_11LOCGONAA@?$AA?$AA@
  0006d	48 85 db	 test	 rbx, rbx
  00070	48 0f 45 fb	 cmovne	 rdi, rbx
$LN4@DeleteChil:
; File f:\software1\系统软件\fastcopy\fastcopy325src\src\tlib\tregist.cpp

; 346  : 	return	DeleteChildTreeW(subKey ? subKey_w.s() : NULL);

  00074	48 8b d7	 mov	 rdx, rdi
  00077	48 8b cd	 mov	 rcx, rbp
  0007a	e8 00 00 00 00	 call	 ?DeleteChildTreeW@TRegistry@@QEAAHPEB_W@Z ; TRegistry::DeleteChildTreeW
  0007f	8b f8		 mov	 edi, eax
; File f:\software1\系统软件\fastcopy\fastcopy325src\src\tlib\tapi32u8.h

; 114  : 		if (str) {

  00081	48 85 db	 test	 rbx, rbx
  00084	74 0a		 je	 SHORT $LN27@DeleteChil

; 115  : 			delete [] str;

  00086	48 8b cb	 mov	 rcx, rbx
  00089	e8 00 00 00 00	 call	 ??_V@YAXPEAX@Z		; operator delete[]
; File f:\software1\系统软件\fastcopy\fastcopy325src\src\tlib\tregist.cpp

; 346  : 	return	DeleteChildTreeW(subKey ? subKey_w.s() : NULL);

  0008e	8b c7		 mov	 eax, edi
$LN27@DeleteChil:

; 347  : }

  00090	48 8b 5c 24 50	 mov	 rbx, QWORD PTR [rsp+80]
  00095	48 8b 6c 24 58	 mov	 rbp, QWORD PTR [rsp+88]
  0009a	48 8b 74 24 60	 mov	 rsi, QWORD PTR [rsp+96]
  0009f	48 83 c4 40	 add	 rsp, 64			; 00000040H
  000a3	5f		 pop	 rdi
  000a4	c3		 ret	 0
?DeleteChildTree@TRegistry@@QEAAHPEBD@Z ENDP		; TRegistry::DeleteChildTree
_TEXT	ENDS
;	COMDAT text$x
text$x	SEGMENT
$T1 = 32
subKey_w$ = 40
this$ = 80
subKey$ = 88
?dtor$0@?0??DeleteChildTree@TRegistry@@QEAAHPEBD@Z@4HA PROC ; `TRegistry::DeleteChildTree'::`1'::dtor$0
  00000	48 8d 8a 28 00
	00 00		 lea	 rcx, QWORD PTR subKey_w$[rdx]
  00007	e9 00 00 00 00	 jmp	 ??1Wstr@@QEAA@XZ	; Wstr::~Wstr
?dtor$0@?0??DeleteChildTree@TRegistry@@QEAAHPEBD@Z@4HA ENDP ; `TRegistry::DeleteChildTree'::`1'::dtor$0
text$x	ENDS
; Function compile flags: /Ogtpy
;	COMDAT text$x
text$x	SEGMENT
$T1 = 32
subKey_w$ = 40
this$ = 80
subKey$ = 88
?dtor$0@?0??DeleteChildTree@TRegistry@@QEAAHPEBD@Z@4HA PROC ; `TRegistry::DeleteChildTree'::`1'::dtor$0
  00000	48 8d 8a 28 00
	00 00		 lea	 rcx, QWORD PTR subKey_w$[rdx]
  00007	e9 00 00 00 00	 jmp	 ??1Wstr@@QEAA@XZ	; Wstr::~Wstr
?dtor$0@?0??DeleteChildTree@TRegistry@@QEAAHPEBD@Z@4HA ENDP ; `TRegistry::DeleteChildTree'::`1'::dtor$0
text$x	ENDS
; Function compile flags: /Ogtpy
; File f:\software1\系统软件\fastcopy\fastcopy325src\src\tlib\tregist.cpp
;	COMDAT ?OpenKeyW@TRegistry@@QEAAHPEB_WH@Z
_TEXT	SEGMENT
tmp$ = 96
this$ = 96
subKey$ = 104
createFlg$ = 112
?OpenKeyW@TRegistry@@QEAAHPEB_WH@Z PROC			; TRegistry::OpenKeyW, COMDAT

; 84   : {

$LN14:
  00000	48 89 5c 24 10	 mov	 QWORD PTR [rsp+16], rbx
  00005	48 89 74 24 18	 mov	 QWORD PTR [rsp+24], rsi
  0000a	57		 push	 rdi
  0000b	48 83 ec 50	 sub	 rsp, 80			; 00000050H

; 85   : 	HKEY	parentKey = (openCnt == 0 ? topKey : hKey[openCnt -1]);

  0000f	4c 63 49 08	 movsxd	 r9, DWORD PTR [rcx+8]
  00013	48 8b f2	 mov	 rsi, rdx
  00016	48 8b d9	 mov	 rbx, rcx
  00019	45 85 c9	 test	 r9d, r9d
  0001c	75 05		 jne	 SHORT $LN9@OpenKeyW
  0001e	48 8b 39	 mov	 rdi, QWORD PTR [rcx]
  00021	eb 0c		 jmp	 SHORT $LN10@OpenKeyW
$LN9@OpenKeyW:
  00023	41 8d 41 ff	 lea	 eax, DWORD PTR [r9-1]
  00027	48 63 c8	 movsxd	 rcx, eax
  0002a	48 8b 7c cb 10	 mov	 rdi, QWORD PTR [rbx+rcx*8+16]
$LN10@OpenKeyW:

; 86   : 
; 87   : 	if (openCnt >= MAX_KEYARRAY) {

  0002f	41 83 f9 1e	 cmp	 r9d, 30
  00033	7c 12		 jl	 SHORT $LN2@OpenKeyW
$LN12@OpenKeyW:

; 88   : 		return	FALSE;

  00035	33 c0		 xor	 eax, eax

; 105  : 	else
; 106  : 		return	FALSE;
; 107  : }

  00037	48 8b 5c 24 68	 mov	 rbx, QWORD PTR [rsp+104]
  0003c	48 8b 74 24 70	 mov	 rsi, QWORD PTR [rsp+112]
  00041	48 83 c4 50	 add	 rsp, 80			; 00000050H
  00045	5f		 pop	 rdi
  00046	c3		 ret	 0
$LN2@OpenKeyW:

; 89   : 	}
; 90   : 	DWORD	tmp;
; 91   : 	LONG	status;
; 92   : 
; 93   : 	if (createFlg) {
; 94   : 		status = ::RegCreateKeyExW(parentKey, subKey, 0, NULL, REG_OPTION_NON_VOLATILE,

  00047	49 8d 41 02	 lea	 rax, QWORD PTR [r9+2]
  0004b	45 85 c0	 test	 r8d, r8d
  0004e	74 3a		 je	 SHORT $LN3@OpenKeyW
  00050	48 8d 14 c3	 lea	 rdx, QWORD PTR [rbx+rax*8]
  00054	45 33 c9	 xor	 r9d, r9d
  00057	48 8d 44 24 60	 lea	 rax, QWORD PTR tmp$[rsp]
  0005c	45 33 c0	 xor	 r8d, r8d
  0005f	48 89 44 24 40	 mov	 QWORD PTR [rsp+64], rax
  00064	48 8b cf	 mov	 rcx, rdi
  00067	48 89 54 24 38	 mov	 QWORD PTR [rsp+56], rdx
  0006c	33 c0		 xor	 eax, eax
  0006e	48 89 44 24 30	 mov	 QWORD PTR [rsp+48], rax
  00073	48 8b d6	 mov	 rdx, rsi
  00076	c7 44 24 28 3f
	00 0f 00	 mov	 DWORD PTR [rsp+40], 983103 ; 000f003fH
  0007e	89 44 24 20	 mov	 DWORD PTR [rsp+32], eax
  00082	ff 15 00 00 00
	00		 call	 QWORD PTR __imp_RegCreateKeyExW

; 95   : 					KEY_ALL_ACCESS, NULL, &hKey[openCnt], &tmp);
; 96   : 	}
; 97   : 	else {

  00088	eb 45		 jmp	 SHORT $LN5@OpenKeyW
$LN3@OpenKeyW:

; 98   : 		if ((status = ::RegOpenKeyExW(parentKey, subKey, 0, KEY_ALL_ACCESS, &hKey[openCnt]))
; 99   : 				!= ERROR_SUCCESS)

  0008a	48 8d 0c c3	 lea	 rcx, QWORD PTR [rbx+rax*8]
  0008e	41 b9 3f 00 0f
	00		 mov	 r9d, 983103		; 000f003fH
  00094	48 89 4c 24 20	 mov	 QWORD PTR [rsp+32], rcx
  00099	45 33 c0	 xor	 r8d, r8d
  0009c	48 8b cf	 mov	 rcx, rdi
  0009f	ff 15 00 00 00
	00		 call	 QWORD PTR __imp_RegOpenKeyExW
  000a5	85 c0		 test	 eax, eax
  000a7	74 2e		 je	 SHORT $LN11@OpenKeyW

; 100  : 			status = ::RegOpenKeyExW(parentKey, subKey, 0, KEY_READ, &hKey[openCnt]);

  000a9	48 63 43 08	 movsxd	 rax, DWORD PTR [rbx+8]
  000ad	41 b9 19 00 02
	00		 mov	 r9d, 131097		; 00020019H
  000b3	48 83 c0 02	 add	 rax, 2
  000b7	45 33 c0	 xor	 r8d, r8d
  000ba	48 8b d6	 mov	 rdx, rsi
  000bd	48 8d 0c c3	 lea	 rcx, QWORD PTR [rbx+rax*8]
  000c1	48 89 4c 24 20	 mov	 QWORD PTR [rsp+32], rcx
  000c6	48 8b cf	 mov	 rcx, rdi
  000c9	ff 15 00 00 00
	00		 call	 QWORD PTR __imp_RegOpenKeyExW
$LN5@OpenKeyW:

; 101  : 	}
; 102  : 
; 103  : 	if (status == ERROR_SUCCESS)

  000cf	85 c0		 test	 eax, eax
  000d1	0f 85 5e ff ff
	ff		 jne	 $LN12@OpenKeyW
$LN11@OpenKeyW:

; 104  : 		return	openCnt++, TRUE;

  000d7	ff 43 08	 inc	 DWORD PTR [rbx+8]
  000da	b8 01 00 00 00	 mov	 eax, 1

; 105  : 	else
; 106  : 		return	FALSE;
; 107  : }

  000df	48 8b 5c 24 68	 mov	 rbx, QWORD PTR [rsp+104]
  000e4	48 8b 74 24 70	 mov	 rsi, QWORD PTR [rsp+112]
  000e9	48 83 c4 50	 add	 rsp, 80			; 00000050H
  000ed	5f		 pop	 rdi
  000ee	c3		 ret	 0
?OpenKeyW@TRegistry@@QEAAHPEB_WH@Z ENDP			; TRegistry::OpenKeyW
_TEXT	ENDS
; Function compile flags: /Ogtpy
; File f:\software1\系统软件\fastcopy\fastcopy325src\src\tlib\tregist.cpp
; File f:\software1\系统软件\fastcopy\fastcopy325src\src\tlib\tapi32u8.h
; File f:\software1\系统软件\fastcopy\fastcopy325src\src\tlib\tregist.cpp
; File f:\software1\系统软件\fastcopy\fastcopy325src\src\tlib\tapi32u8.h
; File f:\software1\系统软件\fastcopy\fastcopy325src\src\tlib\tregist.cpp
; File f:\software1\系统软件\fastcopy\fastcopy325src\src\tlib\tapi32u8.h
; File f:\software1\系统软件\fastcopy\fastcopy325src\src\tlib\tregist.cpp
;	COMDAT ?GetLong@TRegistry@@QEAAHPEBDPEAJ@Z
_TEXT	SEGMENT
this$ = 48
subKey$ = 56
val$ = 64
?GetLong@TRegistry@@QEAAHPEBDPEAJ@Z PROC		; TRegistry::GetLong, COMDAT

; 169  : {

$LN32:
  00000	48 89 5c 24 08	 mov	 QWORD PTR [rsp+8], rbx
  00005	48 89 74 24 10	 mov	 QWORD PTR [rsp+16], rsi
  0000a	57		 push	 rdi
  0000b	48 83 ec 20	 sub	 rsp, 32			; 00000020H
  0000f	49 8b f0	 mov	 rsi, r8
  00012	48 8b f9	 mov	 rdi, rcx
; File f:\software1\系统软件\fastcopy\fastcopy325src\src\tlib\tapi32u8.h

; 100  : 		str = _str ? mode == BY_UTF8 ? U8toW(_str) : AtoW(_str) : NULL;

  00015	48 85 d2	 test	 rdx, rdx
  00018	74 28		 je	 SHORT $LN14@GetLong
  0001a	83 79 0c 00	 cmp	 DWORD PTR [rcx+12], 0
  0001e	48 8b ca	 mov	 rcx, rdx
  00021	75 07		 jne	 SHORT $LN12@GetLong
  00023	e8 00 00 00 00	 call	 ?U8toW@@YAPEA_WPEBDH@Z	; U8toW
  00028	eb 05		 jmp	 SHORT $LN30@GetLong
$LN12@GetLong:
  0002a	e8 00 00 00 00	 call	 ?AtoW@@YAPEA_WPEBDH@Z	; AtoW
$LN30@GetLong:

; 172  : 		return str ? str : L"";

  0002f	48 85 c0	 test	 rax, rax
  00032	48 8d 15 00 00
	00 00		 lea	 rdx, OFFSET FLAT:??_C@_11LOCGONAA@?$AA?$AA@

; 100  : 		str = _str ? mode == BY_UTF8 ? U8toW(_str) : AtoW(_str) : NULL;

  00039	48 8b d8	 mov	 rbx, rax

; 172  : 		return str ? str : L"";

  0003c	48 0f 45 d0	 cmovne	 rdx, rax
; File f:\software1\系统软件\fastcopy\fastcopy325src\src\tlib\tregist.cpp

; 171  : 	return	GetLongW(subKey ? subKey_w.s() : NULL, val);

  00040	eb 04		 jmp	 SHORT $LN4@GetLong
$LN14@GetLong:
; File f:\software1\系统软件\fastcopy\fastcopy325src\src\tlib\tapi32u8.h

; 100  : 		str = _str ? mode == BY_UTF8 ? U8toW(_str) : AtoW(_str) : NULL;

  00042	33 db		 xor	 ebx, ebx
; File f:\software1\系统软件\fastcopy\fastcopy325src\src\tlib\tregist.cpp

; 171  : 	return	GetLongW(subKey ? subKey_w.s() : NULL, val);

  00044	8b d3		 mov	 edx, ebx
$LN4@GetLong:
  00046	4c 8b c6	 mov	 r8, rsi
  00049	48 8b cf	 mov	 rcx, rdi
  0004c	e8 00 00 00 00	 call	 ?GetLongW@TRegistry@@QEAAHPEB_WPEAJ@Z ; TRegistry::GetLongW
  00051	8b f8		 mov	 edi, eax
; File f:\software1\系统软件\fastcopy\fastcopy325src\src\tlib\tapi32u8.h

; 114  : 		if (str) {

  00053	48 85 db	 test	 rbx, rbx
  00056	74 0a		 je	 SHORT $LN27@GetLong

; 115  : 			delete [] str;

  00058	48 8b cb	 mov	 rcx, rbx
  0005b	e8 00 00 00 00	 call	 ??_V@YAXPEAX@Z		; operator delete[]
; File f:\software1\系统软件\fastcopy\fastcopy325src\src\tlib\tregist.cpp

; 171  : 	return	GetLongW(subKey ? subKey_w.s() : NULL, val);

  00060	8b c7		 mov	 eax, edi
$LN27@GetLong:

; 172  : }

  00062	48 8b 5c 24 30	 mov	 rbx, QWORD PTR [rsp+48]
  00067	48 8b 74 24 38	 mov	 rsi, QWORD PTR [rsp+56]
  0006c	48 83 c4 20	 add	 rsp, 32			; 00000020H
  00070	5f		 pop	 rdi
  00071	c3		 ret	 0
?GetLong@TRegistry@@QEAAHPEBDPEAJ@Z ENDP		; TRegistry::GetLong
_TEXT	ENDS
; Function compile flags: /Ogtpy
; File f:\software1\系统软件\fastcopy\fastcopy325src\src\tlib\tregist.cpp
;	COMDAT ?GetLongW@TRegistry@@QEAAHPEB_WPEAJ@Z
_TEXT	SEGMENT
dw_size$ = 48
type$ = 52
size_byte$ = 56
wbuf$ = 64
__$ArrayPad$ = 272
this$ = 320
subKey$ = 328
val$ = 336
?GetLongW@TRegistry@@QEAAHPEB_WPEAJ@Z PROC		; TRegistry::GetLongW, COMDAT

; 175  : {

$LN7:
  00000	40 53		 push	 rbx
  00002	56		 push	 rsi
  00003	57		 push	 rdi
  00004	48 81 ec 20 01
	00 00		 sub	 rsp, 288		; 00000120H
  0000b	48 8b 05 00 00
	00 00		 mov	 rax, QWORD PTR __security_cookie
  00012	48 33 c4	 xor	 rax, rsp
  00015	48 89 84 24 10
	01 00 00	 mov	 QWORD PTR __$ArrayPad$[rsp], rax

; 176  : 	DWORD	type = REG_DWORD, dw_size = sizeof(long);
; 177  : 
; 178  : 	if (::RegQueryValueExW(hKey[openCnt -1], subKey, 0, &type, (BYTE *)val, &dw_size)
; 179  : 			== ERROR_SUCCESS) {

  0001d	8b 41 08	 mov	 eax, DWORD PTR [rcx+8]
  00020	4c 8d 4c 24 34	 lea	 r9, QWORD PTR type$[rsp]
  00025	ff c8		 dec	 eax
  00027	c7 44 24 34 04
	00 00 00	 mov	 DWORD PTR type$[rsp], 4
  0002f	48 8b d9	 mov	 rbx, rcx
  00032	c7 44 24 30 04
	00 00 00	 mov	 DWORD PTR dw_size$[rsp], 4
  0003a	48 63 c8	 movsxd	 rcx, eax
  0003d	49 8b f8	 mov	 rdi, r8
  00040	48 8d 44 24 30	 lea	 rax, QWORD PTR dw_size$[rsp]
  00045	48 8b f2	 mov	 rsi, rdx
  00048	48 89 44 24 28	 mov	 QWORD PTR [rsp+40], rax
  0004d	4c 89 44 24 20	 mov	 QWORD PTR [rsp+32], r8
  00052	45 33 c0	 xor	 r8d, r8d
  00055	48 8b 4c cb 10	 mov	 rcx, QWORD PTR [rbx+rcx*8+16]
  0005a	ff 15 00 00 00
	00		 call	 QWORD PTR __imp_RegQueryValueExW
  00060	85 c0		 test	 eax, eax
  00062	74 42		 je	 SHORT $LN5@GetLongW

; 180  : 		return	TRUE;
; 181  : 	}
; 182  : // 浜х
; 183  : 	WCHAR	wbuf[100];
; 184  : 	long	size_byte = sizeof(wbuf);
; 185  : 
; 186  : 	if (::RegQueryValueW(hKey[openCnt -1], subKey, wbuf, &size_byte) != ERROR_SUCCESS)

  00064	8b 43 08	 mov	 eax, DWORD PTR [rbx+8]
  00067	4c 8d 4c 24 38	 lea	 r9, QWORD PTR size_byte$[rsp]
  0006c	ff c8		 dec	 eax
  0006e	c7 44 24 38 c8
	00 00 00	 mov	 DWORD PTR size_byte$[rsp], 200 ; 000000c8H
  00076	48 63 c8	 movsxd	 rcx, eax
  00079	4c 8d 44 24 40	 lea	 r8, QWORD PTR wbuf$[rsp]
  0007e	48 8b d6	 mov	 rdx, rsi
  00081	48 8b 4c cb 10	 mov	 rcx, QWORD PTR [rbx+rcx*8+16]
  00086	ff 15 00 00 00
	00		 call	 QWORD PTR __imp_RegQueryValueW
  0008c	85 c0		 test	 eax, eax
  0008e	74 04		 je	 SHORT $LN3@GetLongW

; 187  : 		return	FALSE;

  00090	33 c0		 xor	 eax, eax
  00092	eb 17		 jmp	 SHORT $LN1@GetLongW
$LN3@GetLongW:

; 188  : 	*val = wcstol(wbuf, 0, 10);

  00094	33 d2		 xor	 edx, edx
  00096	48 8d 4c 24 40	 lea	 rcx, QWORD PTR wbuf$[rsp]
  0009b	44 8d 42 0a	 lea	 r8d, QWORD PTR [rdx+10]
  0009f	e8 00 00 00 00	 call	 wcstol
  000a4	89 07		 mov	 DWORD PTR [rdi], eax
$LN5@GetLongW:

; 189  : 	return	TRUE;

  000a6	b8 01 00 00 00	 mov	 eax, 1
$LN1@GetLongW:

; 190  : }

  000ab	48 8b 8c 24 10
	01 00 00	 mov	 rcx, QWORD PTR __$ArrayPad$[rsp]
  000b3	48 33 cc	 xor	 rcx, rsp
  000b6	e8 00 00 00 00	 call	 __security_check_cookie
  000bb	48 81 c4 20 01
	00 00		 add	 rsp, 288		; 00000120H
  000c2	5f		 pop	 rdi
  000c3	5e		 pop	 rsi
  000c4	5b		 pop	 rbx
  000c5	c3		 ret	 0
?GetLongW@TRegistry@@QEAAHPEB_WPEAJ@Z ENDP		; TRegistry::GetLongW
_TEXT	ENDS
; Function compile flags: /Ogtpy
; File f:\software1\系统软件\fastcopy\fastcopy325src\src\tlib\tregist.cpp
; File f:\software1\系统软件\fastcopy\fastcopy325src\src\tlib\tapi32u8.h
; File f:\software1\系统软件\fastcopy\fastcopy325src\src\tlib\tregist.cpp
; File f:\software1\系统软件\fastcopy\fastcopy325src\src\tlib\tapi32u8.h
; File f:\software1\系统软件\fastcopy\fastcopy325src\src\tlib\tregist.cpp
; File f:\software1\系统软件\fastcopy\fastcopy325src\src\tlib\tapi32u8.h
; File f:\software1\系统软件\fastcopy\fastcopy325src\src\tlib\tregist.cpp
; File f:\software1\系统软件\fastcopy\fastcopy325src\src\tlib\tapi32u8.h
; File f:\software1\系统软件\fastcopy\fastcopy325src\src\tlib\tregist.cpp
; File f:\software1\系统软件\fastcopy\fastcopy325src\src\tlib\tapi32u8.h
; File f:\software1\系统软件\fastcopy\fastcopy325src\src\tlib\tregist.cpp
;	COMDAT ?SetLong@TRegistry@@QEAAHPEBDJ@Z
_TEXT	SEGMENT
this$ = 48
subKey$dead$ = 56
val$ = 64
?SetLong@TRegistry@@QEAAHPEBDJ@Z PROC			; TRegistry::SetLong, COMDAT

; 193  : {

$LN32:
  00000	48 89 5c 24 08	 mov	 QWORD PTR [rsp+8], rbx
  00005	48 89 74 24 10	 mov	 QWORD PTR [rsp+16], rsi
  0000a	57		 push	 rdi
  0000b	48 83 ec 20	 sub	 rsp, 32			; 00000020H
; File f:\software1\系统软件\fastcopy\fastcopy325src\src\tlib\tapi32u8.h

; 100  : 		str = _str ? mode == BY_UTF8 ? U8toW(_str) : AtoW(_str) : NULL;

  0000f	83 79 0c 00	 cmp	 DWORD PTR [rcx+12], 0
; File f:\software1\系统软件\fastcopy\fastcopy325src\src\tlib\tregist.cpp

; 193  : {

  00013	48 8b f9	 mov	 rdi, rcx
; File f:\software1\系统软件\fastcopy\fastcopy325src\src\tlib\tapi32u8.h

; 100  : 		str = _str ? mode == BY_UTF8 ? U8toW(_str) : AtoW(_str) : NULL;

  00016	48 8d 0d 00 00
	00 00		 lea	 rcx, OFFSET FLAT:??_C@_0BD@HIJBOKAK@FastCopyMenuFlags2?$AA@
; File f:\software1\系统软件\fastcopy\fastcopy325src\src\tlib\tregist.cpp

; 193  : {

  0001d	41 8b f0	 mov	 esi, r8d
; File f:\software1\系统软件\fastcopy\fastcopy325src\src\tlib\tapi32u8.h

; 100  : 		str = _str ? mode == BY_UTF8 ? U8toW(_str) : AtoW(_str) : NULL;

  00020	75 07		 jne	 SHORT $LN12@SetLong
  00022	e8 00 00 00 00	 call	 ?U8toW@@YAPEA_WPEBDH@Z	; U8toW
  00027	eb 05		 jmp	 SHORT $LN30@SetLong
$LN12@SetLong:
  00029	e8 00 00 00 00	 call	 ?AtoW@@YAPEA_WPEBDH@Z	; AtoW
$LN30@SetLong:

; 172  : 		return str ? str : L"";

  0002e	48 85 c0	 test	 rax, rax
  00031	48 8d 15 00 00
	00 00		 lea	 rdx, OFFSET FLAT:??_C@_11LOCGONAA@?$AA?$AA@
; File f:\software1\系统软件\fastcopy\fastcopy325src\src\tlib\tregist.cpp

; 195  : 	return	SetLongW(subKey ? subKey_w.s() : NULL, val);

  00038	44 8b c6	 mov	 r8d, esi
  0003b	48 8b cf	 mov	 rcx, rdi
; File f:\software1\系统软件\fastcopy\fastcopy325src\src\tlib\tapi32u8.h

; 172  : 		return str ? str : L"";

  0003e	48 0f 45 d0	 cmovne	 rdx, rax

; 100  : 		str = _str ? mode == BY_UTF8 ? U8toW(_str) : AtoW(_str) : NULL;

  00042	48 8b d8	 mov	 rbx, rax
; File f:\software1\系统软件\fastcopy\fastcopy325src\src\tlib\tregist.cpp

; 195  : 	return	SetLongW(subKey ? subKey_w.s() : NULL, val);

  00045	e8 00 00 00 00	 call	 ?SetLongW@TRegistry@@QEAAHPEB_WJ@Z ; TRegistry::SetLongW
  0004a	8b f8		 mov	 edi, eax
; File f:\software1\系统软件\fastcopy\fastcopy325src\src\tlib\tapi32u8.h

; 114  : 		if (str) {

  0004c	48 85 db	 test	 rbx, rbx
  0004f	74 0a		 je	 SHORT $LN27@SetLong

; 115  : 			delete [] str;

  00051	48 8b cb	 mov	 rcx, rbx
  00054	e8 00 00 00 00	 call	 ??_V@YAXPEAX@Z		; operator delete[]
; File f:\software1\系统软件\fastcopy\fastcopy325src\src\tlib\tregist.cpp

; 195  : 	return	SetLongW(subKey ? subKey_w.s() : NULL, val);

  00059	8b c7		 mov	 eax, edi
$LN27@SetLong:

; 196  : }

  0005b	48 8b 5c 24 30	 mov	 rbx, QWORD PTR [rsp+48]
  00060	48 8b 74 24 38	 mov	 rsi, QWORD PTR [rsp+56]
  00065	48 83 c4 20	 add	 rsp, 32			; 00000020H
  00069	5f		 pop	 rdi
  0006a	c3		 ret	 0
?SetLong@TRegistry@@QEAAHPEBDJ@Z ENDP			; TRegistry::SetLong
_TEXT	ENDS
; Function compile flags: /Ogtpy
; File f:\software1\系统软件\fastcopy\fastcopy325src\src\tlib\tregist.cpp
;	COMDAT ?SetLongW@TRegistry@@QEAAHPEB_WJ@Z
_TEXT	SEGMENT
this$ = 64
subKey$ = 72
val$ = 80
?SetLongW@TRegistry@@QEAAHPEB_WJ@Z PROC			; TRegistry::SetLongW, COMDAT

; 199  : {

$LN4:
  00000	44 89 44 24 18	 mov	 DWORD PTR [rsp+24], r8d
  00005	48 83 ec 38	 sub	 rsp, 56			; 00000038H

; 200  : 	return	::RegSetValueExW(hKey[openCnt -1], subKey, 0, REG_DWORD,

  00009	8b 41 08	 mov	 eax, DWORD PTR [rcx+8]
  0000c	4c 8b d1	 mov	 r10, rcx
  0000f	ff c8		 dec	 eax
  00011	c7 44 24 28 04
	00 00 00	 mov	 DWORD PTR [rsp+40], 4
  00019	48 63 c8	 movsxd	 rcx, eax
  0001c	41 b9 04 00 00
	00		 mov	 r9d, 4
  00022	48 8d 44 24 50	 lea	 rax, QWORD PTR val$[rsp]
  00027	45 33 c0	 xor	 r8d, r8d
  0002a	48 89 44 24 20	 mov	 QWORD PTR [rsp+32], rax
  0002f	49 8b 4c ca 10	 mov	 rcx, QWORD PTR [r10+rcx*8+16]
  00034	ff 15 00 00 00
	00		 call	 QWORD PTR __imp_RegSetValueExW
  0003a	33 c9		 xor	 ecx, ecx
  0003c	85 c0		 test	 eax, eax
  0003e	0f 94 c1	 sete	 cl
  00041	8b c1		 mov	 eax, ecx

; 201  : 			(const BYTE *)&val, sizeof(val)) == ERROR_SUCCESS;
; 202  : }

  00043	48 83 c4 38	 add	 rsp, 56			; 00000038H
  00047	c3		 ret	 0
?SetLongW@TRegistry@@QEAAHPEB_WJ@Z ENDP			; TRegistry::SetLongW
_TEXT	ENDS
; Function compile flags: /Ogtpy
; File f:\software1\系统软件\fastcopy\fastcopy325src\src\tlib\tregist.cpp
;	COMDAT ?SetStrW@TRegistry@@QEAAHPEB_W0@Z
_TEXT	SEGMENT
this$ = 64
subKey$ = 72
str$ = 80
?SetStrW@TRegistry@@QEAAHPEB_W0@Z PROC			; TRegistry::SetStrW, COMDAT

; 252  : {

$LN5:
  00000	48 83 ec 38	 sub	 rsp, 56			; 00000038H
  00004	4c 8b da	 mov	 r11, rdx
  00007	4c 8b d1	 mov	 r10, rcx

; 253  : 	return	::RegSetValueExW(hKey[openCnt -1], subKey, 0, REG_SZ, (const BYTE *)str,

  0000a	48 83 c8 ff	 or	 rax, -1
  0000e	66 90		 npad	 2
$LL3@SetStrW:
  00010	66 41 83 7c 40
	02 00		 cmp	 WORD PTR [r8+rax*2+2], 0
  00017	48 8d 40 01	 lea	 rax, QWORD PTR [rax+1]
  0001b	75 f3		 jne	 SHORT $LL3@SetStrW
  0001d	8d 14 45 02 00
	00 00		 lea	 edx, DWORD PTR [rax*2+2]
  00024	41 b9 01 00 00
	00		 mov	 r9d, 1
  0002a	8b 41 08	 mov	 eax, DWORD PTR [rcx+8]
  0002d	89 54 24 28	 mov	 DWORD PTR [rsp+40], edx
  00031	ff c8		 dec	 eax
  00033	48 63 c8	 movsxd	 rcx, eax
  00036	49 8b d3	 mov	 rdx, r11
  00039	4c 89 44 24 20	 mov	 QWORD PTR [rsp+32], r8
  0003e	45 33 c0	 xor	 r8d, r8d
  00041	49 8b 4c ca 10	 mov	 rcx, QWORD PTR [r10+rcx*8+16]
  00046	ff 15 00 00 00
	00		 call	 QWORD PTR __imp_RegSetValueExW
  0004c	33 c9		 xor	 ecx, ecx
  0004e	85 c0		 test	 eax, eax
  00050	0f 94 c1	 sete	 cl
  00053	8b c1		 mov	 eax, ecx

; 254  : 			(DWORD((wcslen(str) +1) * sizeof(WCHAR)))) == ERROR_SUCCESS;
; 255  : }

  00055	48 83 c4 38	 add	 rsp, 56			; 00000038H
  00059	c3		 ret	 0
?SetStrW@TRegistry@@QEAAHPEB_W0@Z ENDP			; TRegistry::SetStrW
_TEXT	ENDS
; Function compile flags: /Ogtpy
; File f:\software1\系统软件\fastcopy\fastcopy325src\src\tlib\tregist.cpp
;	COMDAT ?DeleteKeyW@TRegistry@@QEAAHPEB_W@Z
_TEXT	SEGMENT
this$ = 48
subKey$ = 56
?DeleteKeyW@TRegistry@@QEAAHPEB_W@Z PROC		; TRegistry::DeleteKeyW, COMDAT

; 291  : {

$LN4:
  00000	48 83 ec 28	 sub	 rsp, 40			; 00000028H

; 292  : 	return	::RegDeleteKeyW(hKey[openCnt -1], subKey) == ERROR_SUCCESS;

  00004	8b 41 08	 mov	 eax, DWORD PTR [rcx+8]
  00007	4c 8b c1	 mov	 r8, rcx
  0000a	ff c8		 dec	 eax
  0000c	48 63 c8	 movsxd	 rcx, eax
  0000f	49 8b 4c c8 10	 mov	 rcx, QWORD PTR [r8+rcx*8+16]
  00014	ff 15 00 00 00
	00		 call	 QWORD PTR __imp_RegDeleteKeyW
  0001a	33 c9		 xor	 ecx, ecx
  0001c	85 c0		 test	 eax, eax
  0001e	0f 94 c1	 sete	 cl
  00021	8b c1		 mov	 eax, ecx

; 293  : }

  00023	48 83 c4 28	 add	 rsp, 40			; 00000028H
  00027	c3		 ret	 0
?DeleteKeyW@TRegistry@@QEAAHPEB_W@Z ENDP		; TRegistry::DeleteKeyW
_TEXT	ENDS
; Function compile flags: /Ogtpy
; File f:\software1\系统软件\fastcopy\fastcopy325src\src\tlib\tregist.cpp
;	COMDAT ?DeleteValueW@TRegistry@@QEAAHPEB_W@Z
_TEXT	SEGMENT
this$ = 48
subValue$ = 56
?DeleteValueW@TRegistry@@QEAAHPEB_W@Z PROC		; TRegistry::DeleteValueW, COMDAT

; 302  : {

$LN4:
  00000	48 83 ec 28	 sub	 rsp, 40			; 00000028H

; 303  : 	return	::RegDeleteValueW(hKey[openCnt -1], subValue) == ERROR_SUCCESS;

  00004	8b 41 08	 mov	 eax, DWORD PTR [rcx+8]
  00007	4c 8b c1	 mov	 r8, rcx
  0000a	ff c8		 dec	 eax
  0000c	48 63 c8	 movsxd	 rcx, eax
  0000f	49 8b 4c c8 10	 mov	 rcx, QWORD PTR [r8+rcx*8+16]
  00014	ff 15 00 00 00
	00		 call	 QWORD PTR __imp_RegDeleteValueW
  0001a	33 c9		 xor	 ecx, ecx
  0001c	85 c0		 test	 eax, eax
  0001e	0f 94 c1	 sete	 cl
  00021	8b c1		 mov	 eax, ecx

; 304  : }

  00023	48 83 c4 28	 add	 rsp, 40			; 00000028H
  00027	c3		 ret	 0
?DeleteValueW@TRegistry@@QEAAHPEB_W@Z ENDP		; TRegistry::DeleteValueW
_TEXT	ENDS
; Function compile flags: /Ogtpy
; File f:\software1\系统软件\fastcopy\fastcopy325src\src\tlib\tregist.cpp
;	COMDAT ?EnumKeyW@TRegistry@@QEAAHKPEA_WH@Z
_TEXT	SEGMENT
size$ = 64
this$ = 96
cnt$dead$ = 104
buf$ = 112
size$dead$ = 120
?EnumKeyW@TRegistry@@QEAAHKPEA_WH@Z PROC		; TRegistry::EnumKeyW, COMDAT

; 317  : {

$LN4:
  00000	40 53		 push	 rbx
  00002	48 83 ec 50	 sub	 rsp, 80			; 00000050H

; 318  : 	return	::RegEnumKeyExW(hKey[openCnt -1], cnt, buf, (DWORD *)&size, 0, 0, 0, 0)

  00006	8b 41 08	 mov	 eax, DWORD PTR [rcx+8]
  00009	4c 8d 4c 24 40	 lea	 r9, QWORD PTR size$[rsp]
  0000e	33 db		 xor	 ebx, ebx
  00010	c7 44 24 40 00
	01 00 00	 mov	 DWORD PTR size$[rsp], 256 ; 00000100H
  00018	4c 8b d1	 mov	 r10, rcx
  0001b	48 89 5c 24 38	 mov	 QWORD PTR [rsp+56], rbx
  00020	ff c8		 dec	 eax
  00022	48 89 5c 24 30	 mov	 QWORD PTR [rsp+48], rbx
  00027	48 63 c8	 movsxd	 rcx, eax
  0002a	33 d2		 xor	 edx, edx
  0002c	48 89 5c 24 28	 mov	 QWORD PTR [rsp+40], rbx
  00031	48 89 5c 24 20	 mov	 QWORD PTR [rsp+32], rbx
  00036	49 8b 4c ca 10	 mov	 rcx, QWORD PTR [r10+rcx*8+16]
  0003b	ff 15 00 00 00
	00		 call	 QWORD PTR __imp_RegEnumKeyExW
  00041	85 c0		 test	 eax, eax
  00043	0f 94 c3	 sete	 bl
  00046	8b c3		 mov	 eax, ebx

; 319  : 			== ERROR_SUCCESS;
; 320  : }

  00048	48 83 c4 50	 add	 rsp, 80			; 00000050H
  0004c	5b		 pop	 rbx
  0004d	c3		 ret	 0
?EnumKeyW@TRegistry@@QEAAHKPEA_WH@Z ENDP		; TRegistry::EnumKeyW
_TEXT	ENDS
; Function compile flags: /Ogtpy
; File f:\software1\系统软件\fastcopy\fastcopy325src\src\tlib\tregist.cpp
;	COMDAT ?EnumValueW@TRegistry@@QEAAHKPEA_WHPEAK@Z
_TEXT	SEGMENT
size$ = 64
this$ = 96
cnt$dead$ = 104
buf$ = 112
size$dead$ = 120
type$dead$ = 128
?EnumValueW@TRegistry@@QEAAHKPEA_WHPEAK@Z PROC		; TRegistry::EnumValueW, COMDAT

; 334  : {

$LN4:
  00000	40 53		 push	 rbx
  00002	48 83 ec 50	 sub	 rsp, 80			; 00000050H

; 335  : 	return	::RegEnumValueW(hKey[openCnt -1], cnt, buf, (DWORD *)&size, 0, type, 0, 0)

  00006	8b 41 08	 mov	 eax, DWORD PTR [rcx+8]
  00009	4c 8d 4c 24 40	 lea	 r9, QWORD PTR size$[rsp]
  0000e	33 db		 xor	 ebx, ebx
  00010	c7 44 24 40 00
	01 00 00	 mov	 DWORD PTR size$[rsp], 256 ; 00000100H
  00018	4c 8b d1	 mov	 r10, rcx
  0001b	48 89 5c 24 38	 mov	 QWORD PTR [rsp+56], rbx
  00020	ff c8		 dec	 eax
  00022	48 89 5c 24 30	 mov	 QWORD PTR [rsp+48], rbx
  00027	48 63 c8	 movsxd	 rcx, eax
  0002a	33 d2		 xor	 edx, edx
  0002c	48 89 5c 24 28	 mov	 QWORD PTR [rsp+40], rbx
  00031	48 89 5c 24 20	 mov	 QWORD PTR [rsp+32], rbx
  00036	49 8b 4c ca 10	 mov	 rcx, QWORD PTR [r10+rcx*8+16]
  0003b	ff 15 00 00 00
	00		 call	 QWORD PTR __imp_RegEnumValueW
  00041	85 c0		 test	 eax, eax
  00043	0f 94 c3	 sete	 bl
  00046	8b c3		 mov	 eax, ebx

; 336  : 			== ERROR_SUCCESS;
; 337  : }

  00048	48 83 c4 50	 add	 rsp, 80			; 00000050H
  0004c	5b		 pop	 rbx
  0004d	c3		 ret	 0
?EnumValueW@TRegistry@@QEAAHKPEA_WHPEAK@Z ENDP		; TRegistry::EnumValueW
_TEXT	ENDS
; Function compile flags: /Ogtpy
; File f:\software1\系统软件\fastcopy\fastcopy325src\src\tlib\tregist.cpp
;	COMDAT ?DeleteChildTreeW@TRegistry@@QEAAHPEB_W@Z
_TEXT	SEGMENT
wbuf$ = 48
__$ArrayPad$ = 560
this$ = 592
subKey$ = 600
?DeleteChildTreeW@TRegistry@@QEAAHPEB_W@Z PROC		; TRegistry::DeleteChildTreeW, COMDAT

; 350  : {

$LN23:
  00000	48 89 5c 24 18	 mov	 QWORD PTR [rsp+24], rbx
  00005	48 89 74 24 20	 mov	 QWORD PTR [rsp+32], rsi
  0000a	57		 push	 rdi
  0000b	48 81 ec 40 02
	00 00		 sub	 rsp, 576		; 00000240H
  00012	48 8b 05 00 00
	00 00		 mov	 rax, QWORD PTR __security_cookie
  00019	48 33 c4	 xor	 rax, rsp
  0001c	48 89 84 24 30
	02 00 00	 mov	 QWORD PTR __$ArrayPad$[rsp], rax
  00024	48 8b f2	 mov	 rsi, rdx
  00027	48 8b d9	 mov	 rbx, rcx

; 351  : 	WCHAR	wbuf[256];
; 352  : 	BOOL	ret = TRUE;

  0002a	bf 01 00 00 00	 mov	 edi, 1

; 353  : 
; 354  : 	if (subKey && !OpenKeyW(subKey)) {

  0002f	48 85 d2	 test	 rdx, rdx
  00032	74 10		 je	 SHORT $LN12@DeleteChil
  00034	45 33 c0	 xor	 r8d, r8d
  00037	e8 00 00 00 00	 call	 ?OpenKeyW@TRegistry@@QEAAHPEB_WH@Z ; TRegistry::OpenKeyW
  0003c	85 c0		 test	 eax, eax
  0003e	0f 84 99 00 00
	00		 je	 $LN1@DeleteChil
$LN12@DeleteChil:

; 355  : 		return	FALSE;
; 356  : 	}
; 357  : 
; 358  : 	while (EnumKeyW(0, wbuf, wsizeof(wbuf)))

  00044	4c 8d 44 24 30	 lea	 r8, QWORD PTR wbuf$[rsp]
  00049	48 8b cb	 mov	 rcx, rbx
  0004c	e8 00 00 00 00	 call	 ?EnumKeyW@TRegistry@@QEAAHKPEA_WH@Z ; TRegistry::EnumKeyW
  00051	85 c0		 test	 eax, eax
  00053	74 2f		 je	 SHORT $LN20@DeleteChil
  00055	66 66 66 0f 1f
	84 00 00 00 00
	00		 npad	 11
$LL2@DeleteChil:

; 359  : 	{
; 360  : 		if (!(ret = DeleteChildTreeW(wbuf)))

  00060	48 8d 54 24 30	 lea	 rdx, QWORD PTR wbuf$[rsp]
  00065	48 8b cb	 mov	 rcx, rbx
  00068	e8 00 00 00 00	 call	 ?DeleteChildTreeW@TRegistry@@QEAAHPEB_W@Z ; TRegistry::DeleteChildTreeW
  0006d	8b f8		 mov	 edi, eax
  0006f	85 c0		 test	 eax, eax
  00071	74 11		 je	 SHORT $LN20@DeleteChil

; 355  : 		return	FALSE;
; 356  : 	}
; 357  : 
; 358  : 	while (EnumKeyW(0, wbuf, wsizeof(wbuf)))

  00073	4c 8d 44 24 30	 lea	 r8, QWORD PTR wbuf$[rsp]
  00078	48 8b cb	 mov	 rcx, rbx
  0007b	e8 00 00 00 00	 call	 ?EnumKeyW@TRegistry@@QEAAHKPEA_WH@Z ; TRegistry::EnumKeyW
  00080	85 c0		 test	 eax, eax
  00082	75 dc		 jne	 SHORT $LL2@DeleteChil
$LN20@DeleteChil:

; 361  : 			break;
; 362  : 	}
; 363  : 	if (subKey)
; 364  : 	{
; 365  : 		CloseKey();

  00084	48 8b cb	 mov	 rcx, rbx
  00087	48 85 f6	 test	 rsi, rsi
  0008a	74 19		 je	 SHORT $LN13@DeleteChil
  0008c	e8 00 00 00 00	 call	 ?CloseKey@TRegistry@@QEAAHXZ ; TRegistry::CloseKey

; 366  : 		ret = DeleteKeyW(subKey) ? ret : FALSE;

  00091	48 8b d6	 mov	 rdx, rsi
  00094	48 8b cb	 mov	 rcx, rbx
  00097	e8 00 00 00 00	 call	 ?DeleteKeyW@TRegistry@@QEAAHPEB_W@Z ; TRegistry::DeleteKeyW
  0009c	33 c9		 xor	 ecx, ecx
  0009e	85 c0		 test	 eax, eax
  000a0	0f 45 cf	 cmovne	 ecx, edi

; 367  : 	}
; 368  : 	else {

  000a3	eb 34		 jmp	 SHORT $LN21@DeleteChil
$LN13@DeleteChil:

; 369  : 		while (EnumValueW(0, wbuf, wsizeof(wbuf)))

  000a5	4c 8d 44 24 30	 lea	 r8, QWORD PTR wbuf$[rsp]
  000aa	e8 00 00 00 00	 call	 ?EnumValueW@TRegistry@@QEAAHKPEA_WHPEAK@Z ; TRegistry::EnumValueW
  000af	85 c0		 test	 eax, eax
  000b1	74 28		 je	 SHORT $LN5@DeleteChil
$LL4@DeleteChil:

; 370  : 		{
; 371  : 			if (!DeleteValueW(wbuf))

  000b3	48 8d 54 24 30	 lea	 rdx, QWORD PTR wbuf$[rsp]
  000b8	48 8b cb	 mov	 rcx, rbx
  000bb	e8 00 00 00 00	 call	 ?DeleteValueW@TRegistry@@QEAAHPEB_W@Z ; TRegistry::DeleteValueW
  000c0	85 c0		 test	 eax, eax
  000c2	74 13		 je	 SHORT $LN15@DeleteChil

; 369  : 		while (EnumValueW(0, wbuf, wsizeof(wbuf)))

  000c4	4c 8d 44 24 30	 lea	 r8, QWORD PTR wbuf$[rsp]
  000c9	48 8b cb	 mov	 rcx, rbx
  000cc	e8 00 00 00 00	 call	 ?EnumValueW@TRegistry@@QEAAHKPEA_WHPEAK@Z ; TRegistry::EnumValueW
  000d1	85 c0		 test	 eax, eax
  000d3	75 de		 jne	 SHORT $LL4@DeleteChil

; 370  : 		{
; 371  : 			if (!DeleteValueW(wbuf))

  000d5	eb 04		 jmp	 SHORT $LN5@DeleteChil
$LN15@DeleteChil:

; 372  : 			{
; 373  : 				ret = FALSE;

  000d7	33 c9		 xor	 ecx, ecx
$LN21@DeleteChil:
  000d9	8b f9		 mov	 edi, ecx
$LN5@DeleteChil:

; 374  : 				break;
; 375  : 			}
; 376  : 		}
; 377  : 	}
; 378  : 	return	ret;

  000db	8b c7		 mov	 eax, edi
$LN1@DeleteChil:

; 379  : }

  000dd	48 8b 8c 24 30
	02 00 00	 mov	 rcx, QWORD PTR __$ArrayPad$[rsp]
  000e5	48 33 cc	 xor	 rcx, rsp
  000e8	e8 00 00 00 00	 call	 __security_check_cookie
  000ed	4c 8d 9c 24 40
	02 00 00	 lea	 r11, QWORD PTR [rsp+576]
  000f5	49 8b 5b 20	 mov	 rbx, QWORD PTR [r11+32]
  000f9	49 8b 73 28	 mov	 rsi, QWORD PTR [r11+40]
  000fd	49 8b e3	 mov	 rsp, r11
  00100	5f		 pop	 rdi
  00101	c3		 ret	 0
?DeleteChildTreeW@TRegistry@@QEAAHPEB_W@Z ENDP		; TRegistry::DeleteChildTreeW
_TEXT	ENDS
END
